---
source: xtask/src/main.rs
description: riscv64-linux-musl-gcc (GCC) 9.4.0
expression: from_utf8(&output.stdout).unwrap()
---
malloc:     file format elf64-littleriscv
malloc
architecture: riscv:rv64, flags 0x00000112:
EXEC_P, HAS_SYMS, D_PAGED
start address 0x00000000000105e0

Program Header:
    PHDR off    0x0000000000000040 vaddr 0x0000000000010040 paddr 0x0000000000010040 align 2**3
         filesz 0x0000000000000188 memsz 0x0000000000000188 flags r--
  INTERP off    0x00000000000001c8 vaddr 0x00000000000101c8 paddr 0x00000000000101c8 align 2**0
         filesz 0x000000000000001a memsz 0x000000000000001a flags r--
    LOAD off    0x0000000000000000 vaddr 0x0000000000010000 paddr 0x0000000000010000 align 2**12
         filesz 0x000000000000151c memsz 0x000000000000151c flags r-x
    LOAD off    0x0000000000001e40 vaddr 0x0000000000012e40 paddr 0x0000000000012e40 align 2**12
         filesz 0x0000000000000238 memsz 0x0000000000000270 flags rw-
 DYNAMIC off    0x0000000000001e50 vaddr 0x0000000000012e50 paddr 0x0000000000012e50 align 2**3
         filesz 0x00000000000001b0 memsz 0x00000000000001b0 flags rw-
   STACK off    0x0000000000000000 vaddr 0x0000000000000000 paddr 0x0000000000000000 align 2**4
         filesz 0x0000000000000000 memsz 0x0000000000000000 flags rw-
   RELRO off    0x0000000000001e40 vaddr 0x0000000000012e40 paddr 0x0000000000012e40 align 2**0
         filesz 0x00000000000001c0 memsz 0x00000000000001c0 flags r--

Dynamic Section:
  NEEDED               libc.so
  INIT                 0x0000000000010570
  FINI                 0x00000000000105a0
  INIT_ARRAY           0x0000000000012e40
  INIT_ARRAYSZ         0x0000000000000008
  FINI_ARRAY           0x0000000000012e48
  FINI_ARRAYSZ         0x0000000000000008
  HASH                 0x00000000000101e8
  GNU_HASH             0x0000000000010230
  STRTAB               0x00000000000103a0
  SYMTAB               0x0000000000010280
  STRSZ                0x000000000000005d
  SYMENT               0x0000000000000018
  DEBUG                0x0000000000000000
  PLTGOT               0x0000000000013000
  PLTRELSZ             0x0000000000000108
  PLTREL               0x0000000000000007
  JMPREL               0x0000000000010400
  RELA                 0x0000000000010400
  RELASZ               0x0000000000000108
  RELAENT              0x0000000000000018

Sections:
Idx Name          Size      VMA               LMA               File off  Algn
  0 .interp       0000001a  00000000000101c8  00000000000101c8  000001c8  2**0
                  CONTENTS, ALLOC, LOAD, READONLY, DATA
  1 .hash         00000044  00000000000101e8  00000000000101e8  000001e8  2**3
                  CONTENTS, ALLOC, LOAD, READONLY, DATA
  2 .gnu.hash     00000050  0000000000010230  0000000000010230  00000230  2**3
                  CONTENTS, ALLOC, LOAD, READONLY, DATA
  3 .dynsym       00000120  0000000000010280  0000000000010280  00000280  2**3
                  CONTENTS, ALLOC, LOAD, READONLY, DATA
  4 .dynstr       0000005d  00000000000103a0  00000000000103a0  000003a0  2**0
                  CONTENTS, ALLOC, LOAD, READONLY, DATA
  5 .rela.plt     00000108  0000000000010400  0000000000010400  00000400  2**3
                  CONTENTS, ALLOC, LOAD, READONLY, DATA
  6 .plt          000000d0  0000000000010510  0000000000010510  00000510  2**4
                  CONTENTS, ALLOC, LOAD, READONLY, CODE
  7 .text         00000aa4  00000000000105e0  00000000000105e0  000005e0  2**1
                  CONTENTS, ALLOC, LOAD, READONLY, CODE
  8 .rodata       00000490  0000000000011088  0000000000011088  00001088  2**3
                  CONTENTS, ALLOC, LOAD, READONLY, DATA
  9 .eh_frame     00000004  0000000000011518  0000000000011518  00001518  2**2
                  CONTENTS, ALLOC, LOAD, READONLY, DATA
 10 .init_array   00000008  0000000000012e40  0000000000012e40  00001e40  2**3
                  CONTENTS, ALLOC, LOAD, DATA
 11 .fini_array   00000008  0000000000012e48  0000000000012e48  00001e48  2**3
                  CONTENTS, ALLOC, LOAD, DATA
 12 .dynamic      000001b0  0000000000012e50  0000000000012e50  00001e50  2**3
                  CONTENTS, ALLOC, LOAD, DATA
 13 .got          00000070  0000000000013000  0000000000013000  00002000  2**3
                  CONTENTS, ALLOC, LOAD, DATA
 14 .sdata        00000008  0000000000013070  0000000000013070  00002070  2**3
                  CONTENTS, ALLOC, LOAD, DATA
 15 .bss          00000038  0000000000013078  0000000000013078  00002078  2**3
                  ALLOC
 16 .comment      00000011  0000000000000000  0000000000000000  00002078  2**0
                  CONTENTS, READONLY
SYMBOL TABLE:
00000000000101c8 l    d  .interp	0000000000000000 .interp
00000000000101e8 l    d  .hash	0000000000000000 .hash
0000000000010230 l    d  .gnu.hash	0000000000000000 .gnu.hash
0000000000010280 l    d  .dynsym	0000000000000000 .dynsym
00000000000103a0 l    d  .dynstr	0000000000000000 .dynstr
0000000000010400 l    d  .rela.plt	0000000000000000 .rela.plt
0000000000010510 l    d  .plt	0000000000000000 .plt
00000000000105e0 l    d  .text	0000000000000000 .text
0000000000011088 l    d  .rodata	0000000000000000 .rodata
0000000000011518 l    d  .eh_frame	0000000000000000 .eh_frame
0000000000012e40 l    d  .init_array	0000000000000000 .init_array
0000000000012e48 l    d  .fini_array	0000000000000000 .fini_array
0000000000012e50 l    d  .dynamic	0000000000000000 .dynamic
0000000000013000 l    d  .got	0000000000000000 .got
0000000000013070 l    d  .sdata	0000000000000000 .sdata
0000000000013078 l    d  .bss	0000000000000000 .bss
0000000000000000 l    d  .comment	0000000000000000 .comment
0000000000000000 l    df *ABS*	0000000000000000 crt1.c
0000000000000000 l    df *ABS*	0000000000000000 crtstuff.c
0000000000011518 l     O .eh_frame	0000000000000000 
0000000000010614 l     F .text	0000000000000000 deregister_tm_clones
0000000000010638 l     F .text	0000000000000000 register_tm_clones
0000000000010668 l     F .text	0000000000000000 __do_global_dtors_aux
0000000000013078 l     O .bss	0000000000000001 completed.4702
0000000000012e48 l     O .fini_array	0000000000000000 __do_global_dtors_aux_fini_array_entry
000000000001069e l     F .text	0000000000000000 frame_dummy
0000000000013080 l     O .bss	0000000000000030 object.4707
0000000000012e40 l     O .init_array	0000000000000000 __frame_dummy_init_array_entry
0000000000000000 l    df *ABS*	0000000000000000 malloc.c
0000000000000000 l    df *ABS*	0000000000000000 crtstuff.c
0000000000011518 l     O .eh_frame	0000000000000000 __FRAME_END__
0000000000000000 l    df *ABS*	0000000000000000 
0000000000012e50 l     O .dynamic	0000000000000000 _DYNAMIC
0000000000010510 l     O .plt	0000000000000000 _PROCEDURE_LINKAGE_TABLE_
0000000000013068 l     O .got	0000000000000000 _GLOBAL_OFFSET_TABLE_
0000000000010530       F *UND*	0000000000000000 putchar
0000000000010f50 g     F .text	0000000000000134 test_calloc_struct
0000000000010540       F *UND*	0000000000000000 printf
0000000000013800 g       *ABS*	0000000000000000 .hidden __global_pointer$
0000000000013070 g       .sdata	0000000000000000 __SDATA_BEGIN__
0000000000013000 g     O .got	0000000000000000 .hidden __TMC_END__
0000000000010550       F *UND*	0000000000000000 puts
0000000000010560       F *UND*	0000000000000000 malloc
0000000000013070 g     O .sdata	0000000000000000 .hidden __dso_handle
000000000001075a g     F .text	000000000000005a test_simple_malloc
000000000001088c g     F .text	000000000000011a test_struct_malloc
0000000000000000  w    F *UND*	0000000000000000 _init
0000000000010580       F *UND*	0000000000000000 calloc
00000000000107b4 g     F .text	00000000000000d8 test_array_malloc
00000000000105e0 g     F .text	0000000000000000 _start
0000000000010d3c g     F .text	00000000000000f4 test_calloc
00000000000105f8 g     F .text	000000000000001c _start_c
0000000000010590       F *UND*	0000000000000000 realloc
0000000000010bae g     F .text	000000000000018e test_realloc
00000000000130b0 g       .bss	0000000000000000 __BSS_END__
0000000000013078 g       .bss	0000000000000000 __bss_start
00000000000106c6 g     F .text	0000000000000094 main
0000000000000000  w    F *UND*	0000000000000000 _fini
0000000000013000 g       .got	0000000000000000 __DATA_BEGIN__
0000000000013078 g       .sdata	0000000000000000 _edata
00000000000109a6 g     F .text	0000000000000208 test_2d_array_malloc
00000000000130b0 g       .bss	0000000000000000 _end
0000000000010e30 g     F .text	0000000000000120 test_realloc_string
00000000000105b0       F *UND*	0000000000000000 __libc_start_main
00000000000105c0       F *UND*	0000000000000000 strlen
00000000000105d0       F *UND*	0000000000000000 free



Disassembly of section .plt:

0000000000010510 <_PROCEDURE_LINKAGE_TABLE_>:
   10510:	97 33 00 00 33 03 c3 41 03 be 03 af 13 03 43 fd     .3..3..A......C.
   10520:	93 82 03 af 13 53 13 00 83 b2 82 00 67 00 0e 00     .....S......g...

0000000000010530 <putchar@plt>:
   10530:	00003e17          	auipc	t3,0x3
   10534:	ae0e3e03          	ld	t3,-1312(t3) # 13010 <putchar>
   10538:	000e0367          	jalr	t1,t3
   1053c:	00000013          	nop

0000000000010540 <printf@plt>:
   10540:	00003e17          	auipc	t3,0x3
   10544:	ad8e3e03          	ld	t3,-1320(t3) # 13018 <printf>
   10548:	000e0367          	jalr	t1,t3
   1054c:	00000013          	nop

0000000000010550 <puts@plt>:
   10550:	00003e17          	auipc	t3,0x3
   10554:	ad0e3e03          	ld	t3,-1328(t3) # 13020 <puts>
   10558:	000e0367          	jalr	t1,t3
   1055c:	00000013          	nop

0000000000010560 <malloc@plt>:
   10560:	00003e17          	auipc	t3,0x3
   10564:	ac8e3e03          	ld	t3,-1336(t3) # 13028 <malloc>
   10568:	000e0367          	jalr	t1,t3
   1056c:	00000013          	nop

0000000000010570 <_init@plt>:
   10570:	00003e17          	auipc	t3,0x3
   10574:	ac0e3e03          	ld	t3,-1344(t3) # 13030 <_init>
   10578:	000e0367          	jalr	t1,t3
   1057c:	00000013          	nop

0000000000010580 <calloc@plt>:
   10580:	00003e17          	auipc	t3,0x3
   10584:	ab8e3e03          	ld	t3,-1352(t3) # 13038 <calloc>
   10588:	000e0367          	jalr	t1,t3
   1058c:	00000013          	nop

0000000000010590 <realloc@plt>:
   10590:	00003e17          	auipc	t3,0x3
   10594:	ab0e3e03          	ld	t3,-1360(t3) # 13040 <realloc>
   10598:	000e0367          	jalr	t1,t3
   1059c:	00000013          	nop

00000000000105a0 <_fini@plt>:
   105a0:	00003e17          	auipc	t3,0x3
   105a4:	aa8e3e03          	ld	t3,-1368(t3) # 13048 <_fini>
   105a8:	000e0367          	jalr	t1,t3
   105ac:	00000013          	nop

00000000000105b0 <__libc_start_main@plt>:
   105b0:	00003e17          	auipc	t3,0x3
   105b4:	aa0e3e03          	ld	t3,-1376(t3) # 13050 <__libc_start_main>
   105b8:	000e0367          	jalr	t1,t3
   105bc:	00000013          	nop

00000000000105c0 <strlen@plt>:
   105c0:	00003e17          	auipc	t3,0x3
   105c4:	a98e3e03          	ld	t3,-1384(t3) # 13058 <strlen>
   105c8:	000e0367          	jalr	t1,t3
   105cc:	00000013          	nop

00000000000105d0 <free@plt>:
   105d0:	00003e17          	auipc	t3,0x3
   105d4:	a90e3e03          	ld	t3,-1392(t3) # 13060 <free>
   105d8:	000e0367          	jalr	t1,t3
   105dc:	00000013          	nop

Disassembly of section .text:

00000000000105e0 <_start>:
   105e0:	00003197          	auipc	gp,0x3
   105e4:	22018193          	addi	gp,gp,544 # 13800 <__global_pointer$>
   105e8:	850a                	mv	a0,sp
   105ea:	00003597          	auipc	a1,0x3
   105ee:	86658593          	addi	a1,a1,-1946 # 12e50 <_DYNAMIC>
   105f2:	ff017113          	andi	sp,sp,-16
   105f6:	a009                	j	105f8 <_start_c>

00000000000105f8 <_start_c>:
   105f8:	410c                	lw	a1,0(a0)
   105fa:	6741                	lui	a4,0x10
   105fc:	66c1                	lui	a3,0x10
   105fe:	00850613          	addi	a2,a0,8
   10602:	6541                	lui	a0,0x10
   10604:	4781                	li	a5,0
   10606:	5a070713          	addi	a4,a4,1440 # 105a0 <_fini@plt>
   1060a:	57068693          	addi	a3,a3,1392 # 10570 <_init@plt>
   1060e:	6c650513          	addi	a0,a0,1734 # 106c6 <main>
   10612:	bf79                	j	105b0 <__libc_start_main@plt>

0000000000010614 <deregister_tm_clones>:
   10614:	654d                	lui	a0,0x13
   10616:	674d                	lui	a4,0x13
   10618:	00050793          	mv	a5,a0
   1061c:	00070713          	mv	a4,a4
   10620:	00f70b63          	beq	a4,a5,10636 <deregister_tm_clones+0x22>
   10624:	00000337          	lui	t1,0x0
   10628:	00030313          	mv	t1,t1
   1062c:	00030563          	beqz	t1,10636 <deregister_tm_clones+0x22>
   10630:	00050513          	mv	a0,a0
   10634:	8302                	jr	t1
   10636:	8082                	ret

0000000000010638 <register_tm_clones>:
   10638:	654d                	lui	a0,0x13
   1063a:	00050593          	mv	a1,a0
   1063e:	67cd                	lui	a5,0x13
   10640:	00078793          	mv	a5,a5
   10644:	8f8d                	sub	a5,a5,a1
   10646:	4037d713          	srai	a4,a5,0x3
   1064a:	03f7d593          	srli	a1,a5,0x3f
   1064e:	95ba                	add	a1,a1,a4
   10650:	8585                	srai	a1,a1,0x1
   10652:	c991                	beqz	a1,10666 <register_tm_clones+0x2e>
   10654:	00000337          	lui	t1,0x0
   10658:	00030313          	mv	t1,t1
   1065c:	00030563          	beqz	t1,10666 <register_tm_clones+0x2e>
   10660:	00050513          	mv	a0,a0
   10664:	8302                	jr	t1
   10666:	8082                	ret

0000000000010668 <__do_global_dtors_aux>:
   10668:	1141                	addi	sp,sp,-16
   1066a:	e022                	sd	s0,0(sp)
   1066c:	8781c783          	lbu	a5,-1928(gp) # 13078 <_edata>
   10670:	e406                	sd	ra,8(sp)
   10672:	e395                	bnez	a5,10696 <__do_global_dtors_aux+0x2e>
   10674:	fa1ff0ef          	jal	ra,10614 <deregister_tm_clones>
   10678:	000007b7          	lui	a5,0x0
   1067c:	00078793          	mv	a5,a5
   10680:	cb81                	beqz	a5,10690 <__do_global_dtors_aux+0x28>
   10682:	6545                	lui	a0,0x11
   10684:	51850513          	addi	a0,a0,1304 # 11518 <__FRAME_END__>
   10688:	00000097          	auipc	ra,0x0
   1068c:	000000e7          	jalr	zero # 0 <_PROCEDURE_LINKAGE_TABLE_-0x10510>
   10690:	4785                	li	a5,1
   10692:	86f18c23          	sb	a5,-1928(gp) # 13078 <_edata>
   10696:	60a2                	ld	ra,8(sp)
   10698:	6402                	ld	s0,0(sp)
   1069a:	0141                	addi	sp,sp,16
   1069c:	8082                	ret

000000000001069e <frame_dummy>:
   1069e:	000007b7          	lui	a5,0x0
   106a2:	00078793          	mv	a5,a5
   106a6:	cf99                	beqz	a5,106c4 <frame_dummy+0x26>
   106a8:	6545                	lui	a0,0x11
   106aa:	1141                	addi	sp,sp,-16
   106ac:	88018593          	addi	a1,gp,-1920 # 13080 <object.4707>
   106b0:	51850513          	addi	a0,a0,1304 # 11518 <__FRAME_END__>
   106b4:	e406                	sd	ra,8(sp)
   106b6:	00000097          	auipc	ra,0x0
   106ba:	000000e7          	jalr	zero # 0 <_PROCEDURE_LINKAGE_TABLE_-0x10510>
   106be:	60a2                	ld	ra,8(sp)
   106c0:	0141                	addi	sp,sp,16
   106c2:	bf9d                	j	10638 <register_tm_clones>
   106c4:	bf95                	j	10638 <register_tm_clones>

00000000000106c6 <main>:
   106c6:	1141                	addi	sp,sp,-16
   106c8:	e406                	sd	ra,8(sp)
   106ca:	e022                	sd	s0,0(sp)
   106cc:	0800                	addi	s0,sp,16
   106ce:	00001517          	auipc	a0,0x1
   106d2:	9ba50513          	addi	a0,a0,-1606 # 11088 <test_calloc_struct+0x138>
   106d6:	e7bff0ef          	jal	ra,10550 <puts@plt>
   106da:	080000ef          	jal	ra,1075a <test_simple_malloc>
   106de:	00001517          	auipc	a0,0x1
   106e2:	9d250513          	addi	a0,a0,-1582 # 110b0 <test_calloc_struct+0x160>
   106e6:	e6bff0ef          	jal	ra,10550 <puts@plt>
   106ea:	0ca000ef          	jal	ra,107b4 <test_array_malloc>
   106ee:	00001517          	auipc	a0,0x1
   106f2:	9f250513          	addi	a0,a0,-1550 # 110e0 <test_calloc_struct+0x190>
   106f6:	e5bff0ef          	jal	ra,10550 <puts@plt>
   106fa:	192000ef          	jal	ra,1088c <test_struct_malloc>
   106fe:	00001517          	auipc	a0,0x1
   10702:	a1250513          	addi	a0,a0,-1518 # 11110 <test_calloc_struct+0x1c0>
   10706:	e4bff0ef          	jal	ra,10550 <puts@plt>
   1070a:	29c000ef          	jal	ra,109a6 <test_2d_array_malloc>
   1070e:	00001517          	auipc	a0,0x1
   10712:	a3250513          	addi	a0,a0,-1486 # 11140 <test_calloc_struct+0x1f0>
   10716:	e3bff0ef          	jal	ra,10550 <puts@plt>
   1071a:	494000ef          	jal	ra,10bae <test_realloc>
   1071e:	00001517          	auipc	a0,0x1
   10722:	a3a50513          	addi	a0,a0,-1478 # 11158 <test_calloc_struct+0x208>
   10726:	e2bff0ef          	jal	ra,10550 <puts@plt>
   1072a:	612000ef          	jal	ra,10d3c <test_calloc>
   1072e:	00001517          	auipc	a0,0x1
   10732:	a4250513          	addi	a0,a0,-1470 # 11170 <test_calloc_struct+0x220>
   10736:	e1bff0ef          	jal	ra,10550 <puts@plt>
   1073a:	6f6000ef          	jal	ra,10e30 <test_realloc_string>
   1073e:	00001517          	auipc	a0,0x1
   10742:	a5a50513          	addi	a0,a0,-1446 # 11198 <test_calloc_struct+0x248>
   10746:	e0bff0ef          	jal	ra,10550 <puts@plt>
   1074a:	007000ef          	jal	ra,10f50 <test_calloc_struct>
   1074e:	4781                	li	a5,0
   10750:	853e                	mv	a0,a5
   10752:	60a2                	ld	ra,8(sp)
   10754:	6402                	ld	s0,0(sp)
   10756:	0141                	addi	sp,sp,16
   10758:	8082                	ret

000000000001075a <test_simple_malloc>:
   1075a:	1101                	addi	sp,sp,-32
   1075c:	ec06                	sd	ra,24(sp)
   1075e:	e822                	sd	s0,16(sp)
   10760:	1000                	addi	s0,sp,32
   10762:	4511                	li	a0,4
   10764:	dfdff0ef          	jal	ra,10560 <malloc@plt>
   10768:	87aa                	mv	a5,a0
   1076a:	fef43423          	sd	a5,-24(s0)
   1076e:	fe843783          	ld	a5,-24(s0)
   10772:	eb81                	bnez	a5,10782 <test_simple_malloc+0x28>
   10774:	00001517          	auipc	a0,0x1
   10778:	a5450513          	addi	a0,a0,-1452 # 111c8 <test_calloc_struct+0x278>
   1077c:	dd5ff0ef          	jal	ra,10550 <puts@plt>
   10780:	a035                	j	107ac <test_simple_malloc+0x52>
   10782:	fe843783          	ld	a5,-24(s0)
   10786:	02a00713          	li	a4,42
   1078a:	c398                	sw	a4,0(a5)
   1078c:	fe843783          	ld	a5,-24(s0)
   10790:	439c                	lw	a5,0(a5)
   10792:	85be                	mv	a1,a5
   10794:	00001517          	auipc	a0,0x1
   10798:	a5450513          	addi	a0,a0,-1452 # 111e8 <test_calloc_struct+0x298>
   1079c:	da5ff0ef          	jal	ra,10540 <printf@plt>
   107a0:	fe843503          	ld	a0,-24(s0)
   107a4:	e2dff0ef          	jal	ra,105d0 <free@plt>
   107a8:	fe043423          	sd	zero,-24(s0)
   107ac:	60e2                	ld	ra,24(sp)
   107ae:	6442                	ld	s0,16(sp)
   107b0:	6105                	addi	sp,sp,32
   107b2:	8082                	ret

00000000000107b4 <test_array_malloc>:
   107b4:	7179                	addi	sp,sp,-48
   107b6:	f406                	sd	ra,40(sp)
   107b8:	f022                	sd	s0,32(sp)
   107ba:	1800                	addi	s0,sp,48
   107bc:	4795                	li	a5,5
   107be:	fef42223          	sw	a5,-28(s0)
   107c2:	fe442783          	lw	a5,-28(s0)
   107c6:	078a                	slli	a5,a5,0x2
   107c8:	853e                	mv	a0,a5
   107ca:	d97ff0ef          	jal	ra,10560 <malloc@plt>
   107ce:	87aa                	mv	a5,a0
   107d0:	fcf43c23          	sd	a5,-40(s0)
   107d4:	fd843783          	ld	a5,-40(s0)
   107d8:	eb81                	bnez	a5,107e8 <test_array_malloc+0x34>
   107da:	00001517          	auipc	a0,0x1
   107de:	a2e50513          	addi	a0,a0,-1490 # 11208 <test_calloc_struct+0x2b8>
   107e2:	d6fff0ef          	jal	ra,10550 <puts@plt>
   107e6:	a879                	j	10884 <test_array_malloc+0xd0>
   107e8:	fe042623          	sw	zero,-20(s0)
   107ec:	a03d                	j	1081a <test_array_malloc+0x66>
   107ee:	fec42783          	lw	a5,-20(s0)
   107f2:	078a                	slli	a5,a5,0x2
   107f4:	fd843703          	ld	a4,-40(s0)
   107f8:	00f706b3          	add	a3,a4,a5
   107fc:	fec42703          	lw	a4,-20(s0)
   10800:	87ba                	mv	a5,a4
   10802:	0027979b          	slliw	a5,a5,0x2
   10806:	9fb9                	addw	a5,a5,a4
   10808:	0017979b          	slliw	a5,a5,0x1
   1080c:	2781                	sext.w	a5,a5
   1080e:	c29c                	sw	a5,0(a3)
   10810:	fec42783          	lw	a5,-20(s0)
   10814:	2785                	addiw	a5,a5,1
   10816:	fef42623          	sw	a5,-20(s0)
   1081a:	fec42703          	lw	a4,-20(s0)
   1081e:	fe442783          	lw	a5,-28(s0)
   10822:	2701                	sext.w	a4,a4
   10824:	2781                	sext.w	a5,a5
   10826:	fcf744e3          	blt	a4,a5,107ee <test_array_malloc+0x3a>
   1082a:	00001517          	auipc	a0,0x1
   1082e:	9fe50513          	addi	a0,a0,-1538 # 11228 <test_calloc_struct+0x2d8>
   10832:	d0fff0ef          	jal	ra,10540 <printf@plt>
   10836:	fe042423          	sw	zero,-24(s0)
   1083a:	a025                	j	10862 <test_array_malloc+0xae>
   1083c:	fe842783          	lw	a5,-24(s0)
   10840:	078a                	slli	a5,a5,0x2
   10842:	fd843703          	ld	a4,-40(s0)
   10846:	97ba                	add	a5,a5,a4
   10848:	439c                	lw	a5,0(a5)
   1084a:	85be                	mv	a1,a5
   1084c:	00001517          	auipc	a0,0x1
   10850:	9f450513          	addi	a0,a0,-1548 # 11240 <test_calloc_struct+0x2f0>
   10854:	cedff0ef          	jal	ra,10540 <printf@plt>
   10858:	fe842783          	lw	a5,-24(s0)
   1085c:	2785                	addiw	a5,a5,1
   1085e:	fef42423          	sw	a5,-24(s0)
   10862:	fe842703          	lw	a4,-24(s0)
   10866:	fe442783          	lw	a5,-28(s0)
   1086a:	2701                	sext.w	a4,a4
   1086c:	2781                	sext.w	a5,a5
   1086e:	fcf747e3          	blt	a4,a5,1083c <test_array_malloc+0x88>
   10872:	4529                	li	a0,10
   10874:	cbdff0ef          	jal	ra,10530 <putchar@plt>
   10878:	fd843503          	ld	a0,-40(s0)
   1087c:	d55ff0ef          	jal	ra,105d0 <free@plt>
   10880:	fc043c23          	sd	zero,-40(s0)
   10884:	70a2                	ld	ra,40(sp)
   10886:	7402                	ld	s0,32(sp)
   10888:	6145                	addi	sp,sp,48
   1088a:	8082                	ret

000000000001088c <test_struct_malloc>:
   1088c:	1101                	addi	sp,sp,-32
   1088e:	ec06                	sd	ra,24(sp)
   10890:	e822                	sd	s0,16(sp)
   10892:	1000                	addi	s0,sp,32
   10894:	4561                	li	a0,24
   10896:	ccbff0ef          	jal	ra,10560 <malloc@plt>
   1089a:	87aa                	mv	a5,a0
   1089c:	fef43423          	sd	a5,-24(s0)
   108a0:	fe843783          	ld	a5,-24(s0)
   108a4:	eb81                	bnez	a5,108b4 <test_struct_malloc+0x28>
   108a6:	00001517          	auipc	a0,0x1
   108aa:	9a250513          	addi	a0,a0,-1630 # 11248 <test_calloc_struct+0x2f8>
   108ae:	ca3ff0ef          	jal	ra,10550 <puts@plt>
   108b2:	a0f5                	j	1099e <test_struct_malloc+0x112>
   108b4:	4551                	li	a0,20
   108b6:	cabff0ef          	jal	ra,10560 <malloc@plt>
   108ba:	87aa                	mv	a5,a0
   108bc:	873e                	mv	a4,a5
   108be:	fe843783          	ld	a5,-24(s0)
   108c2:	e798                	sd	a4,8(a5)
   108c4:	fe843783          	ld	a5,-24(s0)
   108c8:	679c                	ld	a5,8(a5)
   108ca:	ef81                	bnez	a5,108e2 <test_struct_malloc+0x56>
   108cc:	fe843503          	ld	a0,-24(s0)
   108d0:	d01ff0ef          	jal	ra,105d0 <free@plt>
   108d4:	00001517          	auipc	a0,0x1
   108d8:	99c50513          	addi	a0,a0,-1636 # 11270 <test_calloc_struct+0x320>
   108dc:	c75ff0ef          	jal	ra,10550 <puts@plt>
   108e0:	a87d                	j	1099e <test_struct_malloc+0x112>
   108e2:	fe843783          	ld	a5,-24(s0)
   108e6:	3e900713          	li	a4,1001
   108ea:	c398                	sw	a4,0(a5)
   108ec:	fe843783          	ld	a5,-24(s0)
   108f0:	679c                	ld	a5,8(a5)
   108f2:	00001717          	auipc	a4,0x1
   108f6:	99e70713          	addi	a4,a4,-1634 # 11290 <test_calloc_struct+0x340>
   108fa:	00074503          	lbu	a0,0(a4)
   108fe:	00174583          	lbu	a1,1(a4)
   10902:	00274603          	lbu	a2,2(a4)
   10906:	00374683          	lbu	a3,3(a4)
   1090a:	00474703          	lbu	a4,4(a4)
   1090e:	00a78023          	sb	a0,0(a5) # 0 <_PROCEDURE_LINKAGE_TABLE_-0x10510>
   10912:	00b780a3          	sb	a1,1(a5)
   10916:	00c78123          	sb	a2,2(a5)
   1091a:	00d781a3          	sb	a3,3(a5)
   1091e:	00e78223          	sb	a4,4(a5)
   10922:	fe843783          	ld	a5,-24(s0)
   10926:	00001717          	auipc	a4,0x1
   1092a:	bde70713          	addi	a4,a4,-1058 # 11504 <test_calloc_struct+0x5b4>
   1092e:	00072787          	flw	fa5,0(a4)
   10932:	00f7a827          	fsw	fa5,16(a5)
   10936:	00001517          	auipc	a0,0x1
   1093a:	96250513          	addi	a0,a0,-1694 # 11298 <test_calloc_struct+0x348>
   1093e:	c13ff0ef          	jal	ra,10550 <puts@plt>
   10942:	fe843783          	ld	a5,-24(s0)
   10946:	439c                	lw	a5,0(a5)
   10948:	85be                	mv	a1,a5
   1094a:	00001517          	auipc	a0,0x1
   1094e:	96650513          	addi	a0,a0,-1690 # 112b0 <test_calloc_struct+0x360>
   10952:	befff0ef          	jal	ra,10540 <printf@plt>
   10956:	fe843783          	ld	a5,-24(s0)
   1095a:	679c                	ld	a5,8(a5)
   1095c:	85be                	mv	a1,a5
   1095e:	00001517          	auipc	a0,0x1
   10962:	95a50513          	addi	a0,a0,-1702 # 112b8 <test_calloc_struct+0x368>
   10966:	bdbff0ef          	jal	ra,10540 <printf@plt>
   1096a:	fe843783          	ld	a5,-24(s0)
   1096e:	0107a787          	flw	fa5,16(a5)
   10972:	420787d3          	fcvt.d.s	fa5,fa5
   10976:	e20785d3          	fmv.x.d	a1,fa5
   1097a:	00001517          	auipc	a0,0x1
   1097e:	94e50513          	addi	a0,a0,-1714 # 112c8 <test_calloc_struct+0x378>
   10982:	bbfff0ef          	jal	ra,10540 <printf@plt>
   10986:	fe843783          	ld	a5,-24(s0)
   1098a:	679c                	ld	a5,8(a5)
   1098c:	853e                	mv	a0,a5
   1098e:	c43ff0ef          	jal	ra,105d0 <free@plt>
   10992:	fe843503          	ld	a0,-24(s0)
   10996:	c3bff0ef          	jal	ra,105d0 <free@plt>
   1099a:	fe043423          	sd	zero,-24(s0)
   1099e:	60e2                	ld	ra,24(sp)
   109a0:	6442                	ld	s0,16(sp)
   109a2:	6105                	addi	sp,sp,32
   109a4:	8082                	ret

00000000000109a6 <test_2d_array_malloc>:
   109a6:	715d                	addi	sp,sp,-80
   109a8:	e486                	sd	ra,72(sp)
   109aa:	e0a2                	sd	s0,64(sp)
   109ac:	fc26                	sd	s1,56(sp)
   109ae:	0880                	addi	s0,sp,80
   109b0:	478d                	li	a5,3
   109b2:	fcf42023          	sw	a5,-64(s0)
   109b6:	4791                	li	a5,4
   109b8:	faf42e23          	sw	a5,-68(s0)
   109bc:	fc042783          	lw	a5,-64(s0)
   109c0:	078e                	slli	a5,a5,0x3
   109c2:	853e                	mv	a0,a5
   109c4:	b9dff0ef          	jal	ra,10560 <malloc@plt>
   109c8:	87aa                	mv	a5,a0
   109ca:	faf43823          	sd	a5,-80(s0)
   109ce:	fb043783          	ld	a5,-80(s0)
   109d2:	eb81                	bnez	a5,109e2 <test_2d_array_malloc+0x3c>
   109d4:	00001517          	auipc	a0,0x1
   109d8:	90450513          	addi	a0,a0,-1788 # 112d8 <test_calloc_struct+0x388>
   109dc:	b75ff0ef          	jal	ra,10550 <puts@plt>
   109e0:	a2d1                	j	10ba4 <test_2d_array_malloc+0x1fe>
   109e2:	fc042e23          	sw	zero,-36(s0)
   109e6:	a059                	j	10a6c <test_2d_array_malloc+0xc6>
   109e8:	fbc42783          	lw	a5,-68(s0)
   109ec:	00279693          	slli	a3,a5,0x2
   109f0:	fdc42783          	lw	a5,-36(s0)
   109f4:	078e                	slli	a5,a5,0x3
   109f6:	fb043703          	ld	a4,-80(s0)
   109fa:	00f704b3          	add	s1,a4,a5
   109fe:	8536                	mv	a0,a3
   10a00:	b61ff0ef          	jal	ra,10560 <malloc@plt>
   10a04:	87aa                	mv	a5,a0
   10a06:	e09c                	sd	a5,0(s1)
   10a08:	fdc42783          	lw	a5,-36(s0)
   10a0c:	078e                	slli	a5,a5,0x3
   10a0e:	fb043703          	ld	a4,-80(s0)
   10a12:	97ba                	add	a5,a5,a4
   10a14:	639c                	ld	a5,0(a5)
   10a16:	e7b1                	bnez	a5,10a62 <test_2d_array_malloc+0xbc>
   10a18:	fc042c23          	sw	zero,-40(s0)
   10a1c:	a005                	j	10a3c <test_2d_array_malloc+0x96>
   10a1e:	fd842783          	lw	a5,-40(s0)
   10a22:	078e                	slli	a5,a5,0x3
   10a24:	fb043703          	ld	a4,-80(s0)
   10a28:	97ba                	add	a5,a5,a4
   10a2a:	639c                	ld	a5,0(a5)
   10a2c:	853e                	mv	a0,a5
   10a2e:	ba3ff0ef          	jal	ra,105d0 <free@plt>
   10a32:	fd842783          	lw	a5,-40(s0)
   10a36:	2785                	addiw	a5,a5,1
   10a38:	fcf42c23          	sw	a5,-40(s0)
   10a3c:	fd842703          	lw	a4,-40(s0)
   10a40:	fdc42783          	lw	a5,-36(s0)
   10a44:	2701                	sext.w	a4,a4
   10a46:	2781                	sext.w	a5,a5
   10a48:	fcf74be3          	blt	a4,a5,10a1e <test_2d_array_malloc+0x78>
   10a4c:	fb043503          	ld	a0,-80(s0)
   10a50:	b81ff0ef          	jal	ra,105d0 <free@plt>
   10a54:	00001517          	auipc	a0,0x1
   10a58:	8a450513          	addi	a0,a0,-1884 # 112f8 <test_calloc_struct+0x3a8>
   10a5c:	af5ff0ef          	jal	ra,10550 <puts@plt>
   10a60:	a291                	j	10ba4 <test_2d_array_malloc+0x1fe>
   10a62:	fdc42783          	lw	a5,-36(s0)
   10a66:	2785                	addiw	a5,a5,1
   10a68:	fcf42e23          	sw	a5,-36(s0)
   10a6c:	fdc42703          	lw	a4,-36(s0)
   10a70:	fc042783          	lw	a5,-64(s0)
   10a74:	2701                	sext.w	a4,a4
   10a76:	2781                	sext.w	a5,a5
   10a78:	f6f748e3          	blt	a4,a5,109e8 <test_2d_array_malloc+0x42>
   10a7c:	fc042a23          	sw	zero,-44(s0)
   10a80:	a8b1                	j	10adc <test_2d_array_malloc+0x136>
   10a82:	fc042823          	sw	zero,-48(s0)
   10a86:	a835                	j	10ac2 <test_2d_array_malloc+0x11c>
   10a88:	fd442703          	lw	a4,-44(s0)
   10a8c:	fbc42783          	lw	a5,-68(s0)
   10a90:	02f707bb          	mulw	a5,a4,a5
   10a94:	0007871b          	sext.w	a4,a5
   10a98:	fd442783          	lw	a5,-44(s0)
   10a9c:	078e                	slli	a5,a5,0x3
   10a9e:	fb043683          	ld	a3,-80(s0)
   10aa2:	97b6                	add	a5,a5,a3
   10aa4:	6394                	ld	a3,0(a5)
   10aa6:	fd042783          	lw	a5,-48(s0)
   10aaa:	078a                	slli	a5,a5,0x2
   10aac:	97b6                	add	a5,a5,a3
   10aae:	fd042683          	lw	a3,-48(s0)
   10ab2:	9f35                	addw	a4,a4,a3
   10ab4:	2701                	sext.w	a4,a4
   10ab6:	c398                	sw	a4,0(a5)
   10ab8:	fd042783          	lw	a5,-48(s0)
   10abc:	2785                	addiw	a5,a5,1
   10abe:	fcf42823          	sw	a5,-48(s0)
   10ac2:	fd042703          	lw	a4,-48(s0)
   10ac6:	fbc42783          	lw	a5,-68(s0)
   10aca:	2701                	sext.w	a4,a4
   10acc:	2781                	sext.w	a5,a5
   10ace:	faf74de3          	blt	a4,a5,10a88 <test_2d_array_malloc+0xe2>
   10ad2:	fd442783          	lw	a5,-44(s0)
   10ad6:	2785                	addiw	a5,a5,1
   10ad8:	fcf42a23          	sw	a5,-44(s0)
   10adc:	fd442703          	lw	a4,-44(s0)
   10ae0:	fc042783          	lw	a5,-64(s0)
   10ae4:	2701                	sext.w	a4,a4
   10ae6:	2781                	sext.w	a5,a5
   10ae8:	f8f74de3          	blt	a4,a5,10a82 <test_2d_array_malloc+0xdc>
   10aec:	00001517          	auipc	a0,0x1
   10af0:	83450513          	addi	a0,a0,-1996 # 11320 <test_calloc_struct+0x3d0>
   10af4:	a5dff0ef          	jal	ra,10550 <puts@plt>
   10af8:	fc042623          	sw	zero,-52(s0)
   10afc:	a8a1                	j	10b54 <test_2d_array_malloc+0x1ae>
   10afe:	fc042423          	sw	zero,-56(s0)
   10b02:	a80d                	j	10b34 <test_2d_array_malloc+0x18e>
   10b04:	fcc42783          	lw	a5,-52(s0)
   10b08:	078e                	slli	a5,a5,0x3
   10b0a:	fb043703          	ld	a4,-80(s0)
   10b0e:	97ba                	add	a5,a5,a4
   10b10:	6398                	ld	a4,0(a5)
   10b12:	fc842783          	lw	a5,-56(s0)
   10b16:	078a                	slli	a5,a5,0x2
   10b18:	97ba                	add	a5,a5,a4
   10b1a:	439c                	lw	a5,0(a5)
   10b1c:	85be                	mv	a1,a5
   10b1e:	00001517          	auipc	a0,0x1
   10b22:	81a50513          	addi	a0,a0,-2022 # 11338 <test_calloc_struct+0x3e8>
   10b26:	a1bff0ef          	jal	ra,10540 <printf@plt>
   10b2a:	fc842783          	lw	a5,-56(s0)
   10b2e:	2785                	addiw	a5,a5,1
   10b30:	fcf42423          	sw	a5,-56(s0)
   10b34:	fc842703          	lw	a4,-56(s0)
   10b38:	fbc42783          	lw	a5,-68(s0)
   10b3c:	2701                	sext.w	a4,a4
   10b3e:	2781                	sext.w	a5,a5
   10b40:	fcf742e3          	blt	a4,a5,10b04 <test_2d_array_malloc+0x15e>
   10b44:	4529                	li	a0,10
   10b46:	9ebff0ef          	jal	ra,10530 <putchar@plt>
   10b4a:	fcc42783          	lw	a5,-52(s0)
   10b4e:	2785                	addiw	a5,a5,1
   10b50:	fcf42623          	sw	a5,-52(s0)
   10b54:	fcc42703          	lw	a4,-52(s0)
   10b58:	fc042783          	lw	a5,-64(s0)
   10b5c:	2701                	sext.w	a4,a4
   10b5e:	2781                	sext.w	a5,a5
   10b60:	f8f74fe3          	blt	a4,a5,10afe <test_2d_array_malloc+0x158>
   10b64:	fc042223          	sw	zero,-60(s0)
   10b68:	a005                	j	10b88 <test_2d_array_malloc+0x1e2>
   10b6a:	fc442783          	lw	a5,-60(s0)
   10b6e:	078e                	slli	a5,a5,0x3
   10b70:	fb043703          	ld	a4,-80(s0)
   10b74:	97ba                	add	a5,a5,a4
   10b76:	639c                	ld	a5,0(a5)
   10b78:	853e                	mv	a0,a5
   10b7a:	a57ff0ef          	jal	ra,105d0 <free@plt>
   10b7e:	fc442783          	lw	a5,-60(s0)
   10b82:	2785                	addiw	a5,a5,1
   10b84:	fcf42223          	sw	a5,-60(s0)
   10b88:	fc442703          	lw	a4,-60(s0)
   10b8c:	fc042783          	lw	a5,-64(s0)
   10b90:	2701                	sext.w	a4,a4
   10b92:	2781                	sext.w	a5,a5
   10b94:	fcf74be3          	blt	a4,a5,10b6a <test_2d_array_malloc+0x1c4>
   10b98:	fb043503          	ld	a0,-80(s0)
   10b9c:	a35ff0ef          	jal	ra,105d0 <free@plt>
   10ba0:	fa043823          	sd	zero,-80(s0)
   10ba4:	60a6                	ld	ra,72(sp)
   10ba6:	6406                	ld	s0,64(sp)
   10ba8:	74e2                	ld	s1,56(sp)
   10baa:	6161                	addi	sp,sp,80
   10bac:	8082                	ret

0000000000010bae <test_realloc>:
   10bae:	7139                	addi	sp,sp,-64
   10bb0:	fc06                	sd	ra,56(sp)
   10bb2:	f822                	sd	s0,48(sp)
   10bb4:	0080                	addi	s0,sp,64
   10bb6:	478d                	li	a5,3
   10bb8:	fcf42e23          	sw	a5,-36(s0)
   10bbc:	4795                	li	a5,5
   10bbe:	fcf42c23          	sw	a5,-40(s0)
   10bc2:	fdc42783          	lw	a5,-36(s0)
   10bc6:	078a                	slli	a5,a5,0x2
   10bc8:	853e                	mv	a0,a5
   10bca:	997ff0ef          	jal	ra,10560 <malloc@plt>
   10bce:	87aa                	mv	a5,a0
   10bd0:	fcf43823          	sd	a5,-48(s0)
   10bd4:	fd043783          	ld	a5,-48(s0)
   10bd8:	eb81                	bnez	a5,10be8 <test_realloc+0x3a>
   10bda:	00000517          	auipc	a0,0x0
   10bde:	76650513          	addi	a0,a0,1894 # 11340 <test_calloc_struct+0x3f0>
   10be2:	96fff0ef          	jal	ra,10550 <puts@plt>
   10be6:	a2b9                	j	10d34 <test_realloc+0x186>
   10be8:	fe042623          	sw	zero,-20(s0)
   10bec:	a00d                	j	10c0e <test_realloc+0x60>
   10bee:	fec42783          	lw	a5,-20(s0)
   10bf2:	078a                	slli	a5,a5,0x2
   10bf4:	fd043703          	ld	a4,-48(s0)
   10bf8:	97ba                	add	a5,a5,a4
   10bfa:	fec42703          	lw	a4,-20(s0)
   10bfe:	2705                	addiw	a4,a4,1
   10c00:	2701                	sext.w	a4,a4
   10c02:	c398                	sw	a4,0(a5)
   10c04:	fec42783          	lw	a5,-20(s0)
   10c08:	2785                	addiw	a5,a5,1
   10c0a:	fef42623          	sw	a5,-20(s0)
   10c0e:	fec42703          	lw	a4,-20(s0)
   10c12:	fdc42783          	lw	a5,-36(s0)
   10c16:	2701                	sext.w	a4,a4
   10c18:	2781                	sext.w	a5,a5
   10c1a:	fcf74ae3          	blt	a4,a5,10bee <test_realloc+0x40>
   10c1e:	00000517          	auipc	a0,0x0
   10c22:	74250513          	addi	a0,a0,1858 # 11360 <test_calloc_struct+0x410>
   10c26:	91bff0ef          	jal	ra,10540 <printf@plt>
   10c2a:	fe042423          	sw	zero,-24(s0)
   10c2e:	a025                	j	10c56 <test_realloc+0xa8>
   10c30:	fe842783          	lw	a5,-24(s0)
   10c34:	078a                	slli	a5,a5,0x2
   10c36:	fd043703          	ld	a4,-48(s0)
   10c3a:	97ba                	add	a5,a5,a4
   10c3c:	439c                	lw	a5,0(a5)
   10c3e:	85be                	mv	a1,a5
   10c40:	00000517          	auipc	a0,0x0
   10c44:	60050513          	addi	a0,a0,1536 # 11240 <test_calloc_struct+0x2f0>
   10c48:	8f9ff0ef          	jal	ra,10540 <printf@plt>
   10c4c:	fe842783          	lw	a5,-24(s0)
   10c50:	2785                	addiw	a5,a5,1
   10c52:	fef42423          	sw	a5,-24(s0)
   10c56:	fe842703          	lw	a4,-24(s0)
   10c5a:	fdc42783          	lw	a5,-36(s0)
   10c5e:	2701                	sext.w	a4,a4
   10c60:	2781                	sext.w	a5,a5
   10c62:	fcf747e3          	blt	a4,a5,10c30 <test_realloc+0x82>
   10c66:	4529                	li	a0,10
   10c68:	8c9ff0ef          	jal	ra,10530 <putchar@plt>
   10c6c:	fd842783          	lw	a5,-40(s0)
   10c70:	078a                	slli	a5,a5,0x2
   10c72:	85be                	mv	a1,a5
   10c74:	fd043503          	ld	a0,-48(s0)
   10c78:	919ff0ef          	jal	ra,10590 <realloc@plt>
   10c7c:	fca43423          	sd	a0,-56(s0)
   10c80:	fc843783          	ld	a5,-56(s0)
   10c84:	ef81                	bnez	a5,10c9c <test_realloc+0xee>
   10c86:	00000517          	auipc	a0,0x0
   10c8a:	6ea50513          	addi	a0,a0,1770 # 11370 <test_calloc_struct+0x420>
   10c8e:	8c3ff0ef          	jal	ra,10550 <puts@plt>
   10c92:	fd043503          	ld	a0,-48(s0)
   10c96:	93bff0ef          	jal	ra,105d0 <free@plt>
   10c9a:	a869                	j	10d34 <test_realloc+0x186>
   10c9c:	fc843783          	ld	a5,-56(s0)
   10ca0:	fcf43823          	sd	a5,-48(s0)
   10ca4:	fdc42783          	lw	a5,-36(s0)
   10ca8:	fef42223          	sw	a5,-28(s0)
   10cac:	a00d                	j	10cce <test_realloc+0x120>
   10cae:	fe442783          	lw	a5,-28(s0)
   10cb2:	078a                	slli	a5,a5,0x2
   10cb4:	fd043703          	ld	a4,-48(s0)
   10cb8:	97ba                	add	a5,a5,a4
   10cba:	fe442703          	lw	a4,-28(s0)
   10cbe:	2705                	addiw	a4,a4,1
   10cc0:	2701                	sext.w	a4,a4
   10cc2:	c398                	sw	a4,0(a5)
   10cc4:	fe442783          	lw	a5,-28(s0)
   10cc8:	2785                	addiw	a5,a5,1
   10cca:	fef42223          	sw	a5,-28(s0)
   10cce:	fe442703          	lw	a4,-28(s0)
   10cd2:	fd842783          	lw	a5,-40(s0)
   10cd6:	2701                	sext.w	a4,a4
   10cd8:	2781                	sext.w	a5,a5
   10cda:	fcf74ae3          	blt	a4,a5,10cae <test_realloc+0x100>
   10cde:	00000517          	auipc	a0,0x0
   10ce2:	6aa50513          	addi	a0,a0,1706 # 11388 <test_calloc_struct+0x438>
   10ce6:	85bff0ef          	jal	ra,10540 <printf@plt>
   10cea:	fe042023          	sw	zero,-32(s0)
   10cee:	a025                	j	10d16 <test_realloc+0x168>
   10cf0:	fe042783          	lw	a5,-32(s0)
   10cf4:	078a                	slli	a5,a5,0x2
   10cf6:	fd043703          	ld	a4,-48(s0)
   10cfa:	97ba                	add	a5,a5,a4
   10cfc:	439c                	lw	a5,0(a5)
   10cfe:	85be                	mv	a1,a5
   10d00:	00000517          	auipc	a0,0x0
   10d04:	54050513          	addi	a0,a0,1344 # 11240 <test_calloc_struct+0x2f0>
   10d08:	839ff0ef          	jal	ra,10540 <printf@plt>
   10d0c:	fe042783          	lw	a5,-32(s0)
   10d10:	2785                	addiw	a5,a5,1
   10d12:	fef42023          	sw	a5,-32(s0)
   10d16:	fe042703          	lw	a4,-32(s0)
   10d1a:	fd842783          	lw	a5,-40(s0)
   10d1e:	2701                	sext.w	a4,a4
   10d20:	2781                	sext.w	a5,a5
   10d22:	fcf747e3          	blt	a4,a5,10cf0 <test_realloc+0x142>
   10d26:	4529                	li	a0,10
   10d28:	809ff0ef          	jal	ra,10530 <putchar@plt>
   10d2c:	fd043503          	ld	a0,-48(s0)
   10d30:	8a1ff0ef          	jal	ra,105d0 <free@plt>
   10d34:	70e2                	ld	ra,56(sp)
   10d36:	7442                	ld	s0,48(sp)
   10d38:	6121                	addi	sp,sp,64
   10d3a:	8082                	ret

0000000000010d3c <test_calloc>:
   10d3c:	7179                	addi	sp,sp,-48
   10d3e:	f406                	sd	ra,40(sp)
   10d40:	f022                	sd	s0,32(sp)
   10d42:	1800                	addi	s0,sp,48
   10d44:	4795                	li	a5,5
   10d46:	fef42223          	sw	a5,-28(s0)
   10d4a:	fe442783          	lw	a5,-28(s0)
   10d4e:	4591                	li	a1,4
   10d50:	853e                	mv	a0,a5
   10d52:	82fff0ef          	jal	ra,10580 <calloc@plt>
   10d56:	87aa                	mv	a5,a0
   10d58:	fcf43c23          	sd	a5,-40(s0)
   10d5c:	fd843783          	ld	a5,-40(s0)
   10d60:	eb81                	bnez	a5,10d70 <test_calloc+0x34>
   10d62:	00000517          	auipc	a0,0x0
   10d66:	63e50513          	addi	a0,a0,1598 # 113a0 <test_calloc_struct+0x450>
   10d6a:	fe6ff0ef          	jal	ra,10550 <puts@plt>
   10d6e:	a86d                	j	10e28 <test_calloc+0xec>
   10d70:	00000517          	auipc	a0,0x0
   10d74:	65050513          	addi	a0,a0,1616 # 113c0 <test_calloc_struct+0x470>
   10d78:	fc8ff0ef          	jal	ra,10540 <printf@plt>
   10d7c:	fe042623          	sw	zero,-20(s0)
   10d80:	a025                	j	10da8 <test_calloc+0x6c>
   10d82:	fec42783          	lw	a5,-20(s0)
   10d86:	078a                	slli	a5,a5,0x2
   10d88:	fd843703          	ld	a4,-40(s0)
   10d8c:	97ba                	add	a5,a5,a4
   10d8e:	439c                	lw	a5,0(a5)
   10d90:	85be                	mv	a1,a5
   10d92:	00000517          	auipc	a0,0x0
   10d96:	4ae50513          	addi	a0,a0,1198 # 11240 <test_calloc_struct+0x2f0>
   10d9a:	fa6ff0ef          	jal	ra,10540 <printf@plt>
   10d9e:	fec42783          	lw	a5,-20(s0)
   10da2:	2785                	addiw	a5,a5,1
   10da4:	fef42623          	sw	a5,-20(s0)
   10da8:	fec42703          	lw	a4,-20(s0)
   10dac:	fe442783          	lw	a5,-28(s0)
   10db0:	2701                	sext.w	a4,a4
   10db2:	2781                	sext.w	a5,a5
   10db4:	fcf747e3          	blt	a4,a5,10d82 <test_calloc+0x46>
   10db8:	4529                	li	a0,10
   10dba:	f76ff0ef          	jal	ra,10530 <putchar@plt>
   10dbe:	fd843783          	ld	a5,-40(s0)
   10dc2:	0791                	addi	a5,a5,4
   10dc4:	4729                	li	a4,10
   10dc6:	c398                	sw	a4,0(a5)
   10dc8:	fd843783          	ld	a5,-40(s0)
   10dcc:	07b1                	addi	a5,a5,12
   10dce:	4751                	li	a4,20
   10dd0:	c398                	sw	a4,0(a5)
   10dd2:	00000517          	auipc	a0,0x0
   10dd6:	60e50513          	addi	a0,a0,1550 # 113e0 <test_calloc_struct+0x490>
   10dda:	f66ff0ef          	jal	ra,10540 <printf@plt>
   10dde:	fe042423          	sw	zero,-24(s0)
   10de2:	a025                	j	10e0a <test_calloc+0xce>
   10de4:	fe842783          	lw	a5,-24(s0)
   10de8:	078a                	slli	a5,a5,0x2
   10dea:	fd843703          	ld	a4,-40(s0)
   10dee:	97ba                	add	a5,a5,a4
   10df0:	439c                	lw	a5,0(a5)
   10df2:	85be                	mv	a1,a5
   10df4:	00000517          	auipc	a0,0x0
   10df8:	44c50513          	addi	a0,a0,1100 # 11240 <test_calloc_struct+0x2f0>
   10dfc:	f44ff0ef          	jal	ra,10540 <printf@plt>
   10e00:	fe842783          	lw	a5,-24(s0)
   10e04:	2785                	addiw	a5,a5,1
   10e06:	fef42423          	sw	a5,-24(s0)
   10e0a:	fe842703          	lw	a4,-24(s0)
   10e0e:	fe442783          	lw	a5,-28(s0)
   10e12:	2701                	sext.w	a4,a4
   10e14:	2781                	sext.w	a5,a5
   10e16:	fcf747e3          	blt	a4,a5,10de4 <test_calloc+0xa8>
   10e1a:	4529                	li	a0,10
   10e1c:	f14ff0ef          	jal	ra,10530 <putchar@plt>
   10e20:	fd843503          	ld	a0,-40(s0)
   10e24:	facff0ef          	jal	ra,105d0 <free@plt>
   10e28:	70a2                	ld	ra,40(sp)
   10e2a:	7402                	ld	s0,32(sp)
   10e2c:	6145                	addi	sp,sp,48
   10e2e:	8082                	ret

0000000000010e30 <test_realloc_string>:
   10e30:	1101                	addi	sp,sp,-32
   10e32:	ec06                	sd	ra,24(sp)
   10e34:	e822                	sd	s0,16(sp)
   10e36:	1000                	addi	s0,sp,32
   10e38:	4529                	li	a0,10
   10e3a:	f26ff0ef          	jal	ra,10560 <malloc@plt>
   10e3e:	87aa                	mv	a5,a0
   10e40:	fef43423          	sd	a5,-24(s0)
   10e44:	fe843783          	ld	a5,-24(s0)
   10e48:	eb81                	bnez	a5,10e58 <test_realloc_string+0x28>
   10e4a:	00000517          	auipc	a0,0x0
   10e4e:	5ae50513          	addi	a0,a0,1454 # 113f8 <test_calloc_struct+0x4a8>
   10e52:	efeff0ef          	jal	ra,10550 <puts@plt>
   10e56:	a8cd                	j	10f48 <test_realloc_string+0x118>
   10e58:	fe843783          	ld	a5,-24(s0)
   10e5c:	00000717          	auipc	a4,0x0
   10e60:	5c470713          	addi	a4,a4,1476 # 11420 <test_calloc_struct+0x4d0>
   10e64:	00074803          	lbu	a6,0(a4)
   10e68:	00174503          	lbu	a0,1(a4)
   10e6c:	00274583          	lbu	a1,2(a4)
   10e70:	00374603          	lbu	a2,3(a4)
   10e74:	00474683          	lbu	a3,4(a4)
   10e78:	00574703          	lbu	a4,5(a4)
   10e7c:	01078023          	sb	a6,0(a5)
   10e80:	00a780a3          	sb	a0,1(a5)
   10e84:	00b78123          	sb	a1,2(a5)
   10e88:	00c781a3          	sb	a2,3(a5)
   10e8c:	00d78223          	sb	a3,4(a5)
   10e90:	00e782a3          	sb	a4,5(a5)
   10e94:	fe843583          	ld	a1,-24(s0)
   10e98:	00000517          	auipc	a0,0x0
   10e9c:	59050513          	addi	a0,a0,1424 # 11428 <test_calloc_struct+0x4d8>
   10ea0:	ea0ff0ef          	jal	ra,10540 <printf@plt>
   10ea4:	45d1                	li	a1,20
   10ea6:	fe843503          	ld	a0,-24(s0)
   10eaa:	ee6ff0ef          	jal	ra,10590 <realloc@plt>
   10eae:	fea43023          	sd	a0,-32(s0)
   10eb2:	fe043783          	ld	a5,-32(s0)
   10eb6:	ef81                	bnez	a5,10ece <test_realloc_string+0x9e>
   10eb8:	00000517          	auipc	a0,0x0
   10ebc:	58850513          	addi	a0,a0,1416 # 11440 <test_calloc_struct+0x4f0>
   10ec0:	e90ff0ef          	jal	ra,10550 <puts@plt>
   10ec4:	fe843503          	ld	a0,-24(s0)
   10ec8:	f08ff0ef          	jal	ra,105d0 <free@plt>
   10ecc:	a8b5                	j	10f48 <test_realloc_string+0x118>
   10ece:	fe043783          	ld	a5,-32(s0)
   10ed2:	fef43423          	sd	a5,-24(s0)
   10ed6:	fe843503          	ld	a0,-24(s0)
   10eda:	ee6ff0ef          	jal	ra,105c0 <strlen@plt>
   10ede:	87aa                	mv	a5,a0
   10ee0:	873e                	mv	a4,a5
   10ee2:	fe843783          	ld	a5,-24(s0)
   10ee6:	97ba                	add	a5,a5,a4
   10ee8:	00000717          	auipc	a4,0x0
   10eec:	57870713          	addi	a4,a4,1400 # 11460 <test_calloc_struct+0x510>
   10ef0:	00074303          	lbu	t1,0(a4)
   10ef4:	00174883          	lbu	a7,1(a4)
   10ef8:	00274803          	lbu	a6,2(a4)
   10efc:	00374503          	lbu	a0,3(a4)
   10f00:	00474583          	lbu	a1,4(a4)
   10f04:	00574603          	lbu	a2,5(a4)
   10f08:	00674683          	lbu	a3,6(a4)
   10f0c:	00774703          	lbu	a4,7(a4)
   10f10:	00678023          	sb	t1,0(a5)
   10f14:	011780a3          	sb	a7,1(a5)
   10f18:	01078123          	sb	a6,2(a5)
   10f1c:	00a781a3          	sb	a0,3(a5)
   10f20:	00b78223          	sb	a1,4(a5)
   10f24:	00c782a3          	sb	a2,5(a5)
   10f28:	00d78323          	sb	a3,6(a5)
   10f2c:	00e783a3          	sb	a4,7(a5)
   10f30:	fe843583          	ld	a1,-24(s0)
   10f34:	00000517          	auipc	a0,0x0
   10f38:	53450513          	addi	a0,a0,1332 # 11468 <test_calloc_struct+0x518>
   10f3c:	e04ff0ef          	jal	ra,10540 <printf@plt>
   10f40:	fe843503          	ld	a0,-24(s0)
   10f44:	e8cff0ef          	jal	ra,105d0 <free@plt>
   10f48:	60e2                	ld	ra,24(sp)
   10f4a:	6442                	ld	s0,16(sp)
   10f4c:	6105                	addi	sp,sp,32
   10f4e:	8082                	ret

0000000000010f50 <test_calloc_struct>:
   10f50:	7179                	addi	sp,sp,-48
   10f52:	f406                	sd	ra,40(sp)
   10f54:	f022                	sd	s0,32(sp)
   10f56:	1800                	addi	s0,sp,48
   10f58:	478d                	li	a5,3
   10f5a:	fef42223          	sw	a5,-28(s0)
   10f5e:	fe442783          	lw	a5,-28(s0)
   10f62:	45c1                	li	a1,16
   10f64:	853e                	mv	a0,a5
   10f66:	e1aff0ef          	jal	ra,10580 <calloc@plt>
   10f6a:	87aa                	mv	a5,a0
   10f6c:	fcf43c23          	sd	a5,-40(s0)
   10f70:	fd843783          	ld	a5,-40(s0)
   10f74:	eb81                	bnez	a5,10f84 <test_calloc_struct+0x34>
   10f76:	00000517          	auipc	a0,0x0
   10f7a:	50a50513          	addi	a0,a0,1290 # 11480 <test_calloc_struct+0x530>
   10f7e:	dd2ff0ef          	jal	ra,10550 <puts@plt>
   10f82:	a8ed                	j	1107c <test_calloc_struct+0x12c>
   10f84:	00000517          	auipc	a0,0x0
   10f88:	52450513          	addi	a0,a0,1316 # 114a8 <test_calloc_struct+0x558>
   10f8c:	dc4ff0ef          	jal	ra,10550 <puts@plt>
   10f90:	fe042623          	sw	zero,-20(s0)
   10f94:	a83d                	j	10fd2 <test_calloc_struct+0x82>
   10f96:	fec42783          	lw	a5,-20(s0)
   10f9a:	0792                	slli	a5,a5,0x4
   10f9c:	fd843703          	ld	a4,-40(s0)
   10fa0:	97ba                	add	a5,a5,a4
   10fa2:	4390                	lw	a2,0(a5)
   10fa4:	fec42783          	lw	a5,-20(s0)
   10fa8:	0792                	slli	a5,a5,0x4
   10faa:	fd843703          	ld	a4,-40(s0)
   10fae:	97ba                	add	a5,a5,a4
   10fb0:	279c                	fld	fa5,8(a5)
   10fb2:	fec42783          	lw	a5,-20(s0)
   10fb6:	e20786d3          	fmv.x.d	a3,fa5
   10fba:	85be                	mv	a1,a5
   10fbc:	00000517          	auipc	a0,0x0
   10fc0:	50c50513          	addi	a0,a0,1292 # 114c8 <test_calloc_struct+0x578>
   10fc4:	d7cff0ef          	jal	ra,10540 <printf@plt>
   10fc8:	fec42783          	lw	a5,-20(s0)
   10fcc:	2785                	addiw	a5,a5,1
   10fce:	fef42623          	sw	a5,-20(s0)
   10fd2:	fec42703          	lw	a4,-20(s0)
   10fd6:	fe442783          	lw	a5,-28(s0)
   10fda:	2701                	sext.w	a4,a4
   10fdc:	2781                	sext.w	a5,a5
   10fde:	faf74ce3          	blt	a4,a5,10f96 <test_calloc_struct+0x46>
   10fe2:	fd843783          	ld	a5,-40(s0)
   10fe6:	4705                	li	a4,1
   10fe8:	c398                	sw	a4,0(a5)
   10fea:	fd843783          	ld	a5,-40(s0)
   10fee:	00000717          	auipc	a4,0x0
   10ff2:	51a70713          	addi	a4,a4,1306 # 11508 <test_calloc_struct+0x5b8>
   10ff6:	231c                	fld	fa5,0(a4)
   10ff8:	a79c                	fsd	fa5,8(a5)
   10ffa:	fd843783          	ld	a5,-40(s0)
   10ffe:	07c1                	addi	a5,a5,16
   11000:	4709                	li	a4,2
   11002:	c398                	sw	a4,0(a5)
   11004:	fd843783          	ld	a5,-40(s0)
   11008:	07c1                	addi	a5,a5,16
   1100a:	00000717          	auipc	a4,0x0
   1100e:	50670713          	addi	a4,a4,1286 # 11510 <test_calloc_struct+0x5c0>
   11012:	231c                	fld	fa5,0(a4)
   11014:	a79c                	fsd	fa5,8(a5)
   11016:	00000517          	auipc	a0,0x0
   1101a:	4d250513          	addi	a0,a0,1234 # 114e8 <test_calloc_struct+0x598>
   1101e:	d32ff0ef          	jal	ra,10550 <puts@plt>
   11022:	fe042423          	sw	zero,-24(s0)
   11026:	a83d                	j	11064 <test_calloc_struct+0x114>
   11028:	fe842783          	lw	a5,-24(s0)
   1102c:	0792                	slli	a5,a5,0x4
   1102e:	fd843703          	ld	a4,-40(s0)
   11032:	97ba                	add	a5,a5,a4
   11034:	4390                	lw	a2,0(a5)
   11036:	fe842783          	lw	a5,-24(s0)
   1103a:	0792                	slli	a5,a5,0x4
   1103c:	fd843703          	ld	a4,-40(s0)
   11040:	97ba                	add	a5,a5,a4
   11042:	279c                	fld	fa5,8(a5)
   11044:	fe842783          	lw	a5,-24(s0)
   11048:	e20786d3          	fmv.x.d	a3,fa5
   1104c:	85be                	mv	a1,a5
   1104e:	00000517          	auipc	a0,0x0
   11052:	47a50513          	addi	a0,a0,1146 # 114c8 <test_calloc_struct+0x578>
   11056:	ceaff0ef          	jal	ra,10540 <printf@plt>
   1105a:	fe842783          	lw	a5,-24(s0)
   1105e:	2785                	addiw	a5,a5,1
   11060:	fef42423          	sw	a5,-24(s0)
   11064:	fe842703          	lw	a4,-24(s0)
   11068:	fe442783          	lw	a5,-28(s0)
   1106c:	2701                	sext.w	a4,a4
   1106e:	2781                	sext.w	a5,a5
   11070:	faf74ce3          	blt	a4,a5,11028 <test_calloc_struct+0xd8>
   11074:	fd843503          	ld	a0,-40(s0)
   11078:	d58ff0ef          	jal	ra,105d0 <free@plt>
   1107c:	70a2                	ld	ra,40(sp)
   1107e:	7402                	ld	s0,32(sp)
   11080:	6145                	addi	sp,sp,48
   11082:	8082                	ret
