
loader_riscv64-qemu-virt.elf:     file format elf64-littleriscv


Disassembly of section .text:

ffffffc080200000 <_start>:
ffffffc080200000:	842a                	mv	s0,a0
ffffffc080200002:	84ae                	mv	s1,a1

ffffffc080200004 <.Lpcrel_hi402>:
ffffffc080200004:	00009117          	auipc	sp,0x9
ffffffc080200008:	ffc10113          	addi	sp,sp,-4 # ffffffc080209000 <_ZN5axhal8platform17riscv64_qemu_virt4boot10BOOT_STACK17h2485bfb03ee3e26aE>
ffffffc08020000c:	000402b7          	lui	t0,0x40
ffffffc080200010:	9116                	add	sp,sp,t0
ffffffc080200012:	00001097          	auipc	ra,0x1
ffffffc080200016:	7e6080e7          	jalr	2022(ra) # ffffffc0802017f8 <_ZN5axhal8platform17riscv64_qemu_virt4boot20init_boot_page_table17hb15703921e95c9efE>
ffffffc08020001a:	00002097          	auipc	ra,0x2
ffffffc08020001e:	804080e7          	jalr	-2044(ra) # ffffffc08020181e <_ZN5axhal8platform17riscv64_qemu_virt4boot8init_mmu17h0d5b9a1b21bfd6a1E>
ffffffc080200022:	597d                	li	s2,-1
ffffffc080200024:	191a                	slli	s2,s2,0x26
ffffffc080200026:	914a                	add	sp,sp,s2
ffffffc080200028:	8522                	mv	a0,s0
ffffffc08020002a:	85a6                	mv	a1,s1

ffffffc08020002c <.Lpcrel_hi403>:
ffffffc08020002c:	00001617          	auipc	a2,0x1
ffffffc080200030:	e5260613          	addi	a2,a2,-430 # ffffffc080200e7e <_ZN5axhal8platform17riscv64_qemu_virt10rust_entry17h65aff50b489684f3E>
ffffffc080200034:	964a                	add	a2,a2,s2
ffffffc080200036:	9602                	jalr	a2
ffffffc080200038:	a001                	j	ffffffc080200038 <.Lpcrel_hi403+0xc>
	...

ffffffc08020003c <trap_vector_base>:
ffffffc08020003c:	14011173          	csrrw	sp,sscratch,sp
ffffffc080200040:	0a011763          	bnez	sp,ffffffc0802000ee <trap_vector_base+0xb2>
ffffffc080200044:	14002173          	csrr	sp,sscratch
ffffffc080200048:	a009                	j	ffffffc08020004a <trap_vector_base+0xe>
ffffffc08020004a:	ef810113          	addi	sp,sp,-264
ffffffc08020004e:	e006                	sd	ra,0(sp)
ffffffc080200050:	f016                	sd	t0,32(sp)
ffffffc080200052:	f41a                	sd	t1,40(sp)
ffffffc080200054:	f81e                	sd	t2,48(sp)
ffffffc080200056:	fc22                	sd	s0,56(sp)
ffffffc080200058:	e0a6                	sd	s1,64(sp)
ffffffc08020005a:	e4aa                	sd	a0,72(sp)
ffffffc08020005c:	e8ae                	sd	a1,80(sp)
ffffffc08020005e:	ecb2                	sd	a2,88(sp)
ffffffc080200060:	f0b6                	sd	a3,96(sp)
ffffffc080200062:	f4ba                	sd	a4,104(sp)
ffffffc080200064:	f8be                	sd	a5,112(sp)
ffffffc080200066:	fcc2                	sd	a6,120(sp)
ffffffc080200068:	e146                	sd	a7,128(sp)
ffffffc08020006a:	e54a                	sd	s2,136(sp)
ffffffc08020006c:	e94e                	sd	s3,144(sp)
ffffffc08020006e:	ed52                	sd	s4,152(sp)
ffffffc080200070:	f156                	sd	s5,160(sp)
ffffffc080200072:	f55a                	sd	s6,168(sp)
ffffffc080200074:	f95e                	sd	s7,176(sp)
ffffffc080200076:	fd62                	sd	s8,184(sp)
ffffffc080200078:	e1e6                	sd	s9,192(sp)
ffffffc08020007a:	e5ea                	sd	s10,200(sp)
ffffffc08020007c:	e9ee                	sd	s11,208(sp)
ffffffc08020007e:	edf2                	sd	t3,216(sp)
ffffffc080200080:	f1f6                	sd	t4,224(sp)
ffffffc080200082:	f5fa                	sd	t5,232(sp)
ffffffc080200084:	f9fe                	sd	t6,240(sp)
ffffffc080200086:	141022f3          	csrr	t0,sepc
ffffffc08020008a:	10002373          	csrr	t1,sstatus
ffffffc08020008e:	140013f3          	csrrw	t2,sscratch,zero
ffffffc080200092:	fd96                	sd	t0,248(sp)
ffffffc080200094:	e21a                	sd	t1,256(sp)
ffffffc080200096:	e41e                	sd	t2,8(sp)
ffffffc080200098:	850a                	mv	a0,sp
ffffffc08020009a:	4581                	li	a1,0
ffffffc08020009c:	00001097          	auipc	ra,0x1
ffffffc0802000a0:	e28080e7          	jalr	-472(ra) # ffffffc080200ec4 <riscv_trap_handler>
ffffffc0802000a4:	72ee                	ld	t0,248(sp)
ffffffc0802000a6:	6312                	ld	t1,256(sp)
ffffffc0802000a8:	14129073          	csrw	sepc,t0
ffffffc0802000ac:	10031073          	csrw	sstatus,t1
ffffffc0802000b0:	6082                	ld	ra,0(sp)
ffffffc0802000b2:	7282                	ld	t0,32(sp)
ffffffc0802000b4:	7322                	ld	t1,40(sp)
ffffffc0802000b6:	73c2                	ld	t2,48(sp)
ffffffc0802000b8:	7462                	ld	s0,56(sp)
ffffffc0802000ba:	6486                	ld	s1,64(sp)
ffffffc0802000bc:	6526                	ld	a0,72(sp)
ffffffc0802000be:	65c6                	ld	a1,80(sp)
ffffffc0802000c0:	6666                	ld	a2,88(sp)
ffffffc0802000c2:	7686                	ld	a3,96(sp)
ffffffc0802000c4:	7726                	ld	a4,104(sp)
ffffffc0802000c6:	77c6                	ld	a5,112(sp)
ffffffc0802000c8:	7866                	ld	a6,120(sp)
ffffffc0802000ca:	688a                	ld	a7,128(sp)
ffffffc0802000cc:	692a                	ld	s2,136(sp)
ffffffc0802000ce:	69ca                	ld	s3,144(sp)
ffffffc0802000d0:	6a6a                	ld	s4,152(sp)
ffffffc0802000d2:	7a8a                	ld	s5,160(sp)
ffffffc0802000d4:	7b2a                	ld	s6,168(sp)
ffffffc0802000d6:	7bca                	ld	s7,176(sp)
ffffffc0802000d8:	7c6a                	ld	s8,184(sp)
ffffffc0802000da:	6c8e                	ld	s9,192(sp)
ffffffc0802000dc:	6d2e                	ld	s10,200(sp)
ffffffc0802000de:	6dce                	ld	s11,208(sp)
ffffffc0802000e0:	6e6e                	ld	t3,216(sp)
ffffffc0802000e2:	7e8e                	ld	t4,224(sp)
ffffffc0802000e4:	7f2e                	ld	t5,232(sp)
ffffffc0802000e6:	7fce                	ld	t6,240(sp)
ffffffc0802000e8:	6122                	ld	sp,8(sp)
ffffffc0802000ea:	10200073          	sret
ffffffc0802000ee:	ef810113          	addi	sp,sp,-264
ffffffc0802000f2:	e006                	sd	ra,0(sp)
ffffffc0802000f4:	f016                	sd	t0,32(sp)
ffffffc0802000f6:	f41a                	sd	t1,40(sp)
ffffffc0802000f8:	f81e                	sd	t2,48(sp)
ffffffc0802000fa:	fc22                	sd	s0,56(sp)
ffffffc0802000fc:	e0a6                	sd	s1,64(sp)
ffffffc0802000fe:	e4aa                	sd	a0,72(sp)
ffffffc080200100:	e8ae                	sd	a1,80(sp)
ffffffc080200102:	ecb2                	sd	a2,88(sp)
ffffffc080200104:	f0b6                	sd	a3,96(sp)
ffffffc080200106:	f4ba                	sd	a4,104(sp)
ffffffc080200108:	f8be                	sd	a5,112(sp)
ffffffc08020010a:	fcc2                	sd	a6,120(sp)
ffffffc08020010c:	e146                	sd	a7,128(sp)
ffffffc08020010e:	e54a                	sd	s2,136(sp)
ffffffc080200110:	e94e                	sd	s3,144(sp)
ffffffc080200112:	ed52                	sd	s4,152(sp)
ffffffc080200114:	f156                	sd	s5,160(sp)
ffffffc080200116:	f55a                	sd	s6,168(sp)
ffffffc080200118:	f95e                	sd	s7,176(sp)
ffffffc08020011a:	fd62                	sd	s8,184(sp)
ffffffc08020011c:	e1e6                	sd	s9,192(sp)
ffffffc08020011e:	e5ea                	sd	s10,200(sp)
ffffffc080200120:	e9ee                	sd	s11,208(sp)
ffffffc080200122:	edf2                	sd	t3,216(sp)
ffffffc080200124:	f1f6                	sd	t4,224(sp)
ffffffc080200126:	f5fa                	sd	t5,232(sp)
ffffffc080200128:	f9fe                	sd	t6,240(sp)
ffffffc08020012a:	141022f3          	csrr	t0,sepc
ffffffc08020012e:	10002373          	csrr	t1,sstatus
ffffffc080200132:	140013f3          	csrrw	t2,sscratch,zero
ffffffc080200136:	fd96                	sd	t0,248(sp)
ffffffc080200138:	e21a                	sd	t1,256(sp)
ffffffc08020013a:	e41e                	sd	t2,8(sp)
ffffffc08020013c:	62e2                	ld	t0,24(sp)
ffffffc08020013e:	e80e                	sd	gp,16(sp)
ffffffc080200140:	ec12                	sd	tp,24(sp)
ffffffc080200142:	8216                	mv	tp,t0
ffffffc080200144:	850a                	mv	a0,sp
ffffffc080200146:	4585                	li	a1,1
ffffffc080200148:	00001097          	auipc	ra,0x1
ffffffc08020014c:	d7c080e7          	jalr	-644(ra) # ffffffc080200ec4 <riscv_trap_handler>
ffffffc080200150:	61c2                	ld	gp,16(sp)
ffffffc080200152:	62e2                	ld	t0,24(sp)
ffffffc080200154:	ec12                	sd	tp,24(sp)
ffffffc080200156:	8216                	mv	tp,t0
ffffffc080200158:	10810293          	addi	t0,sp,264
ffffffc08020015c:	14029073          	csrw	sscratch,t0
ffffffc080200160:	72ee                	ld	t0,248(sp)
ffffffc080200162:	6312                	ld	t1,256(sp)
ffffffc080200164:	14129073          	csrw	sepc,t0
ffffffc080200168:	10031073          	csrw	sstatus,t1
ffffffc08020016c:	6082                	ld	ra,0(sp)
ffffffc08020016e:	7282                	ld	t0,32(sp)
ffffffc080200170:	7322                	ld	t1,40(sp)
ffffffc080200172:	73c2                	ld	t2,48(sp)
ffffffc080200174:	7462                	ld	s0,56(sp)
ffffffc080200176:	6486                	ld	s1,64(sp)
ffffffc080200178:	6526                	ld	a0,72(sp)
ffffffc08020017a:	65c6                	ld	a1,80(sp)
ffffffc08020017c:	6666                	ld	a2,88(sp)
ffffffc08020017e:	7686                	ld	a3,96(sp)
ffffffc080200180:	7726                	ld	a4,104(sp)
ffffffc080200182:	77c6                	ld	a5,112(sp)
ffffffc080200184:	7866                	ld	a6,120(sp)
ffffffc080200186:	688a                	ld	a7,128(sp)
ffffffc080200188:	692a                	ld	s2,136(sp)
ffffffc08020018a:	69ca                	ld	s3,144(sp)
ffffffc08020018c:	6a6a                	ld	s4,152(sp)
ffffffc08020018e:	7a8a                	ld	s5,160(sp)
ffffffc080200190:	7b2a                	ld	s6,168(sp)
ffffffc080200192:	7bca                	ld	s7,176(sp)
ffffffc080200194:	7c6a                	ld	s8,184(sp)
ffffffc080200196:	6c8e                	ld	s9,192(sp)
ffffffc080200198:	6d2e                	ld	s10,200(sp)
ffffffc08020019a:	6dce                	ld	s11,208(sp)
ffffffc08020019c:	6e6e                	ld	t3,216(sp)
ffffffc08020019e:	7e8e                	ld	t4,224(sp)
ffffffc0802001a0:	7f2e                	ld	t5,232(sp)
ffffffc0802001a2:	7fce                	ld	t6,240(sp)
ffffffc0802001a4:	6122                	ld	sp,8(sp)
ffffffc0802001a6:	10200073          	sret

ffffffc0802001aa <_ZN52_$LT$$BP$const$u20$T$u20$as$u20$core..fmt..Debug$GT$3fmt17ha9231409144b8643E>:
ffffffc0802001aa:	7171                	addi	sp,sp,-176
ffffffc0802001ac:	f506                	sd	ra,168(sp)
ffffffc0802001ae:	f122                	sd	s0,160(sp)
ffffffc0802001b0:	ed26                	sd	s1,152(sp)
ffffffc0802001b2:	e94a                	sd	s2,144(sp)
ffffffc0802001b4:	e54e                	sd	s3,136(sp)
ffffffc0802001b6:	842e                	mv	s0,a1
ffffffc0802001b8:	6108                	ld	a0,0(a0)
ffffffc0802001ba:	0345e483          	lwu	s1,52(a1)
ffffffc0802001be:	0005b903          	ld	s2,0(a1)
ffffffc0802001c2:	0085b983          	ld	s3,8(a1)
ffffffc0802001c6:	0044f613          	andi	a2,s1,4
ffffffc0802001ca:	85a6                	mv	a1,s1
ffffffc0802001cc:	ca09                	beqz	a2,ffffffc0802001de <_ZN52_$LT$$BP$const$u20$T$u20$as$u20$core..fmt..Debug$GT$3fmt17ha9231409144b8643E+0x34>
ffffffc0802001ce:	0084e593          	ori	a1,s1,8
ffffffc0802001d2:	00091663          	bnez	s2,ffffffc0802001de <_ZN52_$LT$$BP$const$u20$T$u20$as$u20$core..fmt..Debug$GT$3fmt17ha9231409144b8643E+0x34>
ffffffc0802001d6:	4605                	li	a2,1
ffffffc0802001d8:	e010                	sd	a2,0(s0)
ffffffc0802001da:	4649                	li	a2,18
ffffffc0802001dc:	e410                	sd	a2,8(s0)
ffffffc0802001de:	0045e593          	ori	a1,a1,4
ffffffc0802001e2:	d84c                	sw	a1,52(s0)
ffffffc0802001e4:	08100693          	li	a3,129
ffffffc0802001e8:	08710593          	addi	a1,sp,135
ffffffc0802001ec:	4629                	li	a2,10
ffffffc0802001ee:	a811                	j	ffffffc080200202 <_ZN52_$LT$$BP$const$u20$T$u20$as$u20$core..fmt..Debug$GT$3fmt17ha9231409144b8643E+0x58>
ffffffc0802001f0:	05778693          	addi	a3,a5,87
ffffffc0802001f4:	8111                	srli	a0,a0,0x4
ffffffc0802001f6:	00d58023          	sb	a3,0(a1)
ffffffc0802001fa:	15fd                	addi	a1,a1,-1
ffffffc0802001fc:	fff70693          	addi	a3,a4,-1
ffffffc080200200:	c909                	beqz	a0,ffffffc080200212 <_ZN52_$LT$$BP$const$u20$T$u20$as$u20$core..fmt..Debug$GT$3fmt17ha9231409144b8643E+0x68>
ffffffc080200202:	00f57793          	andi	a5,a0,15
ffffffc080200206:	8736                	mv	a4,a3
ffffffc080200208:	fec7f4e3          	bgeu	a5,a2,ffffffc0802001f0 <_ZN52_$LT$$BP$const$u20$T$u20$as$u20$core..fmt..Debug$GT$3fmt17ha9231409144b8643E+0x46>
ffffffc08020020c:	03078693          	addi	a3,a5,48
ffffffc080200210:	b7d5                	j	ffffffc0802001f4 <_ZN52_$LT$$BP$const$u20$T$u20$as$u20$core..fmt..Debug$GT$3fmt17ha9231409144b8643E+0x4a>
ffffffc080200212:	ffe70513          	addi	a0,a4,-2
ffffffc080200216:	08100713          	li	a4,129
ffffffc08020021a:	02e57b63          	bgeu	a0,a4,ffffffc080200250 <.Lpcrel_hi0>
ffffffc08020021e:	8f15                	sub	a4,a4,a3
ffffffc080200220:	0034                	addi	a3,sp,8
ffffffc080200222:	96aa                	add	a3,a3,a0

ffffffc080200224 <.Lpcrel_hi1>:
ffffffc080200224:	00005517          	auipc	a0,0x5
ffffffc080200228:	41450593          	addi	a1,a0,1044 # ffffffc080205638 <.Lanon.3bf094dc287819aacaa24632947359b8.2>
ffffffc08020022c:	4609                	li	a2,2
ffffffc08020022e:	8522                	mv	a0,s0
ffffffc080200230:	00002097          	auipc	ra,0x2
ffffffc080200234:	3be080e7          	jalr	958(ra) # ffffffc0802025ee <_ZN4core3fmt9Formatter12pad_integral17h8b1ffde32503eca3E>
ffffffc080200238:	01243023          	sd	s2,0(s0)
ffffffc08020023c:	01343423          	sd	s3,8(s0)
ffffffc080200240:	d844                	sw	s1,52(s0)
ffffffc080200242:	70aa                	ld	ra,168(sp)
ffffffc080200244:	740a                	ld	s0,160(sp)
ffffffc080200246:	64ea                	ld	s1,152(sp)
ffffffc080200248:	694a                	ld	s2,144(sp)
ffffffc08020024a:	69aa                	ld	s3,136(sp)
ffffffc08020024c:	614d                	addi	sp,sp,176
ffffffc08020024e:	8082                	ret

ffffffc080200250 <.Lpcrel_hi0>:
ffffffc080200250:	00005597          	auipc	a1,0x5
ffffffc080200254:	26858613          	addi	a2,a1,616 # ffffffc0802054b8 <.Lanon.c308b1a5a0a97bdc8edd9b96ba25ee05.312>
ffffffc080200258:	08000593          	li	a1,128
ffffffc08020025c:	00002097          	auipc	ra,0x2
ffffffc080200260:	228080e7          	jalr	552(ra) # ffffffc080202484 <_ZN4core5slice5index26slice_start_index_len_fail17h9a8c132d7bd51700E>

ffffffc080200264 <_ZN13arceos_loader9abi_hello17hb2b6cf35f220a777E>:
ffffffc080200264:	7131                	addi	sp,sp,-192
ffffffc080200266:	fd06                	sd	ra,184(sp)
ffffffc080200268:	f922                	sd	s0,176(sp)
ffffffc08020026a:	f526                	sd	s1,168(sp)
ffffffc08020026c:	f14a                	sd	s2,160(sp)

ffffffc08020026e <.Lpcrel_hi2>:
ffffffc08020026e:	00004517          	auipc	a0,0x4
ffffffc080200272:	d9a50513          	addi	a0,a0,-614 # ffffffc080204008 <.Lanon.fad58de7366495db4650cfefac2fcd61.1>
ffffffc080200276:	e42a                	sd	a0,8(sp)
ffffffc080200278:	4485                	li	s1,1
ffffffc08020027a:	e826                	sd	s1,16(sp)
ffffffc08020027c:	f402                	sd	zero,40(sp)
ffffffc08020027e:	4521                	li	a0,8
ffffffc080200280:	ec2a                	sd	a0,24(sp)
ffffffc080200282:	f002                	sd	zero,32(sp)
ffffffc080200284:	fc26                	sd	s1,56(sp)

ffffffc080200286 <.Lpcrel_hi3>:
ffffffc080200286:	00049517          	auipc	a0,0x49
ffffffc08020028a:	dfa50413          	addi	s0,a0,-518 # ffffffc080249080 <_ZN9axruntime11INITED_CPUS17haecfae2c245bf0eaE>
ffffffc08020028e:	e0a2                	sd	s0,64(sp)
ffffffc080200290:	03810913          	addi	s2,sp,56
ffffffc080200294:	e4ca                	sd	s2,72(sp)
ffffffc080200296:	c882                	sw	zero,80(sp)

ffffffc080200298 <.Lpcrel_hi4>:
ffffffc080200298:	00005517          	auipc	a0,0x5
ffffffc08020029c:	ea850593          	addi	a1,a0,-344 # ffffffc080205140 <.Lanon.427a789f18ce83ac0f31c2f7c1e7e09c.8>
ffffffc0802002a0:	00a8                	addi	a0,sp,72
ffffffc0802002a2:	0030                	addi	a2,sp,8
ffffffc0802002a4:	00003097          	auipc	ra,0x3
ffffffc0802002a8:	af2080e7          	jalr	-1294(ra) # ffffffc080202d96 <_ZN4core3fmt5write17h49a560cace6c89d2E>
ffffffc0802002ac:	ed25                	bnez	a0,ffffffc080200324 <.Lpcrel_hi24+0x24>

ffffffc0802002ae <.Lpcrel_hi13>:
ffffffc0802002ae:	00004517          	auipc	a0,0x4
ffffffc0802002b2:	d8a50513          	addi	a0,a0,-630 # ffffffc080204038 <.Lanon.fad58de7366495db4650cfefac2fcd61.3>
ffffffc0802002b6:	e42a                	sd	a0,8(sp)
ffffffc0802002b8:	e826                	sd	s1,16(sp)
ffffffc0802002ba:	f402                	sd	zero,40(sp)
ffffffc0802002bc:	0928                	addi	a0,sp,152
ffffffc0802002be:	ec2a                	sd	a0,24(sp)
ffffffc0802002c0:	f002                	sd	zero,32(sp)
ffffffc0802002c2:	fc26                	sd	s1,56(sp)
ffffffc0802002c4:	e0a2                	sd	s0,64(sp)
ffffffc0802002c6:	e4ca                	sd	s2,72(sp)
ffffffc0802002c8:	c882                	sw	zero,80(sp)

ffffffc0802002ca <.Lpcrel_hi14>:
ffffffc0802002ca:	00005517          	auipc	a0,0x5
ffffffc0802002ce:	e7650593          	addi	a1,a0,-394 # ffffffc080205140 <.Lanon.427a789f18ce83ac0f31c2f7c1e7e09c.8>
ffffffc0802002d2:	00a8                	addi	a0,sp,72
ffffffc0802002d4:	0030                	addi	a2,sp,8
ffffffc0802002d6:	00003097          	auipc	ra,0x3
ffffffc0802002da:	ac0080e7          	jalr	-1344(ra) # ffffffc080202d96 <_ZN4core3fmt5write17h49a560cace6c89d2E>
ffffffc0802002de:	e161                	bnez	a0,ffffffc08020039e <.Lpcrel_hi12+0x12>

ffffffc0802002e0 <.Lpcrel_hi23>:
ffffffc0802002e0:	00004517          	auipc	a0,0x4
ffffffc0802002e4:	da050513          	addi	a0,a0,-608 # ffffffc080204080 <.Lanon.fad58de7366495db4650cfefac2fcd61.5>
ffffffc0802002e8:	e42a                	sd	a0,8(sp)
ffffffc0802002ea:	4505                	li	a0,1
ffffffc0802002ec:	e82a                	sd	a0,16(sp)
ffffffc0802002ee:	f402                	sd	zero,40(sp)
ffffffc0802002f0:	45a1                	li	a1,8
ffffffc0802002f2:	ec2e                	sd	a1,24(sp)
ffffffc0802002f4:	f002                	sd	zero,32(sp)
ffffffc0802002f6:	fc2a                	sd	a0,56(sp)
ffffffc0802002f8:	e0a2                	sd	s0,64(sp)
ffffffc0802002fa:	1828                	addi	a0,sp,56
ffffffc0802002fc:	e4aa                	sd	a0,72(sp)
ffffffc0802002fe:	c882                	sw	zero,80(sp)

ffffffc080200300 <.Lpcrel_hi24>:
ffffffc080200300:	00005517          	auipc	a0,0x5
ffffffc080200304:	e4050593          	addi	a1,a0,-448 # ffffffc080205140 <.Lanon.427a789f18ce83ac0f31c2f7c1e7e09c.8>
ffffffc080200308:	00a8                	addi	a0,sp,72
ffffffc08020030a:	0030                	addi	a2,sp,8
ffffffc08020030c:	00003097          	auipc	ra,0x3
ffffffc080200310:	a8a080e7          	jalr	-1398(ra) # ffffffc080202d96 <_ZN4core3fmt5write17h49a560cace6c89d2E>
ffffffc080200314:	10051263          	bnez	a0,ffffffc080200418 <.Lpcrel_hi22+0x12>
ffffffc080200318:	70ea                	ld	ra,184(sp)
ffffffc08020031a:	744a                	ld	s0,176(sp)
ffffffc08020031c:	74aa                	ld	s1,168(sp)
ffffffc08020031e:	790a                	ld	s2,160(sp)
ffffffc080200320:	6129                	addi	sp,sp,192
ffffffc080200322:	8082                	ret
ffffffc080200324:	4446                	lw	s0,80(sp)
ffffffc080200326:	e831                	bnez	s0,ffffffc08020037a <.Lpcrel_hi9+0x18>

ffffffc080200328 <.Lpcrel_hi5>:
ffffffc080200328:	00049517          	auipc	a0,0x49
ffffffc08020032c:	d6853583          	ld	a1,-664(a0) # ffffffc080249090 <_ZN3log20MAX_LOG_LEVEL_FILTER17ha1f6027dc31f6649E.0>
ffffffc080200330:	4509                	li	a0,2
ffffffc080200332:	4421                	li	s0,8
ffffffc080200334:	04a5e363          	bltu	a1,a0,ffffffc08020037a <.Lpcrel_hi9+0x18>

ffffffc080200338 <.Lpcrel_hi6>:
ffffffc080200338:	00004597          	auipc	a1,0x4
ffffffc08020033c:	d2858593          	addi	a1,a1,-728 # ffffffc080204060 <.Lanon.fad58de7366495db4650cfefac2fcd61.3+0x28>
ffffffc080200340:	e52e                	sd	a1,136(sp)

ffffffc080200342 <.Lpcrel_hi7>:
ffffffc080200342:	00002597          	auipc	a1,0x2
ffffffc080200346:	fa658593          	addi	a1,a1,-90 # ffffffc0802022e8 <_ZN53_$LT$axerrno..AxError$u20$as$u20$core..fmt..Debug$GT$3fmt17hf4f51e7b362d9119E>
ffffffc08020034a:	e92e                	sd	a1,144(sp)

ffffffc08020034c <.Lpcrel_hi8>:
ffffffc08020034c:	00005597          	auipc	a1,0x5
ffffffc080200350:	e3c58593          	addi	a1,a1,-452 # ffffffc080205188 <.Lanon.427a789f18ce83ac0f31c2f7c1e7e09c.10>
ffffffc080200354:	ecae                	sd	a1,88(sp)
ffffffc080200356:	f0aa                	sd	a0,96(sp)
ffffffc080200358:	fc82                	sd	zero,120(sp)
ffffffc08020035a:	0128                	addi	a0,sp,136
ffffffc08020035c:	f4aa                	sd	a0,104(sp)
ffffffc08020035e:	4505                	li	a0,1
ffffffc080200360:	f8aa                	sd	a0,112(sp)

ffffffc080200362 <.Lpcrel_hi9>:
ffffffc080200362:	00005517          	auipc	a0,0x5
ffffffc080200366:	dae50613          	addi	a2,a0,-594 # ffffffc080205110 <.Lanon.427a789f18ce83ac0f31c2f7c1e7e09c.6>
ffffffc08020036a:	08a8                	addi	a0,sp,88
ffffffc08020036c:	4589                	li	a1,2
ffffffc08020036e:	07d00693          	li	a3,125
ffffffc080200372:	00003097          	auipc	ra,0x3
ffffffc080200376:	410080e7          	jalr	1040(ra) # ffffffc080203782 <_ZN3log13__private_api8log_impl17h8ff5c7eb18f9ca8bE>
ffffffc08020037a:	cca2                	sw	s0,88(sp)

ffffffc08020037c <.Lpcrel_hi10>:
ffffffc08020037c:	00005517          	auipc	a0,0x5
ffffffc080200380:	f3f50513          	addi	a0,a0,-193 # ffffffc0802052bb <.Lanon.427a789f18ce83ac0f31c2f7c1e7e09c.41>

ffffffc080200384 <.Lpcrel_hi11>:
ffffffc080200384:	00005597          	auipc	a1,0x5
ffffffc080200388:	f6458613          	addi	a2,a1,-156 # ffffffc0802052e8 <.Lanon.427a789f18ce83ac0f31c2f7c1e7e09c.42>

ffffffc08020038c <.Lpcrel_hi12>:
ffffffc08020038c:	00005597          	auipc	a1,0x5
ffffffc080200390:	f7c58693          	addi	a3,a1,-132 # ffffffc080205308 <.Lanon.427a789f18ce83ac0f31c2f7c1e7e09c.43>
ffffffc080200394:	08ac                	addi	a1,sp,88
ffffffc080200396:	00003097          	auipc	ra,0x3
ffffffc08020039a:	004080e7          	jalr	4(ra) # ffffffc08020339a <_ZN4core6result13unwrap_failed17h368883645868569cE>
ffffffc08020039e:	4446                	lw	s0,80(sp)
ffffffc0802003a0:	e831                	bnez	s0,ffffffc0802003f4 <.Lpcrel_hi19+0x18>

ffffffc0802003a2 <.Lpcrel_hi15>:
ffffffc0802003a2:	00049517          	auipc	a0,0x49
ffffffc0802003a6:	cee53583          	ld	a1,-786(a0) # ffffffc080249090 <_ZN3log20MAX_LOG_LEVEL_FILTER17ha1f6027dc31f6649E.0>
ffffffc0802003aa:	4509                	li	a0,2
ffffffc0802003ac:	4421                	li	s0,8
ffffffc0802003ae:	04a5e363          	bltu	a1,a0,ffffffc0802003f4 <.Lpcrel_hi19+0x18>

ffffffc0802003b2 <.Lpcrel_hi16>:
ffffffc0802003b2:	00004597          	auipc	a1,0x4
ffffffc0802003b6:	cae58593          	addi	a1,a1,-850 # ffffffc080204060 <.Lanon.fad58de7366495db4650cfefac2fcd61.3+0x28>
ffffffc0802003ba:	e52e                	sd	a1,136(sp)

ffffffc0802003bc <.Lpcrel_hi17>:
ffffffc0802003bc:	00002597          	auipc	a1,0x2
ffffffc0802003c0:	f2c58593          	addi	a1,a1,-212 # ffffffc0802022e8 <_ZN53_$LT$axerrno..AxError$u20$as$u20$core..fmt..Debug$GT$3fmt17hf4f51e7b362d9119E>
ffffffc0802003c4:	e92e                	sd	a1,144(sp)

ffffffc0802003c6 <.Lpcrel_hi18>:
ffffffc0802003c6:	00005597          	auipc	a1,0x5
ffffffc0802003ca:	dc258593          	addi	a1,a1,-574 # ffffffc080205188 <.Lanon.427a789f18ce83ac0f31c2f7c1e7e09c.10>
ffffffc0802003ce:	ecae                	sd	a1,88(sp)
ffffffc0802003d0:	f0aa                	sd	a0,96(sp)
ffffffc0802003d2:	fc82                	sd	zero,120(sp)
ffffffc0802003d4:	0128                	addi	a0,sp,136
ffffffc0802003d6:	f4aa                	sd	a0,104(sp)
ffffffc0802003d8:	4505                	li	a0,1
ffffffc0802003da:	f8aa                	sd	a0,112(sp)

ffffffc0802003dc <.Lpcrel_hi19>:
ffffffc0802003dc:	00005517          	auipc	a0,0x5
ffffffc0802003e0:	d3450613          	addi	a2,a0,-716 # ffffffc080205110 <.Lanon.427a789f18ce83ac0f31c2f7c1e7e09c.6>
ffffffc0802003e4:	08a8                	addi	a0,sp,88
ffffffc0802003e6:	4589                	li	a1,2
ffffffc0802003e8:	07d00693          	li	a3,125
ffffffc0802003ec:	00003097          	auipc	ra,0x3
ffffffc0802003f0:	396080e7          	jalr	918(ra) # ffffffc080203782 <_ZN3log13__private_api8log_impl17h8ff5c7eb18f9ca8bE>
ffffffc0802003f4:	cca2                	sw	s0,88(sp)

ffffffc0802003f6 <.Lpcrel_hi20>:
ffffffc0802003f6:	00005517          	auipc	a0,0x5
ffffffc0802003fa:	ec550513          	addi	a0,a0,-315 # ffffffc0802052bb <.Lanon.427a789f18ce83ac0f31c2f7c1e7e09c.41>

ffffffc0802003fe <.Lpcrel_hi21>:
ffffffc0802003fe:	00005597          	auipc	a1,0x5
ffffffc080200402:	eea58613          	addi	a2,a1,-278 # ffffffc0802052e8 <.Lanon.427a789f18ce83ac0f31c2f7c1e7e09c.42>

ffffffc080200406 <.Lpcrel_hi22>:
ffffffc080200406:	00005597          	auipc	a1,0x5
ffffffc08020040a:	f0258693          	addi	a3,a1,-254 # ffffffc080205308 <.Lanon.427a789f18ce83ac0f31c2f7c1e7e09c.43>
ffffffc08020040e:	08ac                	addi	a1,sp,88
ffffffc080200410:	00003097          	auipc	ra,0x3
ffffffc080200414:	f8a080e7          	jalr	-118(ra) # ffffffc08020339a <_ZN4core6result13unwrap_failed17h368883645868569cE>
ffffffc080200418:	4446                	lw	s0,80(sp)
ffffffc08020041a:	e831                	bnez	s0,ffffffc08020046e <.Lpcrel_hi29+0x18>

ffffffc08020041c <.Lpcrel_hi25>:
ffffffc08020041c:	00049517          	auipc	a0,0x49
ffffffc080200420:	c7453583          	ld	a1,-908(a0) # ffffffc080249090 <_ZN3log20MAX_LOG_LEVEL_FILTER17ha1f6027dc31f6649E.0>
ffffffc080200424:	4509                	li	a0,2
ffffffc080200426:	4421                	li	s0,8
ffffffc080200428:	04a5e363          	bltu	a1,a0,ffffffc08020046e <.Lpcrel_hi29+0x18>

ffffffc08020042c <.Lpcrel_hi26>:
ffffffc08020042c:	00004597          	auipc	a1,0x4
ffffffc080200430:	c3458593          	addi	a1,a1,-972 # ffffffc080204060 <.Lanon.fad58de7366495db4650cfefac2fcd61.3+0x28>
ffffffc080200434:	e52e                	sd	a1,136(sp)

ffffffc080200436 <.Lpcrel_hi27>:
ffffffc080200436:	00002597          	auipc	a1,0x2
ffffffc08020043a:	eb258593          	addi	a1,a1,-334 # ffffffc0802022e8 <_ZN53_$LT$axerrno..AxError$u20$as$u20$core..fmt..Debug$GT$3fmt17hf4f51e7b362d9119E>
ffffffc08020043e:	e92e                	sd	a1,144(sp)

ffffffc080200440 <.Lpcrel_hi28>:
ffffffc080200440:	00005597          	auipc	a1,0x5
ffffffc080200444:	d4858593          	addi	a1,a1,-696 # ffffffc080205188 <.Lanon.427a789f18ce83ac0f31c2f7c1e7e09c.10>
ffffffc080200448:	ecae                	sd	a1,88(sp)
ffffffc08020044a:	f0aa                	sd	a0,96(sp)
ffffffc08020044c:	fc82                	sd	zero,120(sp)
ffffffc08020044e:	0128                	addi	a0,sp,136
ffffffc080200450:	f4aa                	sd	a0,104(sp)
ffffffc080200452:	4505                	li	a0,1
ffffffc080200454:	f8aa                	sd	a0,112(sp)

ffffffc080200456 <.Lpcrel_hi29>:
ffffffc080200456:	00005517          	auipc	a0,0x5
ffffffc08020045a:	cba50613          	addi	a2,a0,-838 # ffffffc080205110 <.Lanon.427a789f18ce83ac0f31c2f7c1e7e09c.6>
ffffffc08020045e:	08a8                	addi	a0,sp,88
ffffffc080200460:	4589                	li	a1,2
ffffffc080200462:	07d00693          	li	a3,125
ffffffc080200466:	00003097          	auipc	ra,0x3
ffffffc08020046a:	31c080e7          	jalr	796(ra) # ffffffc080203782 <_ZN3log13__private_api8log_impl17h8ff5c7eb18f9ca8bE>
ffffffc08020046e:	cca2                	sw	s0,88(sp)

ffffffc080200470 <.Lpcrel_hi30>:
ffffffc080200470:	00005517          	auipc	a0,0x5
ffffffc080200474:	e4b50513          	addi	a0,a0,-437 # ffffffc0802052bb <.Lanon.427a789f18ce83ac0f31c2f7c1e7e09c.41>

ffffffc080200478 <.Lpcrel_hi31>:
ffffffc080200478:	00005597          	auipc	a1,0x5
ffffffc08020047c:	e7058613          	addi	a2,a1,-400 # ffffffc0802052e8 <.Lanon.427a789f18ce83ac0f31c2f7c1e7e09c.42>

ffffffc080200480 <.Lpcrel_hi32>:
ffffffc080200480:	00005597          	auipc	a1,0x5
ffffffc080200484:	e8858693          	addi	a3,a1,-376 # ffffffc080205308 <.Lanon.427a789f18ce83ac0f31c2f7c1e7e09c.43>
ffffffc080200488:	08ac                	addi	a1,sp,88
ffffffc08020048a:	00003097          	auipc	ra,0x3
ffffffc08020048e:	f10080e7          	jalr	-240(ra) # ffffffc08020339a <_ZN4core6result13unwrap_failed17h368883645868569cE>

ffffffc080200492 <_ZN13arceos_loader11abi_putchar17h2e012e297e6d6f3bE>:
ffffffc080200492:	7155                	addi	sp,sp,-208
ffffffc080200494:	e586                	sd	ra,200(sp)
ffffffc080200496:	e1a2                	sd	s0,192(sp)
ffffffc080200498:	fd26                	sd	s1,184(sp)
ffffffc08020049a:	f94a                	sd	s2,176(sp)
ffffffc08020049c:	c62a                	sw	a0,12(sp)

ffffffc08020049e <.Lpcrel_hi33>:
ffffffc08020049e:	00004517          	auipc	a0,0x4
ffffffc0802004a2:	b6a50513          	addi	a0,a0,-1174 # ffffffc080204008 <.Lanon.fad58de7366495db4650cfefac2fcd61.1>
ffffffc0802004a6:	f02a                	sd	a0,32(sp)
ffffffc0802004a8:	4485                	li	s1,1
ffffffc0802004aa:	f426                	sd	s1,40(sp)
ffffffc0802004ac:	e082                	sd	zero,64(sp)
ffffffc0802004ae:	4521                	li	a0,8
ffffffc0802004b0:	f82a                	sd	a0,48(sp)
ffffffc0802004b2:	fc02                	sd	zero,56(sp)
ffffffc0802004b4:	e8a6                	sd	s1,80(sp)

ffffffc0802004b6 <.Lpcrel_hi34>:
ffffffc0802004b6:	00049517          	auipc	a0,0x49
ffffffc0802004ba:	bca50413          	addi	s0,a0,-1078 # ffffffc080249080 <_ZN9axruntime11INITED_CPUS17haecfae2c245bf0eaE>
ffffffc0802004be:	eca2                	sd	s0,88(sp)
ffffffc0802004c0:	05010913          	addi	s2,sp,80
ffffffc0802004c4:	f0ca                	sd	s2,96(sp)
ffffffc0802004c6:	d482                	sw	zero,104(sp)

ffffffc0802004c8 <.Lpcrel_hi35>:
ffffffc0802004c8:	00005517          	auipc	a0,0x5
ffffffc0802004cc:	c7850593          	addi	a1,a0,-904 # ffffffc080205140 <.Lanon.427a789f18ce83ac0f31c2f7c1e7e09c.8>
ffffffc0802004d0:	1088                	addi	a0,sp,96
ffffffc0802004d2:	1010                	addi	a2,sp,32
ffffffc0802004d4:	00003097          	auipc	ra,0x3
ffffffc0802004d8:	8c2080e7          	jalr	-1854(ra) # ffffffc080202d96 <_ZN4core3fmt5write17h49a560cace6c89d2E>
ffffffc0802004dc:	e159                	bnez	a0,ffffffc080200562 <.Lpcrel_hi56+0x24>
ffffffc0802004de:	0068                	addi	a0,sp,12
ffffffc0802004e0:	e82a                	sd	a0,16(sp)

ffffffc0802004e2 <.Lpcrel_hi44>:
ffffffc0802004e2:	00003517          	auipc	a0,0x3
ffffffc0802004e6:	1cc50513          	addi	a0,a0,460 # ffffffc0802036ae <_ZN43_$LT$char$u20$as$u20$core..fmt..Display$GT$3fmt17h739ba50f92d3daeeE>
ffffffc0802004ea:	ec2a                	sd	a0,24(sp)

ffffffc0802004ec <.Lpcrel_hi45>:
ffffffc0802004ec:	00004517          	auipc	a0,0x4
ffffffc0802004f0:	ca450513          	addi	a0,a0,-860 # ffffffc080204190 <$d.102+0x10>
ffffffc0802004f4:	f02a                	sd	a0,32(sp)
ffffffc0802004f6:	f426                	sd	s1,40(sp)
ffffffc0802004f8:	e082                	sd	zero,64(sp)
ffffffc0802004fa:	0808                	addi	a0,sp,16
ffffffc0802004fc:	f82a                	sd	a0,48(sp)
ffffffc0802004fe:	fc26                	sd	s1,56(sp)
ffffffc080200500:	e8a6                	sd	s1,80(sp)
ffffffc080200502:	eca2                	sd	s0,88(sp)
ffffffc080200504:	f0ca                	sd	s2,96(sp)
ffffffc080200506:	d482                	sw	zero,104(sp)

ffffffc080200508 <.Lpcrel_hi46>:
ffffffc080200508:	00005517          	auipc	a0,0x5
ffffffc08020050c:	c3850593          	addi	a1,a0,-968 # ffffffc080205140 <.Lanon.427a789f18ce83ac0f31c2f7c1e7e09c.8>
ffffffc080200510:	1088                	addi	a0,sp,96
ffffffc080200512:	1010                	addi	a2,sp,32
ffffffc080200514:	00003097          	auipc	ra,0x3
ffffffc080200518:	882080e7          	jalr	-1918(ra) # ffffffc080202d96 <_ZN4core3fmt5write17h49a560cace6c89d2E>
ffffffc08020051c:	e161                	bnez	a0,ffffffc0802005dc <.Lpcrel_hi43+0x12>

ffffffc08020051e <.Lpcrel_hi55>:
ffffffc08020051e:	00004517          	auipc	a0,0x4
ffffffc080200522:	b6250513          	addi	a0,a0,-1182 # ffffffc080204080 <.Lanon.fad58de7366495db4650cfefac2fcd61.5>
ffffffc080200526:	f02a                	sd	a0,32(sp)
ffffffc080200528:	4505                	li	a0,1
ffffffc08020052a:	f42a                	sd	a0,40(sp)
ffffffc08020052c:	e082                	sd	zero,64(sp)
ffffffc08020052e:	45a1                	li	a1,8
ffffffc080200530:	f82e                	sd	a1,48(sp)
ffffffc080200532:	fc02                	sd	zero,56(sp)
ffffffc080200534:	e8aa                	sd	a0,80(sp)
ffffffc080200536:	eca2                	sd	s0,88(sp)
ffffffc080200538:	0888                	addi	a0,sp,80
ffffffc08020053a:	f0aa                	sd	a0,96(sp)
ffffffc08020053c:	d482                	sw	zero,104(sp)

ffffffc08020053e <.Lpcrel_hi56>:
ffffffc08020053e:	00005517          	auipc	a0,0x5
ffffffc080200542:	c0250593          	addi	a1,a0,-1022 # ffffffc080205140 <.Lanon.427a789f18ce83ac0f31c2f7c1e7e09c.8>
ffffffc080200546:	1088                	addi	a0,sp,96
ffffffc080200548:	1010                	addi	a2,sp,32
ffffffc08020054a:	00003097          	auipc	ra,0x3
ffffffc08020054e:	84c080e7          	jalr	-1972(ra) # ffffffc080202d96 <_ZN4core3fmt5write17h49a560cace6c89d2E>
ffffffc080200552:	10051263          	bnez	a0,ffffffc080200656 <.Lpcrel_hi54+0x12>
ffffffc080200556:	60ae                	ld	ra,200(sp)
ffffffc080200558:	640e                	ld	s0,192(sp)
ffffffc08020055a:	74ea                	ld	s1,184(sp)
ffffffc08020055c:	794a                	ld	s2,176(sp)
ffffffc08020055e:	6169                	addi	sp,sp,208
ffffffc080200560:	8082                	ret
ffffffc080200562:	5426                	lw	s0,104(sp)
ffffffc080200564:	e831                	bnez	s0,ffffffc0802005b8 <.Lpcrel_hi40+0x18>

ffffffc080200566 <.Lpcrel_hi36>:
ffffffc080200566:	00049517          	auipc	a0,0x49
ffffffc08020056a:	b2a53583          	ld	a1,-1238(a0) # ffffffc080249090 <_ZN3log20MAX_LOG_LEVEL_FILTER17ha1f6027dc31f6649E.0>
ffffffc08020056e:	4509                	li	a0,2
ffffffc080200570:	4421                	li	s0,8
ffffffc080200572:	04a5e363          	bltu	a1,a0,ffffffc0802005b8 <.Lpcrel_hi40+0x18>

ffffffc080200576 <.Lpcrel_hi37>:
ffffffc080200576:	00004597          	auipc	a1,0x4
ffffffc08020057a:	aea58593          	addi	a1,a1,-1302 # ffffffc080204060 <.Lanon.fad58de7366495db4650cfefac2fcd61.3+0x28>
ffffffc08020057e:	f12e                	sd	a1,160(sp)

ffffffc080200580 <.Lpcrel_hi38>:
ffffffc080200580:	00002597          	auipc	a1,0x2
ffffffc080200584:	d6858593          	addi	a1,a1,-664 # ffffffc0802022e8 <_ZN53_$LT$axerrno..AxError$u20$as$u20$core..fmt..Debug$GT$3fmt17hf4f51e7b362d9119E>
ffffffc080200588:	f52e                	sd	a1,168(sp)

ffffffc08020058a <.Lpcrel_hi39>:
ffffffc08020058a:	00005597          	auipc	a1,0x5
ffffffc08020058e:	bfe58593          	addi	a1,a1,-1026 # ffffffc080205188 <.Lanon.427a789f18ce83ac0f31c2f7c1e7e09c.10>
ffffffc080200592:	f8ae                	sd	a1,112(sp)
ffffffc080200594:	fcaa                	sd	a0,120(sp)
ffffffc080200596:	e902                	sd	zero,144(sp)
ffffffc080200598:	1108                	addi	a0,sp,160
ffffffc08020059a:	e12a                	sd	a0,128(sp)
ffffffc08020059c:	4505                	li	a0,1
ffffffc08020059e:	e52a                	sd	a0,136(sp)

ffffffc0802005a0 <.Lpcrel_hi40>:
ffffffc0802005a0:	00005517          	auipc	a0,0x5
ffffffc0802005a4:	b7050613          	addi	a2,a0,-1168 # ffffffc080205110 <.Lanon.427a789f18ce83ac0f31c2f7c1e7e09c.6>
ffffffc0802005a8:	1888                	addi	a0,sp,112
ffffffc0802005aa:	4589                	li	a1,2
ffffffc0802005ac:	07d00693          	li	a3,125
ffffffc0802005b0:	00003097          	auipc	ra,0x3
ffffffc0802005b4:	1d2080e7          	jalr	466(ra) # ffffffc080203782 <_ZN3log13__private_api8log_impl17h8ff5c7eb18f9ca8bE>
ffffffc0802005b8:	d8a2                	sw	s0,112(sp)

ffffffc0802005ba <.Lpcrel_hi41>:
ffffffc0802005ba:	00005517          	auipc	a0,0x5
ffffffc0802005be:	d0150513          	addi	a0,a0,-767 # ffffffc0802052bb <.Lanon.427a789f18ce83ac0f31c2f7c1e7e09c.41>

ffffffc0802005c2 <.Lpcrel_hi42>:
ffffffc0802005c2:	00005597          	auipc	a1,0x5
ffffffc0802005c6:	d2658613          	addi	a2,a1,-730 # ffffffc0802052e8 <.Lanon.427a789f18ce83ac0f31c2f7c1e7e09c.42>

ffffffc0802005ca <.Lpcrel_hi43>:
ffffffc0802005ca:	00005597          	auipc	a1,0x5
ffffffc0802005ce:	d3e58693          	addi	a3,a1,-706 # ffffffc080205308 <.Lanon.427a789f18ce83ac0f31c2f7c1e7e09c.43>
ffffffc0802005d2:	188c                	addi	a1,sp,112
ffffffc0802005d4:	00003097          	auipc	ra,0x3
ffffffc0802005d8:	dc6080e7          	jalr	-570(ra) # ffffffc08020339a <_ZN4core6result13unwrap_failed17h368883645868569cE>
ffffffc0802005dc:	5426                	lw	s0,104(sp)
ffffffc0802005de:	e831                	bnez	s0,ffffffc080200632 <.Lpcrel_hi51+0x18>

ffffffc0802005e0 <.Lpcrel_hi47>:
ffffffc0802005e0:	00049517          	auipc	a0,0x49
ffffffc0802005e4:	ab053583          	ld	a1,-1360(a0) # ffffffc080249090 <_ZN3log20MAX_LOG_LEVEL_FILTER17ha1f6027dc31f6649E.0>
ffffffc0802005e8:	4509                	li	a0,2
ffffffc0802005ea:	4421                	li	s0,8
ffffffc0802005ec:	04a5e363          	bltu	a1,a0,ffffffc080200632 <.Lpcrel_hi51+0x18>

ffffffc0802005f0 <.Lpcrel_hi48>:
ffffffc0802005f0:	00004597          	auipc	a1,0x4
ffffffc0802005f4:	a7058593          	addi	a1,a1,-1424 # ffffffc080204060 <.Lanon.fad58de7366495db4650cfefac2fcd61.3+0x28>
ffffffc0802005f8:	f12e                	sd	a1,160(sp)

ffffffc0802005fa <.Lpcrel_hi49>:
ffffffc0802005fa:	00002597          	auipc	a1,0x2
ffffffc0802005fe:	cee58593          	addi	a1,a1,-786 # ffffffc0802022e8 <_ZN53_$LT$axerrno..AxError$u20$as$u20$core..fmt..Debug$GT$3fmt17hf4f51e7b362d9119E>
ffffffc080200602:	f52e                	sd	a1,168(sp)

ffffffc080200604 <.Lpcrel_hi50>:
ffffffc080200604:	00005597          	auipc	a1,0x5
ffffffc080200608:	b8458593          	addi	a1,a1,-1148 # ffffffc080205188 <.Lanon.427a789f18ce83ac0f31c2f7c1e7e09c.10>
ffffffc08020060c:	f8ae                	sd	a1,112(sp)
ffffffc08020060e:	fcaa                	sd	a0,120(sp)
ffffffc080200610:	e902                	sd	zero,144(sp)
ffffffc080200612:	1108                	addi	a0,sp,160
ffffffc080200614:	e12a                	sd	a0,128(sp)
ffffffc080200616:	4505                	li	a0,1
ffffffc080200618:	e52a                	sd	a0,136(sp)

ffffffc08020061a <.Lpcrel_hi51>:
ffffffc08020061a:	00005517          	auipc	a0,0x5
ffffffc08020061e:	af650613          	addi	a2,a0,-1290 # ffffffc080205110 <.Lanon.427a789f18ce83ac0f31c2f7c1e7e09c.6>
ffffffc080200622:	1888                	addi	a0,sp,112
ffffffc080200624:	4589                	li	a1,2
ffffffc080200626:	07d00693          	li	a3,125
ffffffc08020062a:	00003097          	auipc	ra,0x3
ffffffc08020062e:	158080e7          	jalr	344(ra) # ffffffc080203782 <_ZN3log13__private_api8log_impl17h8ff5c7eb18f9ca8bE>
ffffffc080200632:	d8a2                	sw	s0,112(sp)

ffffffc080200634 <.Lpcrel_hi52>:
ffffffc080200634:	00005517          	auipc	a0,0x5
ffffffc080200638:	c8750513          	addi	a0,a0,-889 # ffffffc0802052bb <.Lanon.427a789f18ce83ac0f31c2f7c1e7e09c.41>

ffffffc08020063c <.Lpcrel_hi53>:
ffffffc08020063c:	00005597          	auipc	a1,0x5
ffffffc080200640:	cac58613          	addi	a2,a1,-852 # ffffffc0802052e8 <.Lanon.427a789f18ce83ac0f31c2f7c1e7e09c.42>

ffffffc080200644 <.Lpcrel_hi54>:
ffffffc080200644:	00005597          	auipc	a1,0x5
ffffffc080200648:	cc458693          	addi	a3,a1,-828 # ffffffc080205308 <.Lanon.427a789f18ce83ac0f31c2f7c1e7e09c.43>
ffffffc08020064c:	188c                	addi	a1,sp,112
ffffffc08020064e:	00003097          	auipc	ra,0x3
ffffffc080200652:	d4c080e7          	jalr	-692(ra) # ffffffc08020339a <_ZN4core6result13unwrap_failed17h368883645868569cE>
ffffffc080200656:	5426                	lw	s0,104(sp)
ffffffc080200658:	e831                	bnez	s0,ffffffc0802006ac <.Lpcrel_hi61+0x18>

ffffffc08020065a <.Lpcrel_hi57>:
ffffffc08020065a:	00049517          	auipc	a0,0x49
ffffffc08020065e:	a3653583          	ld	a1,-1482(a0) # ffffffc080249090 <_ZN3log20MAX_LOG_LEVEL_FILTER17ha1f6027dc31f6649E.0>
ffffffc080200662:	4509                	li	a0,2
ffffffc080200664:	4421                	li	s0,8
ffffffc080200666:	04a5e363          	bltu	a1,a0,ffffffc0802006ac <.Lpcrel_hi61+0x18>

ffffffc08020066a <.Lpcrel_hi58>:
ffffffc08020066a:	00004597          	auipc	a1,0x4
ffffffc08020066e:	9f658593          	addi	a1,a1,-1546 # ffffffc080204060 <.Lanon.fad58de7366495db4650cfefac2fcd61.3+0x28>
ffffffc080200672:	f12e                	sd	a1,160(sp)

ffffffc080200674 <.Lpcrel_hi59>:
ffffffc080200674:	00002597          	auipc	a1,0x2
ffffffc080200678:	c7458593          	addi	a1,a1,-908 # ffffffc0802022e8 <_ZN53_$LT$axerrno..AxError$u20$as$u20$core..fmt..Debug$GT$3fmt17hf4f51e7b362d9119E>
ffffffc08020067c:	f52e                	sd	a1,168(sp)

ffffffc08020067e <.Lpcrel_hi60>:
ffffffc08020067e:	00005597          	auipc	a1,0x5
ffffffc080200682:	b0a58593          	addi	a1,a1,-1270 # ffffffc080205188 <.Lanon.427a789f18ce83ac0f31c2f7c1e7e09c.10>
ffffffc080200686:	f8ae                	sd	a1,112(sp)
ffffffc080200688:	fcaa                	sd	a0,120(sp)
ffffffc08020068a:	e902                	sd	zero,144(sp)
ffffffc08020068c:	1108                	addi	a0,sp,160
ffffffc08020068e:	e12a                	sd	a0,128(sp)
ffffffc080200690:	4505                	li	a0,1
ffffffc080200692:	e52a                	sd	a0,136(sp)

ffffffc080200694 <.Lpcrel_hi61>:
ffffffc080200694:	00005517          	auipc	a0,0x5
ffffffc080200698:	a7c50613          	addi	a2,a0,-1412 # ffffffc080205110 <.Lanon.427a789f18ce83ac0f31c2f7c1e7e09c.6>
ffffffc08020069c:	1888                	addi	a0,sp,112
ffffffc08020069e:	4589                	li	a1,2
ffffffc0802006a0:	07d00693          	li	a3,125
ffffffc0802006a4:	00003097          	auipc	ra,0x3
ffffffc0802006a8:	0de080e7          	jalr	222(ra) # ffffffc080203782 <_ZN3log13__private_api8log_impl17h8ff5c7eb18f9ca8bE>
ffffffc0802006ac:	d8a2                	sw	s0,112(sp)

ffffffc0802006ae <.Lpcrel_hi62>:
ffffffc0802006ae:	00005517          	auipc	a0,0x5
ffffffc0802006b2:	c0d50513          	addi	a0,a0,-1011 # ffffffc0802052bb <.Lanon.427a789f18ce83ac0f31c2f7c1e7e09c.41>

ffffffc0802006b6 <.Lpcrel_hi63>:
ffffffc0802006b6:	00005597          	auipc	a1,0x5
ffffffc0802006ba:	c3258613          	addi	a2,a1,-974 # ffffffc0802052e8 <.Lanon.427a789f18ce83ac0f31c2f7c1e7e09c.42>

ffffffc0802006be <.Lpcrel_hi64>:
ffffffc0802006be:	00005597          	auipc	a1,0x5
ffffffc0802006c2:	c4a58693          	addi	a3,a1,-950 # ffffffc080205308 <.Lanon.427a789f18ce83ac0f31c2f7c1e7e09c.43>
ffffffc0802006c6:	188c                	addi	a1,sp,112
ffffffc0802006c8:	00003097          	auipc	ra,0x3
ffffffc0802006cc:	cd2080e7          	jalr	-814(ra) # ffffffc08020339a <_ZN4core6result13unwrap_failed17h368883645868569cE>

ffffffc0802006d0 <_ZN13arceos_loader13abi_terminate17h64a1a32e1f3967eeE>:
ffffffc0802006d0:	715d                	addi	sp,sp,-80
ffffffc0802006d2:	e486                	sd	ra,72(sp)
ffffffc0802006d4:	e0a2                	sd	s0,64(sp)
ffffffc0802006d6:	fc26                	sd	s1,56(sp)

ffffffc0802006d8 <.Lpcrel_hi65>:
ffffffc0802006d8:	00004517          	auipc	a0,0x4
ffffffc0802006dc:	93050513          	addi	a0,a0,-1744 # ffffffc080204008 <.Lanon.fad58de7366495db4650cfefac2fcd61.1>
ffffffc0802006e0:	e02a                	sd	a0,0(sp)
ffffffc0802006e2:	4405                	li	s0,1
ffffffc0802006e4:	e422                	sd	s0,8(sp)
ffffffc0802006e6:	f002                	sd	zero,32(sp)
ffffffc0802006e8:	44a1                	li	s1,8
ffffffc0802006ea:	e826                	sd	s1,16(sp)
ffffffc0802006ec:	ec02                	sd	zero,24(sp)
ffffffc0802006ee:	850a                	mv	a0,sp
ffffffc0802006f0:	00002097          	auipc	ra,0x2
ffffffc0802006f4:	b46080e7          	jalr	-1210(ra) # ffffffc080202236 <_ZN5axstd2io5stdio12__print_impl17h3241dcc74a39d932E>

ffffffc0802006f8 <.Lpcrel_hi66>:
ffffffc0802006f8:	00004517          	auipc	a0,0x4
ffffffc0802006fc:	99850513          	addi	a0,a0,-1640 # ffffffc080204090 <.Lanon.fad58de7366495db4650cfefac2fcd61.8>
ffffffc080200700:	e02a                	sd	a0,0(sp)
ffffffc080200702:	e422                	sd	s0,8(sp)
ffffffc080200704:	f002                	sd	zero,32(sp)
ffffffc080200706:	1808                	addi	a0,sp,48
ffffffc080200708:	e82a                	sd	a0,16(sp)
ffffffc08020070a:	ec02                	sd	zero,24(sp)
ffffffc08020070c:	850a                	mv	a0,sp
ffffffc08020070e:	00002097          	auipc	ra,0x2
ffffffc080200712:	b28080e7          	jalr	-1240(ra) # ffffffc080202236 <_ZN5axstd2io5stdio12__print_impl17h3241dcc74a39d932E>

ffffffc080200716 <.Lpcrel_hi67>:
ffffffc080200716:	00004517          	auipc	a0,0x4
ffffffc08020071a:	96a50513          	addi	a0,a0,-1686 # ffffffc080204080 <.Lanon.fad58de7366495db4650cfefac2fcd61.5>
ffffffc08020071e:	e02a                	sd	a0,0(sp)
ffffffc080200720:	e422                	sd	s0,8(sp)
ffffffc080200722:	f002                	sd	zero,32(sp)
ffffffc080200724:	e826                	sd	s1,16(sp)
ffffffc080200726:	ec02                	sd	zero,24(sp)
ffffffc080200728:	850a                	mv	a0,sp
ffffffc08020072a:	00002097          	auipc	ra,0x2
ffffffc08020072e:	b0c080e7          	jalr	-1268(ra) # ffffffc080202236 <_ZN5axstd2io5stdio12__print_impl17h3241dcc74a39d932E>
ffffffc080200732:	00002097          	auipc	ra,0x2
ffffffc080200736:	ce8080e7          	jalr	-792(ra) # ffffffc08020241a <_ZN5axstd7process4exit17h785defe412e46c7fE>

ffffffc08020073a <main>:
ffffffc08020073a:	7109                	addi	sp,sp,-384
ffffffc08020073c:	fe86                	sd	ra,376(sp)
ffffffc08020073e:	faa2                	sd	s0,368(sp)
ffffffc080200740:	f6a6                	sd	s1,360(sp)
ffffffc080200742:	f2ca                	sd	s2,352(sp)
ffffffc080200744:	eece                	sd	s3,344(sp)
ffffffc080200746:	ead2                	sd	s4,336(sp)
ffffffc080200748:	e6d6                	sd	s5,328(sp)
ffffffc08020074a:	e2da                	sd	s6,320(sp)
ffffffc08020074c:	fe5e                	sd	s7,312(sp)
ffffffc08020074e:	fa62                	sd	s8,304(sp)
ffffffc080200750:	f666                	sd	s9,296(sp)
ffffffc080200752:	f26a                	sd	s10,288(sp)
ffffffc080200754:	ee6e                	sd	s11,280(sp)

ffffffc080200756 <.Lpcrel_hi68>:
ffffffc080200756:	00049517          	auipc	a0,0x49
ffffffc08020075a:	8aa50513          	addi	a0,a0,-1878 # ffffffc080249000 <_ZN13arceos_loader9ABI_TABLE17h557f92d75859fc23E>

ffffffc08020075e <.Lpcrel_hi69>:
ffffffc08020075e:	00000597          	auipc	a1,0x0
ffffffc080200762:	b0658593          	addi	a1,a1,-1274 # ffffffc080200264 <_ZN13arceos_loader9abi_hello17hb2b6cf35f220a777E>
ffffffc080200766:	e50c                	sd	a1,8(a0)

ffffffc080200768 <.Lpcrel_hi70>:
ffffffc080200768:	00000597          	auipc	a1,0x0
ffffffc08020076c:	d2a58593          	addi	a1,a1,-726 # ffffffc080200492 <_ZN13arceos_loader11abi_putchar17h2e012e297e6d6f3bE>
ffffffc080200770:	e90c                	sd	a1,16(a0)

ffffffc080200772 <.Lpcrel_hi71>:
ffffffc080200772:	00000597          	auipc	a1,0x0
ffffffc080200776:	f5e58593          	addi	a1,a1,-162 # ffffffc0802006d0 <_ZN13arceos_loader13abi_terminate17h64a1a32e1f3967eeE>
ffffffc08020077a:	ed0c                	sd	a1,24(a0)

ffffffc08020077c <.Lpcrel_hi72>:
ffffffc08020077c:	00004517          	auipc	a0,0x4
ffffffc080200780:	93c50513          	addi	a0,a0,-1732 # ffffffc0802040b8 <.Lanon.fad58de7366495db4650cfefac2fcd61.10>
ffffffc080200784:	e1aa                	sd	a0,192(sp)
ffffffc080200786:	4a05                	li	s4,1
ffffffc080200788:	e5d2                	sd	s4,200(sp)
ffffffc08020078a:	f182                	sd	zero,224(sp)
ffffffc08020078c:	11010a93          	addi	s5,sp,272
ffffffc080200790:	e9d6                	sd	s5,208(sp)
ffffffc080200792:	ed82                	sd	zero,216(sp)
ffffffc080200794:	f9d2                	sd	s4,240(sp)

ffffffc080200796 <.Lpcrel_hi73>:
ffffffc080200796:	00049517          	auipc	a0,0x49
ffffffc08020079a:	8ea50993          	addi	s3,a0,-1814 # ffffffc080249080 <_ZN9axruntime11INITED_CPUS17haecfae2c245bf0eaE>
ffffffc08020079e:	fdce                	sd	s3,248(sp)
ffffffc0802007a0:	0f010b13          	addi	s6,sp,240
ffffffc0802007a4:	e25a                	sd	s6,256(sp)
ffffffc0802007a6:	10012423          	sw	zero,264(sp)

ffffffc0802007aa <.Lpcrel_hi74>:
ffffffc0802007aa:	00005517          	auipc	a0,0x5
ffffffc0802007ae:	99650593          	addi	a1,a0,-1642 # ffffffc080205140 <.Lanon.427a789f18ce83ac0f31c2f7c1e7e09c.8>
ffffffc0802007b2:	0208                	addi	a0,sp,256
ffffffc0802007b4:	0190                	addi	a2,sp,192
ffffffc0802007b6:	00002097          	auipc	ra,0x2
ffffffc0802007ba:	5e0080e7          	jalr	1504(ra) # ffffffc080202d96 <_ZN4core3fmt5write17h49a560cace6c89d2E>
ffffffc0802007be:	42051c63          	bnez	a0,ffffffc080200bf6 <.Lpcrel_hi113+0x12>
ffffffc0802007c2:	fe011cb7          	lui	s9,0xfe011
ffffffc0802007c6:	0cb6                	slli	s9,s9,0xd

ffffffc0802007c8 <.Lpcrel_hi83>:
ffffffc0802007c8:	00004517          	auipc	a0,0x4
ffffffc0802007cc:	91850513          	addi	a0,a0,-1768 # ffffffc0802040e0 <.Lanon.fad58de7366495db4650cfefac2fcd61.12>
ffffffc0802007d0:	ec2a                	sd	a0,24(sp)

ffffffc0802007d2 <.Lpcrel_hi84>:
ffffffc0802007d2:	00005517          	auipc	a0,0x5
ffffffc0802007d6:	96e50413          	addi	s0,a0,-1682 # ffffffc080205140 <.Lanon.427a789f18ce83ac0f31c2f7c1e7e09c.8>
ffffffc0802007da:	12345537          	lui	a0,0x12345
ffffffc0802007de:	6785051b          	addiw	a0,a0,1656
ffffffc0802007e2:	02051593          	slli	a1,a0,0x20
ffffffc0802007e6:	952e                	add	a0,a0,a1
ffffffc0802007e8:	e82a                	sd	a0,16(sp)

ffffffc0802007ea <.Lpcrel_hi85>:
ffffffc0802007ea:	00000517          	auipc	a0,0x0
ffffffc0802007ee:	9c050d13          	addi	s10,a0,-1600 # ffffffc0802001aa <_ZN52_$LT$$BP$const$u20$T$u20$as$u20$core..fmt..Debug$GT$3fmt17ha9231409144b8643E>

ffffffc0802007f2 <.Lpcrel_hi86>:
ffffffc0802007f2:	00002517          	auipc	a0,0x2
ffffffc0802007f6:	ca250513          	addi	a0,a0,-862 # ffffffc080202494 <_ZN4core3fmt3num3imp52_$LT$impl$u20$core..fmt..Display$u20$for$u20$u64$GT$3fmt17hca01a1912e792145E>
ffffffc0802007fa:	e42a                	sd	a0,8(sp)

ffffffc0802007fc <.Lpcrel_hi87>:
ffffffc0802007fc:	00004517          	auipc	a0,0x4
ffffffc080200800:	91450d93          	addi	s11,a0,-1772 # ffffffc080204110 <.Lanon.fad58de7366495db4650cfefac2fcd61.18>
ffffffc080200804:	c0801937          	lui	s2,0xc0801
ffffffc080200808:	0922                	slli	s2,s2,0x8

ffffffc08020080a <.Lpcrel_hi88>:
ffffffc08020080a:	00004517          	auipc	a0,0x4
ffffffc08020080e:	9c650b93          	addi	s7,a0,-1594 # ffffffc0802041d0 <.Lanon.fad58de7366495db4650cfefac2fcd61.20>

ffffffc080200812 <.Lpcrel_hi89>:
ffffffc080200812:	00004517          	auipc	a0,0x4
ffffffc080200816:	9e650c13          	addi	s8,a0,-1562 # ffffffc0802041f8 <.Lanon.fad58de7366495db4650cfefac2fcd61.22>
ffffffc08020081a:	6562                	ld	a0,24(sp)
ffffffc08020081c:	e1aa                	sd	a0,192(sp)
ffffffc08020081e:	e5d2                	sd	s4,200(sp)
ffffffc080200820:	f182                	sd	zero,224(sp)
ffffffc080200822:	e9d6                	sd	s5,208(sp)
ffffffc080200824:	ed82                	sd	zero,216(sp)
ffffffc080200826:	f9d2                	sd	s4,240(sp)
ffffffc080200828:	fdce                	sd	s3,248(sp)
ffffffc08020082a:	e25a                	sd	s6,256(sp)
ffffffc08020082c:	10012423          	sw	zero,264(sp)
ffffffc080200830:	0208                	addi	a0,sp,256
ffffffc080200832:	0190                	addi	a2,sp,192
ffffffc080200834:	85a2                	mv	a1,s0
ffffffc080200836:	00002097          	auipc	ra,0x2
ffffffc08020083a:	560080e7          	jalr	1376(ra) # ffffffc080202d96 <_ZN4core3fmt5write17h49a560cace6c89d2E>
ffffffc08020083e:	1c051563          	bnez	a0,ffffffc080200a08 <.Lpcrel_hi401+0x38>
ffffffc080200842:	f066                	sd	s9,32(sp)
ffffffc080200844:	000cb503          	ld	a0,0(s9) # fffffffffe011000 <_ebss+0x3f7ddc7000>
ffffffc080200848:	65c2                	ld	a1,16(sp)
ffffffc08020084a:	10b51963          	bne	a0,a1,ffffffc08020095c <.Lpcrel_hi122>
ffffffc08020084e:	008cb503          	ld	a0,8(s9)
ffffffc080200852:	010cb483          	ld	s1,16(s9)
ffffffc080200856:	0ce1                	addi	s9,s9,24
ffffffc080200858:	f466                	sd	s9,40(sp)
ffffffc08020085a:	f82a                	sd	a0,48(sp)
ffffffc08020085c:	f526                	sd	s1,168(sp)
ffffffc08020085e:	1008                	addi	a0,sp,32
ffffffc080200860:	f4aa                	sd	a0,104(sp)
ffffffc080200862:	f8ea                	sd	s10,112(sp)
ffffffc080200864:	1028                	addi	a0,sp,40
ffffffc080200866:	fcaa                	sd	a0,120(sp)
ffffffc080200868:	e16a                	sd	s10,128(sp)
ffffffc08020086a:	1128                	addi	a0,sp,168
ffffffc08020086c:	e52a                	sd	a0,136(sp)
ffffffc08020086e:	e96a                	sd	s10,144(sp)
ffffffc080200870:	1808                	addi	a0,sp,48
ffffffc080200872:	ed2a                	sd	a0,152(sp)
ffffffc080200874:	6522                	ld	a0,8(sp)
ffffffc080200876:	f12a                	sd	a0,160(sp)
ffffffc080200878:	fc6e                	sd	s11,56(sp)
ffffffc08020087a:	4515                	li	a0,5
ffffffc08020087c:	e0aa                	sd	a0,64(sp)
ffffffc08020087e:	ec82                	sd	zero,88(sp)
ffffffc080200880:	10a8                	addi	a0,sp,104
ffffffc080200882:	e4aa                	sd	a0,72(sp)
ffffffc080200884:	4511                	li	a0,4
ffffffc080200886:	e8aa                	sd	a0,80(sp)
ffffffc080200888:	f952                	sd	s4,176(sp)
ffffffc08020088a:	fd4e                	sd	s3,184(sp)
ffffffc08020088c:	1908                	addi	a0,sp,176
ffffffc08020088e:	f9aa                	sd	a0,240(sp)
ffffffc080200890:	dd82                	sw	zero,248(sp)
ffffffc080200892:	1988                	addi	a0,sp,240
ffffffc080200894:	1830                	addi	a2,sp,56
ffffffc080200896:	85a2                	mv	a1,s0
ffffffc080200898:	00002097          	auipc	ra,0x2
ffffffc08020089c:	4fe080e7          	jalr	1278(ra) # ffffffc080202d96 <_ZN4core3fmt5write17h49a560cace6c89d2E>
ffffffc0802008a0:	26051063          	bnez	a0,ffffffc080200b00 <.Lpcrel_hi121+0x12>
ffffffc0802008a4:	75a2                	ld	a1,40(sp)
ffffffc0802008a6:	7642                	ld	a2,48(sp)
ffffffc0802008a8:	854a                	mv	a0,s2
ffffffc0802008aa:	00003097          	auipc	ra,0x3
ffffffc0802008ae:	276080e7          	jalr	630(ra) # ffffffc080203b20 <memcpy>
ffffffc0802008b2:	e1de                	sd	s7,192(sp)
ffffffc0802008b4:	e5d2                	sd	s4,200(sp)
ffffffc0802008b6:	f182                	sd	zero,224(sp)
ffffffc0802008b8:	e9d6                	sd	s5,208(sp)
ffffffc0802008ba:	ed82                	sd	zero,216(sp)
ffffffc0802008bc:	f9d2                	sd	s4,240(sp)
ffffffc0802008be:	fdce                	sd	s3,248(sp)
ffffffc0802008c0:	e25a                	sd	s6,256(sp)
ffffffc0802008c2:	10012423          	sw	zero,264(sp)
ffffffc0802008c6:	0208                	addi	a0,sp,256
ffffffc0802008c8:	0190                	addi	a2,sp,192
ffffffc0802008ca:	85a2                	mv	a1,s0
ffffffc0802008cc:	00002097          	auipc	ra,0x2
ffffffc0802008d0:	4ca080e7          	jalr	1226(ra) # ffffffc080202d96 <_ZN4core3fmt5write17h49a560cace6c89d2E>
ffffffc0802008d4:	2a051363          	bnez	a0,ffffffc080200b7a <.Lpcrel_hi105+0x12>
ffffffc0802008d8:	83a6                	mv	t2,s1

ffffffc0802008da <.Lpcrel_hi400>:
ffffffc0802008da:	00048897          	auipc	a7,0x48
ffffffc0802008de:	72688893          	addi	a7,a7,1830 # ffffffc080249000 <_ZN13arceos_loader9ABI_TABLE17h557f92d75859fc23E>
ffffffc0802008e2:	7119                	addi	sp,sp,-128
ffffffc0802008e4:	e006                	sd	ra,0(sp)
ffffffc0802008e6:	e446                	sd	a7,8(sp)
ffffffc0802008e8:	e842                	sd	a6,16(sp)
ffffffc0802008ea:	ec3e                	sd	a5,24(sp)
ffffffc0802008ec:	f03a                	sd	a4,32(sp)
ffffffc0802008ee:	f436                	sd	a3,40(sp)
ffffffc0802008f0:	f832                	sd	a2,48(sp)
ffffffc0802008f2:	fc2e                	sd	a1,56(sp)
ffffffc0802008f4:	e0aa                	sd	a0,64(sp)
ffffffc0802008f6:	e4fe                	sd	t6,72(sp)
ffffffc0802008f8:	e8fa                	sd	t5,80(sp)
ffffffc0802008fa:	07d13123          	sd	t4,98(sp)
ffffffc0802008fe:	f4f2                	sd	t3,104(sp)
ffffffc080200900:	f89e                	sd	t2,112(sp)
ffffffc080200902:	06643c23          	sd	t1,120(s0)
ffffffc080200906:	e116                	sd	t0,128(sp)
ffffffc080200908:	9382                	jalr	t2
ffffffc08020090a:	6082                	ld	ra,0(sp)
ffffffc08020090c:	68a2                	ld	a7,8(sp)
ffffffc08020090e:	6842                	ld	a6,16(sp)
ffffffc080200910:	67e2                	ld	a5,24(sp)
ffffffc080200912:	7702                	ld	a4,32(sp)
ffffffc080200914:	76a2                	ld	a3,40(sp)
ffffffc080200916:	7642                	ld	a2,48(sp)
ffffffc080200918:	75e2                	ld	a1,56(sp)
ffffffc08020091a:	6506                	ld	a0,64(sp)
ffffffc08020091c:	6fa6                	ld	t6,72(sp)
ffffffc08020091e:	6f46                	ld	t5,80(sp)
ffffffc080200920:	06213e83          	ld	t4,98(sp)
ffffffc080200924:	7e26                	ld	t3,104(sp)
ffffffc080200926:	73c6                	ld	t2,112(sp)
ffffffc080200928:	07843303          	ld	t1,120(s0)
ffffffc08020092c:	628a                	ld	t0,128(sp)
ffffffc08020092e:	6109                	addi	sp,sp,128
ffffffc080200930:	74c2                	ld	s1,48(sp)
ffffffc080200932:	e1e2                	sd	s8,192(sp)
ffffffc080200934:	e5d2                	sd	s4,200(sp)
ffffffc080200936:	f182                	sd	zero,224(sp)
ffffffc080200938:	e9d6                	sd	s5,208(sp)
ffffffc08020093a:	ed82                	sd	zero,216(sp)
ffffffc08020093c:	f9d2                	sd	s4,240(sp)
ffffffc08020093e:	fdce                	sd	s3,248(sp)
ffffffc080200940:	e25a                	sd	s6,256(sp)
ffffffc080200942:	10012423          	sw	zero,264(sp)
ffffffc080200946:	0208                	addi	a0,sp,256
ffffffc080200948:	0190                	addi	a2,sp,192
ffffffc08020094a:	85a2                	mv	a1,s0
ffffffc08020094c:	00002097          	auipc	ra,0x2
ffffffc080200950:	44a080e7          	jalr	1098(ra) # ffffffc080202d96 <_ZN4core3fmt5write17h49a560cace6c89d2E>
ffffffc080200954:	12051863          	bnez	a0,ffffffc080200a84 <.Lpcrel_hi97+0x12>
ffffffc080200958:	9ca6                	add	s9,s9,s1
ffffffc08020095a:	b5c1                	j	ffffffc08020081a <.Lpcrel_hi89+0x8>

ffffffc08020095c <.Lpcrel_hi122>:
ffffffc08020095c:	00004517          	auipc	a0,0x4
ffffffc080200960:	8cc50513          	addi	a0,a0,-1844 # ffffffc080204228 <.Lanon.fad58de7366495db4650cfefac2fcd61.24>
ffffffc080200964:	e1aa                	sd	a0,192(sp)
ffffffc080200966:	4405                	li	s0,1
ffffffc080200968:	e5a2                	sd	s0,200(sp)
ffffffc08020096a:	f182                	sd	zero,224(sp)
ffffffc08020096c:	11010913          	addi	s2,sp,272
ffffffc080200970:	e9ca                	sd	s2,208(sp)
ffffffc080200972:	ed82                	sd	zero,216(sp)
ffffffc080200974:	f9a2                	sd	s0,240(sp)
ffffffc080200976:	fdce                	sd	s3,248(sp)
ffffffc080200978:	1984                	addi	s1,sp,240
ffffffc08020097a:	e226                	sd	s1,256(sp)
ffffffc08020097c:	10012423          	sw	zero,264(sp)

ffffffc080200980 <.Lpcrel_hi123>:
ffffffc080200980:	00004517          	auipc	a0,0x4
ffffffc080200984:	7c050593          	addi	a1,a0,1984 # ffffffc080205140 <.Lanon.427a789f18ce83ac0f31c2f7c1e7e09c.8>
ffffffc080200988:	0208                	addi	a0,sp,256
ffffffc08020098a:	0190                	addi	a2,sp,192
ffffffc08020098c:	00002097          	auipc	ra,0x2
ffffffc080200990:	40a080e7          	jalr	1034(ra) # ffffffc080202d96 <_ZN4core3fmt5write17h49a560cace6c89d2E>
ffffffc080200994:	2c051f63          	bnez	a0,ffffffc080200c72 <.Lpcrel_hi82+0x12>

ffffffc080200998 <.Lpcrel_hi132>:
ffffffc080200998:	00004517          	auipc	a0,0x4
ffffffc08020099c:	8b850513          	addi	a0,a0,-1864 # ffffffc080204250 <.Lanon.fad58de7366495db4650cfefac2fcd61.26>
ffffffc0802009a0:	e1aa                	sd	a0,192(sp)
ffffffc0802009a2:	e5a2                	sd	s0,200(sp)
ffffffc0802009a4:	f182                	sd	zero,224(sp)
ffffffc0802009a6:	e9ca                	sd	s2,208(sp)
ffffffc0802009a8:	ed82                	sd	zero,216(sp)
ffffffc0802009aa:	f9a2                	sd	s0,240(sp)
ffffffc0802009ac:	fdce                	sd	s3,248(sp)
ffffffc0802009ae:	e226                	sd	s1,256(sp)
ffffffc0802009b0:	10012423          	sw	zero,264(sp)

ffffffc0802009b4 <.Lpcrel_hi133>:
ffffffc0802009b4:	00004517          	auipc	a0,0x4
ffffffc0802009b8:	78c50593          	addi	a1,a0,1932 # ffffffc080205140 <.Lanon.427a789f18ce83ac0f31c2f7c1e7e09c.8>
ffffffc0802009bc:	0208                	addi	a0,sp,256
ffffffc0802009be:	0190                	addi	a2,sp,192
ffffffc0802009c0:	00002097          	auipc	ra,0x2
ffffffc0802009c4:	3d6080e7          	jalr	982(ra) # ffffffc080202d96 <_ZN4core3fmt5write17h49a560cace6c89d2E>
ffffffc0802009c8:	32051363          	bnez	a0,ffffffc080200cee <.Lpcrel_hi131+0x12>
ffffffc0802009cc:	428d                	li	t0,3
ffffffc0802009ce:	028e                	slli	t0,t0,0x3

ffffffc0802009d0 <.Lpcrel_hi401>:
ffffffc0802009d0:	00048317          	auipc	t1,0x48
ffffffc0802009d4:	63030313          	addi	t1,t1,1584 # ffffffc080249000 <_ZN13arceos_loader9ABI_TABLE17h557f92d75859fc23E>
ffffffc0802009d8:	9316                	add	t1,t1,t0
ffffffc0802009da:	00033303          	ld	t1,0(t1)
ffffffc0802009de:	9302                	jalr	t1
ffffffc0802009e0:	c08013b7          	lui	t2,0xc0801
ffffffc0802009e4:	03a2                	slli	t2,t2,0x8
ffffffc0802009e6:	9382                	jalr	t2
ffffffc0802009e8:	a001                	j	ffffffc0802009e8 <.Lpcrel_hi401+0x18>
ffffffc0802009ea:	70f6                	ld	ra,376(sp)
ffffffc0802009ec:	7456                	ld	s0,368(sp)
ffffffc0802009ee:	74b6                	ld	s1,360(sp)
ffffffc0802009f0:	7916                	ld	s2,352(sp)
ffffffc0802009f2:	69f6                	ld	s3,344(sp)
ffffffc0802009f4:	6a56                	ld	s4,336(sp)
ffffffc0802009f6:	6ab6                	ld	s5,328(sp)
ffffffc0802009f8:	6b16                	ld	s6,320(sp)
ffffffc0802009fa:	7bf2                	ld	s7,312(sp)
ffffffc0802009fc:	7c52                	ld	s8,304(sp)
ffffffc0802009fe:	7cb2                	ld	s9,296(sp)
ffffffc080200a00:	7d12                	ld	s10,288(sp)
ffffffc080200a02:	6df2                	ld	s11,280(sp)
ffffffc080200a04:	6119                	addi	sp,sp,384
ffffffc080200a06:	8082                	ret
ffffffc080200a08:	10812403          	lw	s0,264(sp)
ffffffc080200a0c:	e831                	bnez	s0,ffffffc080200a60 <.Lpcrel_hi94+0x18>

ffffffc080200a0e <.Lpcrel_hi90>:
ffffffc080200a0e:	00048517          	auipc	a0,0x48
ffffffc080200a12:	68253583          	ld	a1,1666(a0) # ffffffc080249090 <_ZN3log20MAX_LOG_LEVEL_FILTER17ha1f6027dc31f6649E.0>
ffffffc080200a16:	4509                	li	a0,2
ffffffc080200a18:	4421                	li	s0,8
ffffffc080200a1a:	04a5e363          	bltu	a1,a0,ffffffc080200a60 <.Lpcrel_hi94+0x18>

ffffffc080200a1e <.Lpcrel_hi91>:
ffffffc080200a1e:	00003597          	auipc	a1,0x3
ffffffc080200a22:	64258593          	addi	a1,a1,1602 # ffffffc080204060 <.Lanon.fad58de7366495db4650cfefac2fcd61.3+0x28>
ffffffc080200a26:	fc2e                	sd	a1,56(sp)

ffffffc080200a28 <.Lpcrel_hi92>:
ffffffc080200a28:	00002597          	auipc	a1,0x2
ffffffc080200a2c:	8c058593          	addi	a1,a1,-1856 # ffffffc0802022e8 <_ZN53_$LT$axerrno..AxError$u20$as$u20$core..fmt..Debug$GT$3fmt17hf4f51e7b362d9119E>
ffffffc080200a30:	e0ae                	sd	a1,64(sp)

ffffffc080200a32 <.Lpcrel_hi93>:
ffffffc080200a32:	00004597          	auipc	a1,0x4
ffffffc080200a36:	75658593          	addi	a1,a1,1878 # ffffffc080205188 <.Lanon.427a789f18ce83ac0f31c2f7c1e7e09c.10>
ffffffc080200a3a:	f4ae                	sd	a1,104(sp)
ffffffc080200a3c:	f8aa                	sd	a0,112(sp)
ffffffc080200a3e:	e502                	sd	zero,136(sp)
ffffffc080200a40:	1828                	addi	a0,sp,56
ffffffc080200a42:	fcaa                	sd	a0,120(sp)
ffffffc080200a44:	4505                	li	a0,1
ffffffc080200a46:	e12a                	sd	a0,128(sp)

ffffffc080200a48 <.Lpcrel_hi94>:
ffffffc080200a48:	00004517          	auipc	a0,0x4
ffffffc080200a4c:	6c850613          	addi	a2,a0,1736 # ffffffc080205110 <.Lanon.427a789f18ce83ac0f31c2f7c1e7e09c.6>
ffffffc080200a50:	10a8                	addi	a0,sp,104
ffffffc080200a52:	4589                	li	a1,2
ffffffc080200a54:	07d00693          	li	a3,125
ffffffc080200a58:	00003097          	auipc	ra,0x3
ffffffc080200a5c:	d2a080e7          	jalr	-726(ra) # ffffffc080203782 <_ZN3log13__private_api8log_impl17h8ff5c7eb18f9ca8bE>
ffffffc080200a60:	d4a2                	sw	s0,104(sp)

ffffffc080200a62 <.Lpcrel_hi95>:
ffffffc080200a62:	00005517          	auipc	a0,0x5
ffffffc080200a66:	85950513          	addi	a0,a0,-1959 # ffffffc0802052bb <.Lanon.427a789f18ce83ac0f31c2f7c1e7e09c.41>

ffffffc080200a6a <.Lpcrel_hi96>:
ffffffc080200a6a:	00005597          	auipc	a1,0x5
ffffffc080200a6e:	87e58613          	addi	a2,a1,-1922 # ffffffc0802052e8 <.Lanon.427a789f18ce83ac0f31c2f7c1e7e09c.42>

ffffffc080200a72 <.Lpcrel_hi97>:
ffffffc080200a72:	00005597          	auipc	a1,0x5
ffffffc080200a76:	89658693          	addi	a3,a1,-1898 # ffffffc080205308 <.Lanon.427a789f18ce83ac0f31c2f7c1e7e09c.43>
ffffffc080200a7a:	10ac                	addi	a1,sp,104
ffffffc080200a7c:	00003097          	auipc	ra,0x3
ffffffc080200a80:	91e080e7          	jalr	-1762(ra) # ffffffc08020339a <_ZN4core6result13unwrap_failed17h368883645868569cE>
ffffffc080200a84:	10812403          	lw	s0,264(sp)
ffffffc080200a88:	e831                	bnez	s0,ffffffc080200adc <.Lpcrel_hi118+0x18>

ffffffc080200a8a <.Lpcrel_hi114>:
ffffffc080200a8a:	00048517          	auipc	a0,0x48
ffffffc080200a8e:	60653583          	ld	a1,1542(a0) # ffffffc080249090 <_ZN3log20MAX_LOG_LEVEL_FILTER17ha1f6027dc31f6649E.0>
ffffffc080200a92:	4509                	li	a0,2
ffffffc080200a94:	4421                	li	s0,8
ffffffc080200a96:	04a5e363          	bltu	a1,a0,ffffffc080200adc <.Lpcrel_hi118+0x18>

ffffffc080200a9a <.Lpcrel_hi115>:
ffffffc080200a9a:	00003597          	auipc	a1,0x3
ffffffc080200a9e:	5c658593          	addi	a1,a1,1478 # ffffffc080204060 <.Lanon.fad58de7366495db4650cfefac2fcd61.3+0x28>
ffffffc080200aa2:	fc2e                	sd	a1,56(sp)

ffffffc080200aa4 <.Lpcrel_hi116>:
ffffffc080200aa4:	00002597          	auipc	a1,0x2
ffffffc080200aa8:	84458593          	addi	a1,a1,-1980 # ffffffc0802022e8 <_ZN53_$LT$axerrno..AxError$u20$as$u20$core..fmt..Debug$GT$3fmt17hf4f51e7b362d9119E>
ffffffc080200aac:	e0ae                	sd	a1,64(sp)

ffffffc080200aae <.Lpcrel_hi117>:
ffffffc080200aae:	00004597          	auipc	a1,0x4
ffffffc080200ab2:	6da58593          	addi	a1,a1,1754 # ffffffc080205188 <.Lanon.427a789f18ce83ac0f31c2f7c1e7e09c.10>
ffffffc080200ab6:	f4ae                	sd	a1,104(sp)
ffffffc080200ab8:	f8aa                	sd	a0,112(sp)
ffffffc080200aba:	e502                	sd	zero,136(sp)
ffffffc080200abc:	1828                	addi	a0,sp,56
ffffffc080200abe:	fcaa                	sd	a0,120(sp)
ffffffc080200ac0:	4505                	li	a0,1
ffffffc080200ac2:	e12a                	sd	a0,128(sp)

ffffffc080200ac4 <.Lpcrel_hi118>:
ffffffc080200ac4:	00004517          	auipc	a0,0x4
ffffffc080200ac8:	64c50613          	addi	a2,a0,1612 # ffffffc080205110 <.Lanon.427a789f18ce83ac0f31c2f7c1e7e09c.6>
ffffffc080200acc:	10a8                	addi	a0,sp,104
ffffffc080200ace:	4589                	li	a1,2
ffffffc080200ad0:	07d00693          	li	a3,125
ffffffc080200ad4:	00003097          	auipc	ra,0x3
ffffffc080200ad8:	cae080e7          	jalr	-850(ra) # ffffffc080203782 <_ZN3log13__private_api8log_impl17h8ff5c7eb18f9ca8bE>
ffffffc080200adc:	d4a2                	sw	s0,104(sp)

ffffffc080200ade <.Lpcrel_hi119>:
ffffffc080200ade:	00004517          	auipc	a0,0x4
ffffffc080200ae2:	7dd50513          	addi	a0,a0,2013 # ffffffc0802052bb <.Lanon.427a789f18ce83ac0f31c2f7c1e7e09c.41>

ffffffc080200ae6 <.Lpcrel_hi120>:
ffffffc080200ae6:	00005597          	auipc	a1,0x5
ffffffc080200aea:	80258613          	addi	a2,a1,-2046 # ffffffc0802052e8 <.Lanon.427a789f18ce83ac0f31c2f7c1e7e09c.42>

ffffffc080200aee <.Lpcrel_hi121>:
ffffffc080200aee:	00005597          	auipc	a1,0x5
ffffffc080200af2:	81a58693          	addi	a3,a1,-2022 # ffffffc080205308 <.Lanon.427a789f18ce83ac0f31c2f7c1e7e09c.43>
ffffffc080200af6:	10ac                	addi	a1,sp,104
ffffffc080200af8:	00003097          	auipc	ra,0x3
ffffffc080200afc:	8a2080e7          	jalr	-1886(ra) # ffffffc08020339a <_ZN4core6result13unwrap_failed17h368883645868569cE>
ffffffc080200b00:	546e                	lw	s0,248(sp)
ffffffc080200b02:	e831                	bnez	s0,ffffffc080200b56 <.Lpcrel_hi102+0x18>

ffffffc080200b04 <.Lpcrel_hi98>:
ffffffc080200b04:	00048517          	auipc	a0,0x48
ffffffc080200b08:	58c53583          	ld	a1,1420(a0) # ffffffc080249090 <_ZN3log20MAX_LOG_LEVEL_FILTER17ha1f6027dc31f6649E.0>
ffffffc080200b0c:	4509                	li	a0,2
ffffffc080200b0e:	4421                	li	s0,8
ffffffc080200b10:	04a5e363          	bltu	a1,a0,ffffffc080200b56 <.Lpcrel_hi102+0x18>

ffffffc080200b14 <.Lpcrel_hi99>:
ffffffc080200b14:	00003597          	auipc	a1,0x3
ffffffc080200b18:	54c58593          	addi	a1,a1,1356 # ffffffc080204060 <.Lanon.fad58de7366495db4650cfefac2fcd61.3+0x28>
ffffffc080200b1c:	e22e                	sd	a1,256(sp)

ffffffc080200b1e <.Lpcrel_hi100>:
ffffffc080200b1e:	00001597          	auipc	a1,0x1
ffffffc080200b22:	7ca58593          	addi	a1,a1,1994 # ffffffc0802022e8 <_ZN53_$LT$axerrno..AxError$u20$as$u20$core..fmt..Debug$GT$3fmt17hf4f51e7b362d9119E>
ffffffc080200b26:	e62e                	sd	a1,264(sp)

ffffffc080200b28 <.Lpcrel_hi101>:
ffffffc080200b28:	00004597          	auipc	a1,0x4
ffffffc080200b2c:	66058593          	addi	a1,a1,1632 # ffffffc080205188 <.Lanon.427a789f18ce83ac0f31c2f7c1e7e09c.10>
ffffffc080200b30:	e1ae                	sd	a1,192(sp)
ffffffc080200b32:	e5aa                	sd	a0,200(sp)
ffffffc080200b34:	f182                	sd	zero,224(sp)
ffffffc080200b36:	0208                	addi	a0,sp,256
ffffffc080200b38:	e9aa                	sd	a0,208(sp)
ffffffc080200b3a:	4505                	li	a0,1
ffffffc080200b3c:	edaa                	sd	a0,216(sp)

ffffffc080200b3e <.Lpcrel_hi102>:
ffffffc080200b3e:	00004517          	auipc	a0,0x4
ffffffc080200b42:	5d250613          	addi	a2,a0,1490 # ffffffc080205110 <.Lanon.427a789f18ce83ac0f31c2f7c1e7e09c.6>
ffffffc080200b46:	0188                	addi	a0,sp,192
ffffffc080200b48:	4589                	li	a1,2
ffffffc080200b4a:	07d00693          	li	a3,125
ffffffc080200b4e:	00003097          	auipc	ra,0x3
ffffffc080200b52:	c34080e7          	jalr	-972(ra) # ffffffc080203782 <_ZN3log13__private_api8log_impl17h8ff5c7eb18f9ca8bE>
ffffffc080200b56:	c1a2                	sw	s0,192(sp)

ffffffc080200b58 <.Lpcrel_hi103>:
ffffffc080200b58:	00004517          	auipc	a0,0x4
ffffffc080200b5c:	76350513          	addi	a0,a0,1891 # ffffffc0802052bb <.Lanon.427a789f18ce83ac0f31c2f7c1e7e09c.41>

ffffffc080200b60 <.Lpcrel_hi104>:
ffffffc080200b60:	00004597          	auipc	a1,0x4
ffffffc080200b64:	78858613          	addi	a2,a1,1928 # ffffffc0802052e8 <.Lanon.427a789f18ce83ac0f31c2f7c1e7e09c.42>

ffffffc080200b68 <.Lpcrel_hi105>:
ffffffc080200b68:	00004597          	auipc	a1,0x4
ffffffc080200b6c:	7a058693          	addi	a3,a1,1952 # ffffffc080205308 <.Lanon.427a789f18ce83ac0f31c2f7c1e7e09c.43>
ffffffc080200b70:	018c                	addi	a1,sp,192
ffffffc080200b72:	00003097          	auipc	ra,0x3
ffffffc080200b76:	828080e7          	jalr	-2008(ra) # ffffffc08020339a <_ZN4core6result13unwrap_failed17h368883645868569cE>
ffffffc080200b7a:	10812403          	lw	s0,264(sp)
ffffffc080200b7e:	e831                	bnez	s0,ffffffc080200bd2 <.Lpcrel_hi110+0x18>

ffffffc080200b80 <.Lpcrel_hi106>:
ffffffc080200b80:	00048517          	auipc	a0,0x48
ffffffc080200b84:	51053583          	ld	a1,1296(a0) # ffffffc080249090 <_ZN3log20MAX_LOG_LEVEL_FILTER17ha1f6027dc31f6649E.0>
ffffffc080200b88:	4509                	li	a0,2
ffffffc080200b8a:	4421                	li	s0,8
ffffffc080200b8c:	04a5e363          	bltu	a1,a0,ffffffc080200bd2 <.Lpcrel_hi110+0x18>

ffffffc080200b90 <.Lpcrel_hi107>:
ffffffc080200b90:	00003597          	auipc	a1,0x3
ffffffc080200b94:	4d058593          	addi	a1,a1,1232 # ffffffc080204060 <.Lanon.fad58de7366495db4650cfefac2fcd61.3+0x28>
ffffffc080200b98:	fc2e                	sd	a1,56(sp)

ffffffc080200b9a <.Lpcrel_hi108>:
ffffffc080200b9a:	00001597          	auipc	a1,0x1
ffffffc080200b9e:	74e58593          	addi	a1,a1,1870 # ffffffc0802022e8 <_ZN53_$LT$axerrno..AxError$u20$as$u20$core..fmt..Debug$GT$3fmt17hf4f51e7b362d9119E>
ffffffc080200ba2:	e0ae                	sd	a1,64(sp)

ffffffc080200ba4 <.Lpcrel_hi109>:
ffffffc080200ba4:	00004597          	auipc	a1,0x4
ffffffc080200ba8:	5e458593          	addi	a1,a1,1508 # ffffffc080205188 <.Lanon.427a789f18ce83ac0f31c2f7c1e7e09c.10>
ffffffc080200bac:	f4ae                	sd	a1,104(sp)
ffffffc080200bae:	f8aa                	sd	a0,112(sp)
ffffffc080200bb0:	e502                	sd	zero,136(sp)
ffffffc080200bb2:	1828                	addi	a0,sp,56
ffffffc080200bb4:	fcaa                	sd	a0,120(sp)
ffffffc080200bb6:	4505                	li	a0,1
ffffffc080200bb8:	e12a                	sd	a0,128(sp)

ffffffc080200bba <.Lpcrel_hi110>:
ffffffc080200bba:	00004517          	auipc	a0,0x4
ffffffc080200bbe:	55650613          	addi	a2,a0,1366 # ffffffc080205110 <.Lanon.427a789f18ce83ac0f31c2f7c1e7e09c.6>
ffffffc080200bc2:	10a8                	addi	a0,sp,104
ffffffc080200bc4:	4589                	li	a1,2
ffffffc080200bc6:	07d00693          	li	a3,125
ffffffc080200bca:	00003097          	auipc	ra,0x3
ffffffc080200bce:	bb8080e7          	jalr	-1096(ra) # ffffffc080203782 <_ZN3log13__private_api8log_impl17h8ff5c7eb18f9ca8bE>
ffffffc080200bd2:	d4a2                	sw	s0,104(sp)

ffffffc080200bd4 <.Lpcrel_hi111>:
ffffffc080200bd4:	00004517          	auipc	a0,0x4
ffffffc080200bd8:	6e750513          	addi	a0,a0,1767 # ffffffc0802052bb <.Lanon.427a789f18ce83ac0f31c2f7c1e7e09c.41>

ffffffc080200bdc <.Lpcrel_hi112>:
ffffffc080200bdc:	00004597          	auipc	a1,0x4
ffffffc080200be0:	70c58613          	addi	a2,a1,1804 # ffffffc0802052e8 <.Lanon.427a789f18ce83ac0f31c2f7c1e7e09c.42>

ffffffc080200be4 <.Lpcrel_hi113>:
ffffffc080200be4:	00004597          	auipc	a1,0x4
ffffffc080200be8:	72458693          	addi	a3,a1,1828 # ffffffc080205308 <.Lanon.427a789f18ce83ac0f31c2f7c1e7e09c.43>
ffffffc080200bec:	10ac                	addi	a1,sp,104
ffffffc080200bee:	00002097          	auipc	ra,0x2
ffffffc080200bf2:	7ac080e7          	jalr	1964(ra) # ffffffc08020339a <_ZN4core6result13unwrap_failed17h368883645868569cE>
ffffffc080200bf6:	10812403          	lw	s0,264(sp)
ffffffc080200bfa:	e831                	bnez	s0,ffffffc080200c4e <.Lpcrel_hi79+0x18>

ffffffc080200bfc <.Lpcrel_hi75>:
ffffffc080200bfc:	00048517          	auipc	a0,0x48
ffffffc080200c00:	49453583          	ld	a1,1172(a0) # ffffffc080249090 <_ZN3log20MAX_LOG_LEVEL_FILTER17ha1f6027dc31f6649E.0>
ffffffc080200c04:	4509                	li	a0,2
ffffffc080200c06:	4421                	li	s0,8
ffffffc080200c08:	04a5e363          	bltu	a1,a0,ffffffc080200c4e <.Lpcrel_hi79+0x18>

ffffffc080200c0c <.Lpcrel_hi76>:
ffffffc080200c0c:	00003597          	auipc	a1,0x3
ffffffc080200c10:	45458593          	addi	a1,a1,1108 # ffffffc080204060 <.Lanon.fad58de7366495db4650cfefac2fcd61.3+0x28>
ffffffc080200c14:	fc2e                	sd	a1,56(sp)

ffffffc080200c16 <.Lpcrel_hi77>:
ffffffc080200c16:	00001597          	auipc	a1,0x1
ffffffc080200c1a:	6d258593          	addi	a1,a1,1746 # ffffffc0802022e8 <_ZN53_$LT$axerrno..AxError$u20$as$u20$core..fmt..Debug$GT$3fmt17hf4f51e7b362d9119E>
ffffffc080200c1e:	e0ae                	sd	a1,64(sp)

ffffffc080200c20 <.Lpcrel_hi78>:
ffffffc080200c20:	00004597          	auipc	a1,0x4
ffffffc080200c24:	56858593          	addi	a1,a1,1384 # ffffffc080205188 <.Lanon.427a789f18ce83ac0f31c2f7c1e7e09c.10>
ffffffc080200c28:	f4ae                	sd	a1,104(sp)
ffffffc080200c2a:	f8aa                	sd	a0,112(sp)
ffffffc080200c2c:	e502                	sd	zero,136(sp)
ffffffc080200c2e:	1828                	addi	a0,sp,56
ffffffc080200c30:	fcaa                	sd	a0,120(sp)
ffffffc080200c32:	4505                	li	a0,1
ffffffc080200c34:	e12a                	sd	a0,128(sp)

ffffffc080200c36 <.Lpcrel_hi79>:
ffffffc080200c36:	00004517          	auipc	a0,0x4
ffffffc080200c3a:	4da50613          	addi	a2,a0,1242 # ffffffc080205110 <.Lanon.427a789f18ce83ac0f31c2f7c1e7e09c.6>
ffffffc080200c3e:	10a8                	addi	a0,sp,104
ffffffc080200c40:	4589                	li	a1,2
ffffffc080200c42:	07d00693          	li	a3,125
ffffffc080200c46:	00003097          	auipc	ra,0x3
ffffffc080200c4a:	b3c080e7          	jalr	-1220(ra) # ffffffc080203782 <_ZN3log13__private_api8log_impl17h8ff5c7eb18f9ca8bE>
ffffffc080200c4e:	d4a2                	sw	s0,104(sp)

ffffffc080200c50 <.Lpcrel_hi80>:
ffffffc080200c50:	00004517          	auipc	a0,0x4
ffffffc080200c54:	66b50513          	addi	a0,a0,1643 # ffffffc0802052bb <.Lanon.427a789f18ce83ac0f31c2f7c1e7e09c.41>

ffffffc080200c58 <.Lpcrel_hi81>:
ffffffc080200c58:	00004597          	auipc	a1,0x4
ffffffc080200c5c:	69058613          	addi	a2,a1,1680 # ffffffc0802052e8 <.Lanon.427a789f18ce83ac0f31c2f7c1e7e09c.42>

ffffffc080200c60 <.Lpcrel_hi82>:
ffffffc080200c60:	00004597          	auipc	a1,0x4
ffffffc080200c64:	6a858693          	addi	a3,a1,1704 # ffffffc080205308 <.Lanon.427a789f18ce83ac0f31c2f7c1e7e09c.43>
ffffffc080200c68:	10ac                	addi	a1,sp,104
ffffffc080200c6a:	00002097          	auipc	ra,0x2
ffffffc080200c6e:	730080e7          	jalr	1840(ra) # ffffffc08020339a <_ZN4core6result13unwrap_failed17h368883645868569cE>
ffffffc080200c72:	10812403          	lw	s0,264(sp)
ffffffc080200c76:	e831                	bnez	s0,ffffffc080200cca <.Lpcrel_hi128+0x18>

ffffffc080200c78 <.Lpcrel_hi124>:
ffffffc080200c78:	00048517          	auipc	a0,0x48
ffffffc080200c7c:	41853583          	ld	a1,1048(a0) # ffffffc080249090 <_ZN3log20MAX_LOG_LEVEL_FILTER17ha1f6027dc31f6649E.0>
ffffffc080200c80:	4509                	li	a0,2
ffffffc080200c82:	4421                	li	s0,8
ffffffc080200c84:	04a5e363          	bltu	a1,a0,ffffffc080200cca <.Lpcrel_hi128+0x18>

ffffffc080200c88 <.Lpcrel_hi125>:
ffffffc080200c88:	00003597          	auipc	a1,0x3
ffffffc080200c8c:	3d858593          	addi	a1,a1,984 # ffffffc080204060 <.Lanon.fad58de7366495db4650cfefac2fcd61.3+0x28>
ffffffc080200c90:	fc2e                	sd	a1,56(sp)

ffffffc080200c92 <.Lpcrel_hi126>:
ffffffc080200c92:	00001597          	auipc	a1,0x1
ffffffc080200c96:	65658593          	addi	a1,a1,1622 # ffffffc0802022e8 <_ZN53_$LT$axerrno..AxError$u20$as$u20$core..fmt..Debug$GT$3fmt17hf4f51e7b362d9119E>
ffffffc080200c9a:	e0ae                	sd	a1,64(sp)

ffffffc080200c9c <.Lpcrel_hi127>:
ffffffc080200c9c:	00004597          	auipc	a1,0x4
ffffffc080200ca0:	4ec58593          	addi	a1,a1,1260 # ffffffc080205188 <.Lanon.427a789f18ce83ac0f31c2f7c1e7e09c.10>
ffffffc080200ca4:	f4ae                	sd	a1,104(sp)
ffffffc080200ca6:	f8aa                	sd	a0,112(sp)
ffffffc080200ca8:	e502                	sd	zero,136(sp)
ffffffc080200caa:	1828                	addi	a0,sp,56
ffffffc080200cac:	fcaa                	sd	a0,120(sp)
ffffffc080200cae:	4505                	li	a0,1
ffffffc080200cb0:	e12a                	sd	a0,128(sp)

ffffffc080200cb2 <.Lpcrel_hi128>:
ffffffc080200cb2:	00004517          	auipc	a0,0x4
ffffffc080200cb6:	45e50613          	addi	a2,a0,1118 # ffffffc080205110 <.Lanon.427a789f18ce83ac0f31c2f7c1e7e09c.6>
ffffffc080200cba:	10a8                	addi	a0,sp,104
ffffffc080200cbc:	4589                	li	a1,2
ffffffc080200cbe:	07d00693          	li	a3,125
ffffffc080200cc2:	00003097          	auipc	ra,0x3
ffffffc080200cc6:	ac0080e7          	jalr	-1344(ra) # ffffffc080203782 <_ZN3log13__private_api8log_impl17h8ff5c7eb18f9ca8bE>
ffffffc080200cca:	d4a2                	sw	s0,104(sp)

ffffffc080200ccc <.Lpcrel_hi129>:
ffffffc080200ccc:	00004517          	auipc	a0,0x4
ffffffc080200cd0:	5ef50513          	addi	a0,a0,1519 # ffffffc0802052bb <.Lanon.427a789f18ce83ac0f31c2f7c1e7e09c.41>

ffffffc080200cd4 <.Lpcrel_hi130>:
ffffffc080200cd4:	00004597          	auipc	a1,0x4
ffffffc080200cd8:	61458613          	addi	a2,a1,1556 # ffffffc0802052e8 <.Lanon.427a789f18ce83ac0f31c2f7c1e7e09c.42>

ffffffc080200cdc <.Lpcrel_hi131>:
ffffffc080200cdc:	00004597          	auipc	a1,0x4
ffffffc080200ce0:	62c58693          	addi	a3,a1,1580 # ffffffc080205308 <.Lanon.427a789f18ce83ac0f31c2f7c1e7e09c.43>
ffffffc080200ce4:	10ac                	addi	a1,sp,104
ffffffc080200ce6:	00002097          	auipc	ra,0x2
ffffffc080200cea:	6b4080e7          	jalr	1716(ra) # ffffffc08020339a <_ZN4core6result13unwrap_failed17h368883645868569cE>
ffffffc080200cee:	10812403          	lw	s0,264(sp)
ffffffc080200cf2:	e831                	bnez	s0,ffffffc080200d46 <.Lpcrel_hi138+0x18>

ffffffc080200cf4 <.Lpcrel_hi134>:
ffffffc080200cf4:	00048517          	auipc	a0,0x48
ffffffc080200cf8:	39c53583          	ld	a1,924(a0) # ffffffc080249090 <_ZN3log20MAX_LOG_LEVEL_FILTER17ha1f6027dc31f6649E.0>
ffffffc080200cfc:	4509                	li	a0,2
ffffffc080200cfe:	4421                	li	s0,8
ffffffc080200d00:	04a5e363          	bltu	a1,a0,ffffffc080200d46 <.Lpcrel_hi138+0x18>

ffffffc080200d04 <.Lpcrel_hi135>:
ffffffc080200d04:	00003597          	auipc	a1,0x3
ffffffc080200d08:	35c58593          	addi	a1,a1,860 # ffffffc080204060 <.Lanon.fad58de7366495db4650cfefac2fcd61.3+0x28>
ffffffc080200d0c:	fc2e                	sd	a1,56(sp)

ffffffc080200d0e <.Lpcrel_hi136>:
ffffffc080200d0e:	00001597          	auipc	a1,0x1
ffffffc080200d12:	5da58593          	addi	a1,a1,1498 # ffffffc0802022e8 <_ZN53_$LT$axerrno..AxError$u20$as$u20$core..fmt..Debug$GT$3fmt17hf4f51e7b362d9119E>
ffffffc080200d16:	e0ae                	sd	a1,64(sp)

ffffffc080200d18 <.Lpcrel_hi137>:
ffffffc080200d18:	00004597          	auipc	a1,0x4
ffffffc080200d1c:	47058593          	addi	a1,a1,1136 # ffffffc080205188 <.Lanon.427a789f18ce83ac0f31c2f7c1e7e09c.10>
ffffffc080200d20:	f4ae                	sd	a1,104(sp)
ffffffc080200d22:	f8aa                	sd	a0,112(sp)
ffffffc080200d24:	e502                	sd	zero,136(sp)
ffffffc080200d26:	1828                	addi	a0,sp,56
ffffffc080200d28:	fcaa                	sd	a0,120(sp)
ffffffc080200d2a:	4505                	li	a0,1
ffffffc080200d2c:	e12a                	sd	a0,128(sp)

ffffffc080200d2e <.Lpcrel_hi138>:
ffffffc080200d2e:	00004517          	auipc	a0,0x4
ffffffc080200d32:	3e250613          	addi	a2,a0,994 # ffffffc080205110 <.Lanon.427a789f18ce83ac0f31c2f7c1e7e09c.6>
ffffffc080200d36:	10a8                	addi	a0,sp,104
ffffffc080200d38:	4589                	li	a1,2
ffffffc080200d3a:	07d00693          	li	a3,125
ffffffc080200d3e:	00003097          	auipc	ra,0x3
ffffffc080200d42:	a44080e7          	jalr	-1468(ra) # ffffffc080203782 <_ZN3log13__private_api8log_impl17h8ff5c7eb18f9ca8bE>
ffffffc080200d46:	d4a2                	sw	s0,104(sp)

ffffffc080200d48 <.Lpcrel_hi139>:
ffffffc080200d48:	00004517          	auipc	a0,0x4
ffffffc080200d4c:	57350513          	addi	a0,a0,1395 # ffffffc0802052bb <.Lanon.427a789f18ce83ac0f31c2f7c1e7e09c.41>

ffffffc080200d50 <.Lpcrel_hi140>:
ffffffc080200d50:	00004597          	auipc	a1,0x4
ffffffc080200d54:	59858613          	addi	a2,a1,1432 # ffffffc0802052e8 <.Lanon.427a789f18ce83ac0f31c2f7c1e7e09c.42>

ffffffc080200d58 <.Lpcrel_hi141>:
ffffffc080200d58:	00004597          	auipc	a1,0x4
ffffffc080200d5c:	5b058693          	addi	a3,a1,1456 # ffffffc080205308 <.Lanon.427a789f18ce83ac0f31c2f7c1e7e09c.43>
ffffffc080200d60:	10ac                	addi	a1,sp,104
ffffffc080200d62:	00002097          	auipc	ra,0x2
ffffffc080200d66:	638080e7          	jalr	1592(ra) # ffffffc08020339a <_ZN4core6result13unwrap_failed17h368883645868569cE>

ffffffc080200d6a <_ZN10arceos_api3sys12ax_terminate17hccfa4a17499acb35E>:
ffffffc080200d6a:	00001097          	auipc	ra,0x1
ffffffc080200d6e:	b06080e7          	jalr	-1274(ra) # ffffffc080201870 <_ZN5axhal8platform17riscv64_qemu_virt4misc9terminate17h0bc651b4056054b0E>

ffffffc080200d72 <_ZN42_$LT$$RF$T$u20$as$u20$core..fmt..Debug$GT$3fmt17hcd6d0c60a1777f17E>:
ffffffc080200d72:	7175                	addi	sp,sp,-144
ffffffc080200d74:	e506                	sd	ra,136(sp)
ffffffc080200d76:	0345e603          	lwu	a2,52(a1)
ffffffc080200d7a:	6108                	ld	a0,0(a0)
ffffffc080200d7c:	01067693          	andi	a3,a2,16
ffffffc080200d80:	ea99                	bnez	a3,ffffffc080200d96 <_ZN42_$LT$$RF$T$u20$as$u20$core..fmt..Debug$GT$3fmt17hcd6d0c60a1777f17E+0x24>
ffffffc080200d82:	02067613          	andi	a2,a2,32
ffffffc080200d86:	ee39                	bnez	a2,ffffffc080200de4 <.Lpcrel_hi143+0xa>
ffffffc080200d88:	6108                	ld	a0,0(a0)
ffffffc080200d8a:	60aa                	ld	ra,136(sp)
ffffffc080200d8c:	6149                	addi	sp,sp,144
ffffffc080200d8e:	00001317          	auipc	t1,0x1
ffffffc080200d92:	71e30067          	jr	1822(t1) # ffffffc0802024ac <_ZN4core3fmt3num3imp7fmt_u6417h5142f3088252957cE>
ffffffc080200d96:	6108                	ld	a0,0(a0)
ffffffc080200d98:	08100713          	li	a4,129
ffffffc080200d9c:	08710613          	addi	a2,sp,135
ffffffc080200da0:	4829                	li	a6,10
ffffffc080200da2:	a811                	j	ffffffc080200db6 <_ZN42_$LT$$RF$T$u20$as$u20$core..fmt..Debug$GT$3fmt17hcd6d0c60a1777f17E+0x44>
ffffffc080200da4:	05768713          	addi	a4,a3,87
ffffffc080200da8:	8111                	srli	a0,a0,0x4
ffffffc080200daa:	00e60023          	sb	a4,0(a2)
ffffffc080200dae:	167d                	addi	a2,a2,-1
ffffffc080200db0:	fff78713          	addi	a4,a5,-1
ffffffc080200db4:	c909                	beqz	a0,ffffffc080200dc6 <_ZN42_$LT$$RF$T$u20$as$u20$core..fmt..Debug$GT$3fmt17hcd6d0c60a1777f17E+0x54>
ffffffc080200db6:	00f57693          	andi	a3,a0,15
ffffffc080200dba:	87ba                	mv	a5,a4
ffffffc080200dbc:	ff06f4e3          	bgeu	a3,a6,ffffffc080200da4 <_ZN42_$LT$$RF$T$u20$as$u20$core..fmt..Debug$GT$3fmt17hcd6d0c60a1777f17E+0x32>
ffffffc080200dc0:	03068713          	addi	a4,a3,48
ffffffc080200dc4:	b7d5                	j	ffffffc080200da8 <_ZN42_$LT$$RF$T$u20$as$u20$core..fmt..Debug$GT$3fmt17hcd6d0c60a1777f17E+0x36>
ffffffc080200dc6:	ffe78513          	addi	a0,a5,-2
ffffffc080200dca:	08100613          	li	a2,129
ffffffc080200dce:	06c57b63          	bgeu	a0,a2,ffffffc080200e44 <.Lpcrel_hi142>
ffffffc080200dd2:	40e60733          	sub	a4,a2,a4
ffffffc080200dd6:	0034                	addi	a3,sp,8
ffffffc080200dd8:	96aa                	add	a3,a3,a0

ffffffc080200dda <.Lpcrel_hi143>:
ffffffc080200dda:	00005517          	auipc	a0,0x5
ffffffc080200dde:	85e50793          	addi	a5,a0,-1954 # ffffffc080205638 <.Lanon.3bf094dc287819aacaa24632947359b8.2>
ffffffc080200de2:	a0b9                	j	ffffffc080200e30 <.Lpcrel_hi145+0x8>
ffffffc080200de4:	6108                	ld	a0,0(a0)
ffffffc080200de6:	08100713          	li	a4,129
ffffffc080200dea:	08710613          	addi	a2,sp,135
ffffffc080200dee:	4829                	li	a6,10
ffffffc080200df0:	a811                	j	ffffffc080200e04 <.Lpcrel_hi143+0x2a>
ffffffc080200df2:	03768713          	addi	a4,a3,55
ffffffc080200df6:	8111                	srli	a0,a0,0x4
ffffffc080200df8:	00e60023          	sb	a4,0(a2)
ffffffc080200dfc:	167d                	addi	a2,a2,-1
ffffffc080200dfe:	fff78713          	addi	a4,a5,-1
ffffffc080200e02:	c909                	beqz	a0,ffffffc080200e14 <.Lpcrel_hi143+0x3a>
ffffffc080200e04:	00f57693          	andi	a3,a0,15
ffffffc080200e08:	87ba                	mv	a5,a4
ffffffc080200e0a:	ff06f4e3          	bgeu	a3,a6,ffffffc080200df2 <.Lpcrel_hi143+0x18>
ffffffc080200e0e:	03068713          	addi	a4,a3,48
ffffffc080200e12:	b7d5                	j	ffffffc080200df6 <.Lpcrel_hi143+0x1c>
ffffffc080200e14:	ffe78513          	addi	a0,a5,-2
ffffffc080200e18:	08100613          	li	a2,129
ffffffc080200e1c:	02c57e63          	bgeu	a0,a2,ffffffc080200e58 <.Lpcrel_hi144>
ffffffc080200e20:	40e60733          	sub	a4,a2,a4
ffffffc080200e24:	0034                	addi	a3,sp,8
ffffffc080200e26:	96aa                	add	a3,a3,a0

ffffffc080200e28 <.Lpcrel_hi145>:
ffffffc080200e28:	00005517          	auipc	a0,0x5
ffffffc080200e2c:	81050793          	addi	a5,a0,-2032 # ffffffc080205638 <.Lanon.3bf094dc287819aacaa24632947359b8.2>
ffffffc080200e30:	4609                	li	a2,2
ffffffc080200e32:	852e                	mv	a0,a1
ffffffc080200e34:	85be                	mv	a1,a5
ffffffc080200e36:	00001097          	auipc	ra,0x1
ffffffc080200e3a:	7b8080e7          	jalr	1976(ra) # ffffffc0802025ee <_ZN4core3fmt9Formatter12pad_integral17h8b1ffde32503eca3E>
ffffffc080200e3e:	60aa                	ld	ra,136(sp)
ffffffc080200e40:	6149                	addi	sp,sp,144
ffffffc080200e42:	8082                	ret

ffffffc080200e44 <.Lpcrel_hi142>:
ffffffc080200e44:	00004597          	auipc	a1,0x4
ffffffc080200e48:	67458613          	addi	a2,a1,1652 # ffffffc0802054b8 <.Lanon.c308b1a5a0a97bdc8edd9b96ba25ee05.312>
ffffffc080200e4c:	08000593          	li	a1,128
ffffffc080200e50:	00001097          	auipc	ra,0x1
ffffffc080200e54:	634080e7          	jalr	1588(ra) # ffffffc080202484 <_ZN4core5slice5index26slice_start_index_len_fail17h9a8c132d7bd51700E>

ffffffc080200e58 <.Lpcrel_hi144>:
ffffffc080200e58:	00004597          	auipc	a1,0x4
ffffffc080200e5c:	66058613          	addi	a2,a1,1632 # ffffffc0802054b8 <.Lanon.c308b1a5a0a97bdc8edd9b96ba25ee05.312>
ffffffc080200e60:	08000593          	li	a1,128
ffffffc080200e64:	00001097          	auipc	ra,0x1
ffffffc080200e68:	620080e7          	jalr	1568(ra) # ffffffc080202484 <_ZN4core5slice5index26slice_start_index_len_fail17h9a8c132d7bd51700E>

ffffffc080200e6c <_ZN4core9panicking13assert_failed17h6c6f88c81ac2fb35E>:
ffffffc080200e6c:	1141                	addi	sp,sp,-16
ffffffc080200e6e:	e02a                	sd	a0,0(sp)
ffffffc080200e70:	e42e                	sd	a1,8(sp)
ffffffc080200e72:	850a                	mv	a0,sp
ffffffc080200e74:	002c                	addi	a1,sp,8
ffffffc080200e76:	00002097          	auipc	ra,0x2
ffffffc080200e7a:	d8a080e7          	jalr	-630(ra) # ffffffc080202c00 <_ZN4core9panicking19assert_failed_inner17h53dbe1fde977ee0eE>

ffffffc080200e7e <_ZN5axhal8platform17riscv64_qemu_virt10rust_entry17h65aff50b489684f3E>:
ffffffc080200e7e:	1141                	addi	sp,sp,-16
ffffffc080200e80:	e406                	sd	ra,8(sp)
ffffffc080200e82:	e022                	sd	s0,0(sp)

ffffffc080200e84 <.Lpcrel_hi146>:
ffffffc080200e84:	00048597          	auipc	a1,0x48
ffffffc080200e88:	17c58593          	addi	a1,a1,380 # ffffffc080249000 <_ZN13arceos_loader9ABI_TABLE17h557f92d75859fc23E>

ffffffc080200e8c <.Lpcrel_hi147>:
ffffffc080200e8c:	00049617          	auipc	a2,0x49
ffffffc080200e90:	17460613          	addi	a2,a2,372 # ffffffc08024a000 <_ebss>
ffffffc080200e94:	8e0d                	sub	a2,a2,a1
ffffffc080200e96:	ca09                	beqz	a2,ffffffc080200ea8 <.Lpcrel_hi147+0x1c>
ffffffc080200e98:	842a                	mv	s0,a0
ffffffc080200e9a:	852e                	mv	a0,a1
ffffffc080200e9c:	4581                	li	a1,0
ffffffc080200e9e:	00003097          	auipc	ra,0x3
ffffffc080200ea2:	dcc080e7          	jalr	-564(ra) # ffffffc080203c6a <memset>
ffffffc080200ea6:	8522                	mv	a0,s0
ffffffc080200ea8:	00001097          	auipc	ra,0x1
ffffffc080200eac:	8ee080e7          	jalr	-1810(ra) # ffffffc080201796 <_ZN5axhal3cpu12init_primary17h7140126b1399deffE>

ffffffc080200eb0 <.Lpcrel_hi148>:
ffffffc080200eb0:	fffff517          	auipc	a0,0xfffff
ffffffc080200eb4:	18c50513          	addi	a0,a0,396 # ffffffc08020003c <trap_vector_base>
ffffffc080200eb8:	10551073          	csrw	stvec,a0
ffffffc080200ebc:	00001097          	auipc	ra,0x1
ffffffc080200ec0:	ff8080e7          	jalr	-8(ra) # ffffffc080201eb4 <rust_main>

ffffffc080200ec4 <riscv_trap_handler>:
ffffffc080200ec4:	7129                	addi	sp,sp,-320
ffffffc080200ec6:	fe06                	sd	ra,312(sp)
ffffffc080200ec8:	fa22                	sd	s0,304(sp)
ffffffc080200eca:	f626                	sd	s1,296(sp)
ffffffc080200ecc:	842a                	mv	s0,a0
ffffffc080200ece:	e02a                	sd	a0,0(sp)
ffffffc080200ed0:	14202573          	csrr	a0,scause
ffffffc080200ed4:	00054e63          	bltz	a0,ffffffc080200ef0 <.Lpcrel_hi149>
ffffffc080200ed8:	862e                	mv	a2,a1
ffffffc080200eda:	45b1                	li	a1,12
ffffffc080200edc:	08a5cb63          	blt	a1,a0,ffffffc080200f72 <.Lpcrel_hi169+0xa>
ffffffc080200ee0:	458d                	li	a1,3
ffffffc080200ee2:	0cb50e63          	beq	a0,a1,ffffffc080200fbe <.Lpcrel_hi162+0xa>
ffffffc080200ee6:	45b1                	li	a1,12
ffffffc080200ee8:	1eb51b63          	bne	a0,a1,ffffffc0802010de <.Lpcrel_hi154+0x12>
ffffffc080200eec:	4591                	li	a1,4
ffffffc080200eee:	a8e9                	j	ffffffc080200fc8 <.Lpcrel_hi162+0x14>

ffffffc080200ef0 <.Lpcrel_hi149>:
ffffffc080200ef0:	00004597          	auipc	a1,0x4
ffffffc080200ef4:	9c058593          	addi	a1,a1,-1600 # ffffffc0802048b0 <_ZN5axhal4trap3IRQ17h95976ea90d21374eE>
ffffffc080200ef8:	7590                	ld	a2,40(a1)
ffffffc080200efa:	ee32                	sd	a2,280(sp)
ffffffc080200efc:	7190                	ld	a2,32(a1)
ffffffc080200efe:	6d94                	ld	a3,24(a1)
ffffffc080200f00:	6998                	ld	a4,16(a1)
ffffffc080200f02:	659c                	ld	a5,8(a1)
ffffffc080200f04:	ea32                	sd	a2,272(sp)
ffffffc080200f06:	e636                	sd	a3,264(sp)
ffffffc080200f08:	e23a                	sd	a4,256(sp)
ffffffc080200f0a:	fdbe                	sd	a5,248(sp)
ffffffc080200f0c:	618c                	ld	a1,0(a1)

ffffffc080200f0e <.Lpcrel_hi150>:
ffffffc080200f0e:	00006617          	auipc	a2,0x6
ffffffc080200f12:	14a60613          	addi	a2,a2,330 # ffffffc080207058 <_ZN5axhal4trap10PAGE_FAULT8DUPCHECK17hb771d1f2dec1e58fE>

ffffffc080200f16 <.Lpcrel_hi151>:
ffffffc080200f16:	00006697          	auipc	a3,0x6
ffffffc080200f1a:	14268693          	addi	a3,a3,322 # ffffffc080207058 <_ZN5axhal4trap10PAGE_FAULT8DUPCHECK17hb771d1f2dec1e58fE>
ffffffc080200f1e:	f9ae                	sd	a1,240(sp)
ffffffc080200f20:	18d66363          	bltu	a2,a3,ffffffc0802010a6 <.Lpcrel_hi165+0x36>

ffffffc080200f24 <.Lpcrel_hi155>:
ffffffc080200f24:	00006597          	auipc	a1,0x6
ffffffc080200f28:	12c58413          	addi	s0,a1,300 # ffffffc080207050 <_ZN5axhal4trap3IRQ8DUPCHECK17h0938bd4f072d15e8E>

ffffffc080200f2c <.Lpcrel_hi156>:
ffffffc080200f2c:	00006597          	auipc	a1,0x6
ffffffc080200f30:	12458593          	addi	a1,a1,292 # ffffffc080207050 <_ZN5axhal4trap3IRQ8DUPCHECK17h0938bd4f072d15e8E>
ffffffc080200f34:	8d81                	sub	a1,a1,s0
ffffffc080200f36:	4621                	li	a2,8
ffffffc080200f38:	04c5f563          	bgeu	a1,a2,ffffffc080200f82 <.Lpcrel_hi169+0x1a>

ffffffc080200f3c <.Lpcrel_hi157>:
ffffffc080200f3c:	00048517          	auipc	a0,0x48
ffffffc080200f40:	15453503          	ld	a0,340(a0) # ffffffc080249090 <_ZN3log20MAX_LOG_LEVEL_FILTER17ha1f6027dc31f6649E.0>
ffffffc080200f44:	4609                	li	a2,2
ffffffc080200f46:	14c56b63          	bltu	a0,a2,ffffffc08020109c <.Lpcrel_hi165+0x2c>

ffffffc080200f4a <.Lpcrel_hi166>:
ffffffc080200f4a:	00048517          	auipc	a0,0x48
ffffffc080200f4e:	13e53503          	ld	a0,318(a0) # ffffffc080249088 <_ZN3log5STATE17h82db28ebc6c403a6E>
ffffffc080200f52:	0230000f          	fence	r,rw
ffffffc080200f56:	08c50263          	beq	a0,a2,ffffffc080200fda <.Lpcrel_hi167>

ffffffc080200f5a <.Lpcrel_hi168>:
ffffffc080200f5a:	00004597          	auipc	a1,0x4
ffffffc080200f5e:	69658593          	addi	a1,a1,1686 # ffffffc0802055f0 <.Lanon.f39d08480f7773be82bf088a10543c94.0>
ffffffc080200f62:	4685                	li	a3,1
ffffffc080200f64:	08c50263          	beq	a0,a2,ffffffc080200fe8 <.Lpcrel_hi167+0xe>

ffffffc080200f68 <.Lpcrel_hi169>:
ffffffc080200f68:	00004517          	auipc	a0,0x4
ffffffc080200f6c:	6b850513          	addi	a0,a0,1720 # ffffffc080205620 <.Lanon.3cf6065fb3bc5c8a6dbd7ebdc6e6fed3.2>
ffffffc080200f70:	a8ad                	j	ffffffc080200fea <.Lpcrel_hi167+0x10>
ffffffc080200f72:	45b5                	li	a1,13
ffffffc080200f74:	04b50963          	beq	a0,a1,ffffffc080200fc6 <.Lpcrel_hi162+0x12>
ffffffc080200f78:	45bd                	li	a1,15
ffffffc080200f7a:	16b51263          	bne	a0,a1,ffffffc0802010de <.Lpcrel_hi154+0x12>
ffffffc080200f7e:	4589                	li	a1,2
ffffffc080200f80:	a0a1                	j	ffffffc080200fc8 <.Lpcrel_hi162+0x14>
ffffffc080200f82:	10c58b63          	beq	a1,a2,ffffffc080201098 <.Lpcrel_hi165+0x28>

ffffffc080200f86 <.Lpcrel_hi158>:
ffffffc080200f86:	00048597          	auipc	a1,0x48
ffffffc080200f8a:	10a5b583          	ld	a1,266(a1) # ffffffc080249090 <_ZN3log20MAX_LOG_LEVEL_FILTER17ha1f6027dc31f6649E.0>
ffffffc080200f8e:	4609                	li	a2,2
ffffffc080200f90:	10c5e463          	bltu	a1,a2,ffffffc080201098 <.Lpcrel_hi165+0x28>

ffffffc080200f94 <.Lpcrel_hi159>:
ffffffc080200f94:	00048597          	auipc	a1,0x48
ffffffc080200f98:	0f45b703          	ld	a4,244(a1) # ffffffc080249088 <_ZN3log5STATE17h82db28ebc6c403a6E>
ffffffc080200f9c:	0230000f          	fence	r,rw
ffffffc080200fa0:	08c70c63          	beq	a4,a2,ffffffc080201038 <.Lpcrel_hi160>

ffffffc080200fa4 <.Lpcrel_hi161>:
ffffffc080200fa4:	00004597          	auipc	a1,0x4
ffffffc080200fa8:	64c58593          	addi	a1,a1,1612 # ffffffc0802055f0 <.Lanon.f39d08480f7773be82bf088a10543c94.0>
ffffffc080200fac:	4685                	li	a3,1
ffffffc080200fae:	84aa                	mv	s1,a0
ffffffc080200fb0:	08c70c63          	beq	a4,a2,ffffffc080201048 <.Lpcrel_hi160+0x10>

ffffffc080200fb4 <.Lpcrel_hi162>:
ffffffc080200fb4:	00004517          	auipc	a0,0x4
ffffffc080200fb8:	66c50513          	addi	a0,a0,1644 # ffffffc080205620 <.Lanon.3cf6065fb3bc5c8a6dbd7ebdc6e6fed3.2>
ffffffc080200fbc:	a079                	j	ffffffc08020104a <.Lpcrel_hi160+0x12>
ffffffc080200fbe:	7c68                	ld	a0,248(s0)
ffffffc080200fc0:	0509                	addi	a0,a0,2
ffffffc080200fc2:	fc68                	sd	a0,248(s0)
ffffffc080200fc4:	a8e1                	j	ffffffc08020109c <.Lpcrel_hi165+0x2c>
ffffffc080200fc6:	4585                	li	a1,1
ffffffc080200fc8:	8522                	mv	a0,s0
ffffffc080200fca:	70f2                	ld	ra,312(sp)
ffffffc080200fcc:	7452                	ld	s0,304(sp)
ffffffc080200fce:	74b2                	ld	s1,296(sp)
ffffffc080200fd0:	6131                	addi	sp,sp,320
ffffffc080200fd2:	00000317          	auipc	t1,0x0
ffffffc080200fd6:	20830067          	jr	520(t1) # ffffffc0802011da <_ZN5axhal4arch5riscv4trap17handle_page_fault17hc6035db301d01d72E>

ffffffc080200fda <.Lpcrel_hi167>:
ffffffc080200fda:	00006597          	auipc	a1,0x6
ffffffc080200fde:	0665b583          	ld	a1,102(a1) # ffffffc080207040 <_ZN3log6LOGGER17ha416a0c03de1f01fE.1>
ffffffc080200fe2:	4685                	li	a3,1
ffffffc080200fe4:	f8c512e3          	bne	a0,a2,ffffffc080200f68 <.Lpcrel_hi169>
ffffffc080200fe8:	4505                	li	a0,1
ffffffc080200fea:	fcb2                	sd	a2,120(sp)

ffffffc080200fec <.Lpcrel_hi170>:
ffffffc080200fec:	00003617          	auipc	a2,0x3
ffffffc080200ff0:	40c60613          	addi	a2,a2,1036 # ffffffc0802043f8 <.Lanon.c0305fa26fbb8783b10acb09d8a7a5c4.37>
ffffffc080200ff4:	e132                	sd	a2,128(sp)
ffffffc080200ff6:	4761                	li	a4,24
ffffffc080200ff8:	e53a                	sd	a4,136(sp)

ffffffc080200ffa <.Lpcrel_hi171>:
ffffffc080200ffa:	00003797          	auipc	a5,0x3
ffffffc080200ffe:	5ce78793          	addi	a5,a5,1486 # ffffffc0802045c8 <.Lanon.c0305fa26fbb8783b10acb09d8a7a5c4.54>
ffffffc080201002:	ed3e                	sd	a5,152(sp)
ffffffc080201004:	f136                	sd	a3,160(sp)
ffffffc080201006:	1214                	addi	a3,sp,288
ffffffc080201008:	f536                	sd	a3,168(sp)
ffffffc08020100a:	f902                	sd	zero,176(sp)
ffffffc08020100c:	fd02                	sd	zero,184(sp)
ffffffc08020100e:	e482                	sd	zero,72(sp)

ffffffc080201010 <.Lpcrel_hi172>:
ffffffc080201010:	00003697          	auipc	a3,0x3
ffffffc080201014:	40068693          	addi	a3,a3,1024 # ffffffc080204410 <.Lanon.c0305fa26fbb8783b10acb09d8a7a5c4.38>
ffffffc080201018:	f4b6                	sd	a3,104(sp)
ffffffc08020101a:	02400693          	li	a3,36
ffffffc08020101e:	f8b6                	sd	a3,112(sp)
ffffffc080201020:	02f00693          	li	a3,47
ffffffc080201024:	1682                	slli	a3,a3,0x20
ffffffc080201026:	0685                	addi	a3,a3,1
ffffffc080201028:	e936                	sd	a3,144(sp)
ffffffc08020102a:	7194                	ld	a3,32(a1)
ffffffc08020102c:	e8b2                	sd	a2,80(sp)
ffffffc08020102e:	ecba                	sd	a4,88(sp)
ffffffc080201030:	f082                	sd	zero,96(sp)
ffffffc080201032:	00ac                	addi	a1,sp,72
ffffffc080201034:	9682                	jalr	a3
ffffffc080201036:	a09d                	j	ffffffc08020109c <.Lpcrel_hi165+0x2c>

ffffffc080201038 <.Lpcrel_hi160>:
ffffffc080201038:	00006597          	auipc	a1,0x6
ffffffc08020103c:	0085b583          	ld	a1,8(a1) # ffffffc080207040 <_ZN3log6LOGGER17ha416a0c03de1f01fE.1>
ffffffc080201040:	4685                	li	a3,1
ffffffc080201042:	84aa                	mv	s1,a0
ffffffc080201044:	f6c718e3          	bne	a4,a2,ffffffc080200fb4 <.Lpcrel_hi162>
ffffffc080201048:	4505                	li	a0,1
ffffffc08020104a:	fcb2                	sd	a2,120(sp)

ffffffc08020104c <.Lpcrel_hi163>:
ffffffc08020104c:	00003617          	auipc	a2,0x3
ffffffc080201050:	3ac60613          	addi	a2,a2,940 # ffffffc0802043f8 <.Lanon.c0305fa26fbb8783b10acb09d8a7a5c4.37>
ffffffc080201054:	e132                	sd	a2,128(sp)
ffffffc080201056:	4761                	li	a4,24
ffffffc080201058:	e53a                	sd	a4,136(sp)

ffffffc08020105a <.Lpcrel_hi164>:
ffffffc08020105a:	00003797          	auipc	a5,0x3
ffffffc08020105e:	53678793          	addi	a5,a5,1334 # ffffffc080204590 <.Lanon.c0305fa26fbb8783b10acb09d8a7a5c4.52>
ffffffc080201062:	ed3e                	sd	a5,152(sp)
ffffffc080201064:	f136                	sd	a3,160(sp)
ffffffc080201066:	1214                	addi	a3,sp,288
ffffffc080201068:	f536                	sd	a3,168(sp)
ffffffc08020106a:	f902                	sd	zero,176(sp)
ffffffc08020106c:	fd02                	sd	zero,184(sp)
ffffffc08020106e:	e482                	sd	zero,72(sp)

ffffffc080201070 <.Lpcrel_hi165>:
ffffffc080201070:	00003697          	auipc	a3,0x3
ffffffc080201074:	3a068693          	addi	a3,a3,928 # ffffffc080204410 <.Lanon.c0305fa26fbb8783b10acb09d8a7a5c4.38>
ffffffc080201078:	f4b6                	sd	a3,104(sp)
ffffffc08020107a:	02400693          	li	a3,36
ffffffc08020107e:	f8b6                	sd	a3,112(sp)
ffffffc080201080:	02f00693          	li	a3,47
ffffffc080201084:	1682                	slli	a3,a3,0x20
ffffffc080201086:	0685                	addi	a3,a3,1
ffffffc080201088:	e936                	sd	a3,144(sp)
ffffffc08020108a:	7194                	ld	a3,32(a1)
ffffffc08020108c:	e8b2                	sd	a2,80(sp)
ffffffc08020108e:	ecba                	sd	a4,88(sp)
ffffffc080201090:	f082                	sd	zero,96(sp)
ffffffc080201092:	00ac                	addi	a1,sp,72
ffffffc080201094:	9682                	jalr	a3
ffffffc080201096:	8526                	mv	a0,s1
ffffffc080201098:	600c                	ld	a1,0(s0)
ffffffc08020109a:	9582                	jalr	a1
ffffffc08020109c:	70f2                	ld	ra,312(sp)
ffffffc08020109e:	7452                	ld	s0,304(sp)
ffffffc0802010a0:	74b2                	ld	s1,296(sp)
ffffffc0802010a2:	6131                	addi	sp,sp,320
ffffffc0802010a4:	8082                	ret
ffffffc0802010a6:	1988                	addi	a0,sp,240
ffffffc0802010a8:	e42a                	sd	a0,8(sp)

ffffffc0802010aa <.Lpcrel_hi152>:
ffffffc0802010aa:	00001517          	auipc	a0,0x1
ffffffc0802010ae:	17c50513          	addi	a0,a0,380 # ffffffc080202226 <_ZN44_$LT$$RF$T$u20$as$u20$core..fmt..Display$GT$3fmt17h08215a0f3cae4f5bE>
ffffffc0802010b2:	e82a                	sd	a0,16(sp)

ffffffc0802010b4 <.Lpcrel_hi153>:
ffffffc0802010b4:	00003517          	auipc	a0,0x3
ffffffc0802010b8:	20c50513          	addi	a0,a0,524 # ffffffc0802042c0 <.Lanon.c0305fa26fbb8783b10acb09d8a7a5c4.16>
ffffffc0802010bc:	e4aa                	sd	a0,72(sp)
ffffffc0802010be:	4509                	li	a0,2
ffffffc0802010c0:	e8aa                	sd	a0,80(sp)
ffffffc0802010c2:	f482                	sd	zero,104(sp)
ffffffc0802010c4:	0028                	addi	a0,sp,8
ffffffc0802010c6:	ecaa                	sd	a0,88(sp)
ffffffc0802010c8:	4505                	li	a0,1
ffffffc0802010ca:	f0aa                	sd	a0,96(sp)

ffffffc0802010cc <.Lpcrel_hi154>:
ffffffc0802010cc:	00003517          	auipc	a0,0x3
ffffffc0802010d0:	28450593          	addi	a1,a0,644 # ffffffc080204350 <.Lanon.c0305fa26fbb8783b10acb09d8a7a5c4.18>
ffffffc0802010d4:	00a8                	addi	a0,sp,72
ffffffc0802010d6:	00001097          	auipc	ra,0x1
ffffffc0802010da:	34c080e7          	jalr	844(ra) # ffffffc080202422 <_ZN4core9panicking9panic_fmt17h11ec9af140fca503E>
ffffffc0802010de:	00000097          	auipc	ra,0x0
ffffffc0802010e2:	09e080e7          	jalr	158(ra) # ffffffc08020117c <_ZN5riscv8register6scause6Scause5cause17h3fa52c049b4238f2E>
ffffffc0802010e6:	4585                	li	a1,1
ffffffc0802010e8:	fc2e                	sd	a1,56(sp)
ffffffc0802010ea:	e0aa                	sd	a0,64(sp)
ffffffc0802010ec:	0f840513          	addi	a0,s0,248
ffffffc0802010f0:	1830                	addi	a2,sp,56
ffffffc0802010f2:	f9b2                	sd	a2,240(sp)

ffffffc0802010f4 <.Lpcrel_hi173>:
ffffffc0802010f4:	00000617          	auipc	a2,0x0
ffffffc0802010f8:	0a060613          	addi	a2,a2,160 # ffffffc080201194 <_ZN66_$LT$riscv..register..scause..Trap$u20$as$u20$core..fmt..Debug$GT$3fmt17h9efa6a855d63f76dE>
ffffffc0802010fc:	fdb2                	sd	a2,248(sp)
ffffffc0802010fe:	e22a                	sd	a0,256(sp)

ffffffc080201100 <.Lpcrel_hi174>:
ffffffc080201100:	00002517          	auipc	a0,0x2
ffffffc080201104:	32850513          	addi	a0,a0,808 # ffffffc080203428 <_ZN4core3fmt3num53_$LT$impl$u20$core..fmt..LowerHex$u20$for$u20$i64$GT$3fmt17h32e4bad511e5cf9eE>
ffffffc080201108:	e62a                	sd	a0,264(sp)
ffffffc08020110a:	850a                	mv	a0,sp
ffffffc08020110c:	ea2a                	sd	a0,272(sp)

ffffffc08020110e <.Lpcrel_hi175>:
ffffffc08020110e:	00000517          	auipc	a0,0x0
ffffffc080201112:	34c50513          	addi	a0,a0,844 # ffffffc08020145a <_ZN42_$LT$$RF$T$u20$as$u20$core..fmt..Debug$GT$3fmt17h39a64db73507cba9E>
ffffffc080201116:	ee2a                	sd	a0,280(sp)
ffffffc080201118:	4509                	li	a0,2
ffffffc08020111a:	e4aa                	sd	a0,72(sp)
ffffffc08020111c:	ecaa                	sd	a0,88(sp)
ffffffc08020111e:	f482                	sd	zero,104(sp)
ffffffc080201120:	02000613          	li	a2,32
ffffffc080201124:	f8b2                	sd	a2,112(sp)
ffffffc080201126:	460d                	li	a2,3
ffffffc080201128:	06c10c23          	sb	a2,120(sp)
ffffffc08020112c:	e12a                	sd	a0,128(sp)
ffffffc08020112e:	e92a                	sd	a0,144(sp)
ffffffc080201130:	f12e                	sd	a1,160(sp)
ffffffc080201132:	158a                	slli	a1,a1,0x22
ffffffc080201134:	02058593          	addi	a1,a1,32
ffffffc080201138:	f52e                	sd	a1,168(sp)
ffffffc08020113a:	0ac10823          	sb	a2,176(sp)
ffffffc08020113e:	fd2a                	sd	a0,184(sp)
ffffffc080201140:	e5aa                	sd	a0,200(sp)
ffffffc080201142:	edaa                	sd	a0,216(sp)
ffffffc080201144:	4515                	li	a0,5
ffffffc080201146:	150a                	slli	a0,a0,0x22
ffffffc080201148:	02050513          	addi	a0,a0,32
ffffffc08020114c:	f1aa                	sd	a0,224(sp)
ffffffc08020114e:	0ec10423          	sb	a2,232(sp)

ffffffc080201152 <.Lpcrel_hi176>:
ffffffc080201152:	00003517          	auipc	a0,0x3
ffffffc080201156:	49e50513          	addi	a0,a0,1182 # ffffffc0802045f0 <.Lanon.c0305fa26fbb8783b10acb09d8a7a5c4.58>
ffffffc08020115a:	e42a                	sd	a0,8(sp)
ffffffc08020115c:	e832                	sd	a2,16(sp)
ffffffc08020115e:	00a8                	addi	a0,sp,72
ffffffc080201160:	f42a                	sd	a0,40(sp)
ffffffc080201162:	f832                	sd	a2,48(sp)
ffffffc080201164:	1988                	addi	a0,sp,240
ffffffc080201166:	ec2a                	sd	a0,24(sp)
ffffffc080201168:	f032                	sd	a2,32(sp)

ffffffc08020116a <.Lpcrel_hi177>:
ffffffc08020116a:	00003517          	auipc	a0,0x3
ffffffc08020116e:	4b650593          	addi	a1,a0,1206 # ffffffc080204620 <.Lanon.c0305fa26fbb8783b10acb09d8a7a5c4.59>
ffffffc080201172:	0028                	addi	a0,sp,8
ffffffc080201174:	00001097          	auipc	ra,0x1
ffffffc080201178:	2ae080e7          	jalr	686(ra) # ffffffc080202422 <_ZN4core9panicking9panic_fmt17h11ec9af140fca503E>

ffffffc08020117c <_ZN5riscv8register6scause6Scause5cause17h3fa52c049b4238f2E>:
ffffffc08020117c:	45c1                	li	a1,16
ffffffc08020117e:	00b57963          	bgeu	a0,a1,ffffffc080201190 <.Lpcrel_hi178+0xc>
ffffffc080201182:	050e                	slli	a0,a0,0x3

ffffffc080201184 <.Lpcrel_hi178>:
ffffffc080201184:	00004597          	auipc	a1,0x4
ffffffc080201188:	55c58593          	addi	a1,a1,1372 # ffffffc0802056e0 <.Lswitch.table._ZN5riscv8register6scause6Scause5cause17h3fa52c049b4238f2E>
ffffffc08020118c:	952e                	add	a0,a0,a1
ffffffc08020118e:	610c                	ld	a1,0(a0)
ffffffc080201190:	852e                	mv	a0,a1
ffffffc080201192:	8082                	ret

ffffffc080201194 <_ZN66_$LT$riscv..register..scause..Trap$u20$as$u20$core..fmt..Debug$GT$3fmt17h9efa6a855d63f76dE>:
ffffffc080201194:	1141                	addi	sp,sp,-16
ffffffc080201196:	e406                	sd	ra,8(sp)
ffffffc080201198:	862a                	mv	a2,a0
ffffffc08020119a:	6114                	ld	a3,0(a0)
ffffffc08020119c:	852e                	mv	a0,a1
ffffffc08020119e:	0621                	addi	a2,a2,8
ffffffc0802011a0:	ca99                	beqz	a3,ffffffc0802011b6 <.Lpcrel_hi182+0xa>
ffffffc0802011a2:	e032                	sd	a2,0(sp)

ffffffc0802011a4 <.Lpcrel_hi181>:
ffffffc0802011a4:	00003597          	auipc	a1,0x3
ffffffc0802011a8:	0e558593          	addi	a1,a1,229 # ffffffc080204289 <.Lanon.c0305fa26fbb8783b10acb09d8a7a5c4.12>

ffffffc0802011ac <.Lpcrel_hi182>:
ffffffc0802011ac:	00000617          	auipc	a2,0x0
ffffffc0802011b0:	5c260713          	addi	a4,a2,1474 # ffffffc08020176e <_ZN42_$LT$$RF$T$u20$as$u20$core..fmt..Debug$GT$3fmt17h936243d9c2958897E>
ffffffc0802011b4:	a811                	j	ffffffc0802011c8 <.Lpcrel_hi180+0x8>
ffffffc0802011b6:	e032                	sd	a2,0(sp)

ffffffc0802011b8 <.Lpcrel_hi179>:
ffffffc0802011b8:	00003597          	auipc	a1,0x3
ffffffc0802011bc:	0c858593          	addi	a1,a1,200 # ffffffc080204280 <.Lanon.c0305fa26fbb8783b10acb09d8a7a5c4.10>

ffffffc0802011c0 <.Lpcrel_hi180>:
ffffffc0802011c0:	00000617          	auipc	a2,0x0
ffffffc0802011c4:	58460713          	addi	a4,a2,1412 # ffffffc080201744 <_ZN42_$LT$$RF$T$u20$as$u20$core..fmt..Debug$GT$3fmt17h44123029f32ec905E>
ffffffc0802011c8:	4625                	li	a2,9
ffffffc0802011ca:	868a                	mv	a3,sp
ffffffc0802011cc:	00002097          	auipc	ra,0x2
ffffffc0802011d0:	3c6080e7          	jalr	966(ra) # ffffffc080203592 <_ZN4core3fmt9Formatter25debug_tuple_field1_finish17h7b601b839df38242E>
ffffffc0802011d4:	60a2                	ld	ra,8(sp)
ffffffc0802011d6:	0141                	addi	sp,sp,16
ffffffc0802011d8:	8082                	ret

ffffffc0802011da <_ZN5axhal4arch5riscv4trap17handle_page_fault17hc6035db301d01d72E>:
ffffffc0802011da:	7101                	addi	sp,sp,-512
ffffffc0802011dc:	ff86                	sd	ra,504(sp)
ffffffc0802011de:	fba2                	sd	s0,496(sp)
ffffffc0802011e0:	f7a6                	sd	s1,488(sp)
ffffffc0802011e2:	f3ca                	sd	s2,480(sp)
ffffffc0802011e4:	efce                	sd	s3,472(sp)
ffffffc0802011e6:	ebd2                	sd	s4,464(sp)
ffffffc0802011e8:	84b2                	mv	s1,a2
ffffffc0802011ea:	892a                	mv	s2,a0
ffffffc0802011ec:	e42a                	sd	a0,8(sp)
ffffffc0802011ee:	00361513          	slli	a0,a2,0x3
ffffffc0802011f2:	8dc9                	or	a1,a1,a0

ffffffc0802011f4 <.Lpcrel_hi183>:
ffffffc0802011f4:	00003517          	auipc	a0,0x3
ffffffc0802011f8:	6fc50613          	addi	a2,a0,1788 # ffffffc0802048f0 <_ZN5axhal4trap10PAGE_FAULT17he93cb2fcb21d072fE>
ffffffc0802011fc:	7614                	ld	a3,40(a2)
ffffffc0802011fe:	7218                	ld	a4,32(a2)
ffffffc080201200:	e82e                	sd	a1,16(sp)
ffffffc080201202:	14302573          	csrr	a0,stval
ffffffc080201206:	fcb6                	sd	a3,120(sp)
ffffffc080201208:	f8ba                	sd	a4,112(sp)
ffffffc08020120a:	6e14                	ld	a3,24(a2)
ffffffc08020120c:	6a18                	ld	a4,16(a2)
ffffffc08020120e:	661c                	ld	a5,8(a2)
ffffffc080201210:	6210                	ld	a2,0(a2)
ffffffc080201212:	f4b6                	sd	a3,104(sp)
ffffffc080201214:	f0ba                	sd	a4,96(sp)
ffffffc080201216:	ecbe                	sd	a5,88(sp)
ffffffc080201218:	e8b2                	sd	a2,80(sp)

ffffffc08020121a <.Lpcrel_hi184>:
ffffffc08020121a:	00006617          	auipc	a2,0x6
ffffffc08020121e:	e4660613          	addi	a2,a2,-442 # ffffffc080207060 <__stop_linkm2_PAGE_FAULT>

ffffffc080201222 <.Lpcrel_hi185>:
ffffffc080201222:	00006697          	auipc	a3,0x6
ffffffc080201226:	e3e68693          	addi	a3,a3,-450 # ffffffc080207060 <__stop_linkm2_PAGE_FAULT>
ffffffc08020122a:	ec2a                	sd	a0,24(sp)
ffffffc08020122c:	0cd66b63          	bltu	a2,a3,ffffffc080201302 <.Lpcrel_hi199+0x42>

ffffffc080201230 <.Lpcrel_hi189>:
ffffffc080201230:	00006617          	auipc	a2,0x6
ffffffc080201234:	e2860413          	addi	s0,a2,-472 # ffffffc080207058 <_ZN5axhal4trap10PAGE_FAULT8DUPCHECK17hb771d1f2dec1e58fE>

ffffffc080201238 <.Lpcrel_hi190>:
ffffffc080201238:	00006617          	auipc	a2,0x6
ffffffc08020123c:	e2060613          	addi	a2,a2,-480 # ffffffc080207058 <_ZN5axhal4trap10PAGE_FAULT8DUPCHECK17hb771d1f2dec1e58fE>
ffffffc080201240:	8e01                	sub	a2,a2,s0
ffffffc080201242:	46a1                	li	a3,8
ffffffc080201244:	0ed66b63          	bltu	a2,a3,ffffffc08020133a <.Lpcrel_hi191>
ffffffc080201248:	0ad60063          	beq	a2,a3,ffffffc0802012e8 <.Lpcrel_hi199+0x28>

ffffffc08020124c <.Lpcrel_hi192>:
ffffffc08020124c:	00048617          	auipc	a2,0x48
ffffffc080201250:	e4463603          	ld	a2,-444(a2) # ffffffc080249090 <_ZN3log20MAX_LOG_LEVEL_FILTER17ha1f6027dc31f6649E.0>
ffffffc080201254:	4689                	li	a3,2
ffffffc080201256:	08d66963          	bltu	a2,a3,ffffffc0802012e8 <.Lpcrel_hi199+0x28>

ffffffc08020125a <.Lpcrel_hi193>:
ffffffc08020125a:	00048617          	auipc	a2,0x48
ffffffc08020125e:	e2e63783          	ld	a5,-466(a2) # ffffffc080249088 <_ZN3log5STATE17h82db28ebc6c403a6E>
ffffffc080201262:	0230000f          	fence	r,rw
ffffffc080201266:	02d78063          	beq	a5,a3,ffffffc080201286 <.Lpcrel_hi194>

ffffffc08020126a <.Lpcrel_hi195>:
ffffffc08020126a:	00004617          	auipc	a2,0x4
ffffffc08020126e:	38660613          	addi	a2,a2,902 # ffffffc0802055f0 <.Lanon.f39d08480f7773be82bf088a10543c94.0>
ffffffc080201272:	4705                	li	a4,1
ffffffc080201274:	89aa                	mv	s3,a0
ffffffc080201276:	8a2e                	mv	s4,a1
ffffffc080201278:	02d78063          	beq	a5,a3,ffffffc080201298 <.Lpcrel_hi194+0x12>

ffffffc08020127c <.Lpcrel_hi196>:
ffffffc08020127c:	00004517          	auipc	a0,0x4
ffffffc080201280:	3a450513          	addi	a0,a0,932 # ffffffc080205620 <.Lanon.3cf6065fb3bc5c8a6dbd7ebdc6e6fed3.2>
ffffffc080201284:	a819                	j	ffffffc08020129a <.Lpcrel_hi194+0x14>

ffffffc080201286 <.Lpcrel_hi194>:
ffffffc080201286:	00006617          	auipc	a2,0x6
ffffffc08020128a:	dba63603          	ld	a2,-582(a2) # ffffffc080207040 <_ZN3log6LOGGER17ha416a0c03de1f01fE.1>
ffffffc08020128e:	4705                	li	a4,1
ffffffc080201290:	89aa                	mv	s3,a0
ffffffc080201292:	8a2e                	mv	s4,a1
ffffffc080201294:	fed794e3          	bne	a5,a3,ffffffc08020127c <.Lpcrel_hi196>
ffffffc080201298:	4505                	li	a0,1
ffffffc08020129a:	f1b6                	sd	a3,224(sp)

ffffffc08020129c <.Lpcrel_hi197>:
ffffffc08020129c:	00003597          	auipc	a1,0x3
ffffffc0802012a0:	15c58593          	addi	a1,a1,348 # ffffffc0802043f8 <.Lanon.c0305fa26fbb8783b10acb09d8a7a5c4.37>
ffffffc0802012a4:	f5ae                	sd	a1,232(sp)
ffffffc0802012a6:	46e1                	li	a3,24
ffffffc0802012a8:	f9b6                	sd	a3,240(sp)

ffffffc0802012aa <.Lpcrel_hi198>:
ffffffc0802012aa:	00003797          	auipc	a5,0x3
ffffffc0802012ae:	13e78793          	addi	a5,a5,318 # ffffffc0802043e8 <.Lanon.c0305fa26fbb8783b10acb09d8a7a5c4.36>
ffffffc0802012b2:	e23e                	sd	a5,256(sp)
ffffffc0802012b4:	e63a                	sd	a4,264(sp)
ffffffc0802012b6:	03b8                	addi	a4,sp,456
ffffffc0802012b8:	ea3a                	sd	a4,272(sp)
ffffffc0802012ba:	ee02                	sd	zero,280(sp)
ffffffc0802012bc:	f202                	sd	zero,288(sp)
ffffffc0802012be:	f902                	sd	zero,176(sp)

ffffffc0802012c0 <.Lpcrel_hi199>:
ffffffc0802012c0:	00003717          	auipc	a4,0x3
ffffffc0802012c4:	15070713          	addi	a4,a4,336 # ffffffc080204410 <.Lanon.c0305fa26fbb8783b10acb09d8a7a5c4.38>
ffffffc0802012c8:	e9ba                	sd	a4,208(sp)
ffffffc0802012ca:	02400713          	li	a4,36
ffffffc0802012ce:	edba                	sd	a4,216(sp)
ffffffc0802012d0:	470d                	li	a4,3
ffffffc0802012d2:	170e                	slli	a4,a4,0x23
ffffffc0802012d4:	0705                	addi	a4,a4,1
ffffffc0802012d6:	fdba                	sd	a4,248(sp)
ffffffc0802012d8:	7210                	ld	a2,32(a2)
ffffffc0802012da:	fd2e                	sd	a1,184(sp)
ffffffc0802012dc:	e1b6                	sd	a3,192(sp)
ffffffc0802012de:	e582                	sd	zero,200(sp)
ffffffc0802012e0:	190c                	addi	a1,sp,176
ffffffc0802012e2:	9602                	jalr	a2
ffffffc0802012e4:	85d2                	mv	a1,s4
ffffffc0802012e6:	854e                	mv	a0,s3
ffffffc0802012e8:	6014                	ld	a3,0(s0)
ffffffc0802012ea:	8626                	mv	a2,s1
ffffffc0802012ec:	9682                	jalr	a3
ffffffc0802012ee:	c159                	beqz	a0,ffffffc080201374 <.Lpcrel_hi210+0x16>
ffffffc0802012f0:	70fe                	ld	ra,504(sp)
ffffffc0802012f2:	745e                	ld	s0,496(sp)
ffffffc0802012f4:	74be                	ld	s1,488(sp)
ffffffc0802012f6:	791e                	ld	s2,480(sp)
ffffffc0802012f8:	69fe                	ld	s3,472(sp)
ffffffc0802012fa:	6a5e                	ld	s4,464(sp)
ffffffc0802012fc:	20010113          	addi	sp,sp,512
ffffffc080201300:	8082                	ret
ffffffc080201302:	0888                	addi	a0,sp,80
ffffffc080201304:	f02a                	sd	a0,32(sp)

ffffffc080201306 <.Lpcrel_hi186>:
ffffffc080201306:	00001517          	auipc	a0,0x1
ffffffc08020130a:	f2050513          	addi	a0,a0,-224 # ffffffc080202226 <_ZN44_$LT$$RF$T$u20$as$u20$core..fmt..Display$GT$3fmt17h08215a0f3cae4f5bE>
ffffffc08020130e:	f42a                	sd	a0,40(sp)

ffffffc080201310 <.Lpcrel_hi187>:
ffffffc080201310:	00003517          	auipc	a0,0x3
ffffffc080201314:	fb050513          	addi	a0,a0,-80 # ffffffc0802042c0 <.Lanon.c0305fa26fbb8783b10acb09d8a7a5c4.16>
ffffffc080201318:	f92a                	sd	a0,176(sp)
ffffffc08020131a:	4509                	li	a0,2
ffffffc08020131c:	fd2a                	sd	a0,184(sp)
ffffffc08020131e:	e982                	sd	zero,208(sp)
ffffffc080201320:	1008                	addi	a0,sp,32
ffffffc080201322:	e1aa                	sd	a0,192(sp)
ffffffc080201324:	4505                	li	a0,1
ffffffc080201326:	e5aa                	sd	a0,200(sp)

ffffffc080201328 <.Lpcrel_hi188>:
ffffffc080201328:	00003517          	auipc	a0,0x3
ffffffc08020132c:	02850593          	addi	a1,a0,40 # ffffffc080204350 <.Lanon.c0305fa26fbb8783b10acb09d8a7a5c4.18>
ffffffc080201330:	1908                	addi	a0,sp,176
ffffffc080201332:	00001097          	auipc	ra,0x1
ffffffc080201336:	0f0080e7          	jalr	240(ra) # ffffffc080202422 <_ZN4core9panicking9panic_fmt17h11ec9af140fca503E>

ffffffc08020133a <.Lpcrel_hi191>:
ffffffc08020133a:	00048517          	auipc	a0,0x48
ffffffc08020133e:	d5653503          	ld	a0,-682(a0) # ffffffc080249090 <_ZN3log20MAX_LOG_LEVEL_FILTER17ha1f6027dc31f6649E.0>
ffffffc080201342:	4589                	li	a1,2
ffffffc080201344:	02b56863          	bltu	a0,a1,ffffffc080201374 <.Lpcrel_hi210+0x16>

ffffffc080201348 <.Lpcrel_hi209>:
ffffffc080201348:	00003517          	auipc	a0,0x3
ffffffc08020134c:	15050513          	addi	a0,a0,336 # ffffffc080204498 <.Lanon.c0305fa26fbb8783b10acb09d8a7a5c4.41>
ffffffc080201350:	f92a                	sd	a0,176(sp)
ffffffc080201352:	4505                	li	a0,1
ffffffc080201354:	fd2a                	sd	a0,184(sp)
ffffffc080201356:	e982                	sd	zero,208(sp)
ffffffc080201358:	03a8                	addi	a0,sp,456
ffffffc08020135a:	e1aa                	sd	a0,192(sp)
ffffffc08020135c:	e582                	sd	zero,200(sp)

ffffffc08020135e <.Lpcrel_hi210>:
ffffffc08020135e:	00003517          	auipc	a0,0x3
ffffffc080201362:	0da50613          	addi	a2,a0,218 # ffffffc080204438 <.Lanon.c0305fa26fbb8783b10acb09d8a7a5c4.39>
ffffffc080201366:	1908                	addi	a0,sp,176
ffffffc080201368:	4589                	li	a1,2
ffffffc08020136a:	46e1                	li	a3,24
ffffffc08020136c:	00002097          	auipc	ra,0x2
ffffffc080201370:	416080e7          	jalr	1046(ra) # ffffffc080203782 <_ZN3log13__private_api8log_impl17h8ff5c7eb18f9ca8bE>
ffffffc080201374:	4511                	li	a0,4
ffffffc080201376:	e499                	bnez	s1,ffffffc080201384 <.Lpcrel_hi200>

ffffffc080201378 <.Lpcrel_hi201>:
ffffffc080201378:	00003597          	auipc	a1,0x3
ffffffc08020137c:	1b058593          	addi	a1,a1,432 # ffffffc080204528 <.Lanon.c0305fa26fbb8783b10acb09d8a7a5c4.48>
ffffffc080201380:	4629                	li	a2,10
ffffffc080201382:	a031                	j	ffffffc08020138e <.Lpcrel_hi200+0xa>

ffffffc080201384 <.Lpcrel_hi200>:
ffffffc080201384:	00003597          	auipc	a1,0x3
ffffffc080201388:	ce058593          	addi	a1,a1,-800 # ffffffc080204064 <.Lanon.fad58de7366495db4650cfefac2fcd61.3+0x2c>
ffffffc08020138c:	4611                	li	a2,4
ffffffc08020138e:	f12e                	sd	a1,160(sp)
ffffffc080201390:	f532                	sd	a2,168(sp)
ffffffc080201392:	0f890593          	addi	a1,s2,248 # ffffffffc08010f8 <_ebss+0x3f405b70f8>
ffffffc080201396:	1110                	addi	a2,sp,160
ffffffc080201398:	e8b2                	sd	a2,80(sp)

ffffffc08020139a <.Lpcrel_hi202>:
ffffffc08020139a:	00001617          	auipc	a2,0x1
ffffffc08020139e:	e8c60613          	addi	a2,a2,-372 # ffffffc080202226 <_ZN44_$LT$$RF$T$u20$as$u20$core..fmt..Display$GT$3fmt17h08215a0f3cae4f5bE>
ffffffc0802013a2:	ecb2                	sd	a2,88(sp)
ffffffc0802013a4:	f0ae                	sd	a1,96(sp)

ffffffc0802013a6 <.Lpcrel_hi203>:
ffffffc0802013a6:	00002597          	auipc	a1,0x2
ffffffc0802013aa:	08258593          	addi	a1,a1,130 # ffffffc080203428 <_ZN4core3fmt3num53_$LT$impl$u20$core..fmt..LowerHex$u20$for$u20$i64$GT$3fmt17h32e4bad511e5cf9eE>
ffffffc0802013ae:	f4ae                	sd	a1,104(sp)
ffffffc0802013b0:	082c                	addi	a1,sp,24
ffffffc0802013b2:	f8ae                	sd	a1,112(sp)

ffffffc0802013b4 <.Lpcrel_hi204>:
ffffffc0802013b4:	00002597          	auipc	a1,0x2
ffffffc0802013b8:	47058593          	addi	a1,a1,1136 # ffffffc080203824 <_ZN67_$LT$memory_addr..addr..VirtAddr$u20$as$u20$core..fmt..LowerHex$GT$3fmt17he7894eafdcfde86cE>
ffffffc0802013bc:	fcae                	sd	a1,120(sp)
ffffffc0802013be:	080c                	addi	a1,sp,16
ffffffc0802013c0:	e12e                	sd	a1,128(sp)

ffffffc0802013c2 <.Lpcrel_hi205>:
ffffffc0802013c2:	00002597          	auipc	a1,0x2
ffffffc0802013c6:	53258593          	addi	a1,a1,1330 # ffffffc0802038f4 <_ZN67_$LT$page_table_entry..MappingFlags$u20$as$u20$core..fmt..Debug$GT$3fmt17h1873c2c625567776E>
ffffffc0802013ca:	e52e                	sd	a1,136(sp)
ffffffc0802013cc:	002c                	addi	a1,sp,8
ffffffc0802013ce:	e92e                	sd	a1,144(sp)

ffffffc0802013d0 <.Lpcrel_hi206>:
ffffffc0802013d0:	00000597          	auipc	a1,0x0
ffffffc0802013d4:	08a58593          	addi	a1,a1,138 # ffffffc08020145a <_ZN42_$LT$$RF$T$u20$as$u20$core..fmt..Debug$GT$3fmt17h39a64db73507cba9E>
ffffffc0802013d8:	ed2e                	sd	a1,152(sp)
ffffffc0802013da:	4589                	li	a1,2
ffffffc0802013dc:	f92e                	sd	a1,176(sp)
ffffffc0802013de:	e1ae                	sd	a1,192(sp)
ffffffc0802013e0:	e982                	sd	zero,208(sp)
ffffffc0802013e2:	02000613          	li	a2,32
ffffffc0802013e6:	edb2                	sd	a2,216(sp)
ffffffc0802013e8:	468d                	li	a3,3
ffffffc0802013ea:	0ed10023          	sb	a3,224(sp)
ffffffc0802013ee:	f5ae                	sd	a1,232(sp)
ffffffc0802013f0:	fdae                	sd	a1,248(sp)
ffffffc0802013f2:	4705                	li	a4,1
ffffffc0802013f4:	e63a                	sd	a4,264(sp)
ffffffc0802013f6:	170a                	slli	a4,a4,0x22
ffffffc0802013f8:	02070713          	addi	a4,a4,32
ffffffc0802013fc:	ea3a                	sd	a4,272(sp)
ffffffc0802013fe:	10d10c23          	sb	a3,280(sp)
ffffffc080201402:	f22e                	sd	a1,288(sp)
ffffffc080201404:	fa2e                	sd	a1,304(sp)
ffffffc080201406:	e2ae                	sd	a1,320(sp)
ffffffc080201408:	e6ba                	sd	a4,328(sp)
ffffffc08020140a:	14d10823          	sb	a3,336(sp)
ffffffc08020140e:	eeae                	sd	a1,344(sp)
ffffffc080201410:	f6ae                	sd	a1,360(sp)
ffffffc080201412:	feb6                	sd	a3,376(sp)
ffffffc080201414:	e332                	sd	a2,384(sp)
ffffffc080201416:	18d10423          	sb	a3,392(sp)
ffffffc08020141a:	eb2e                	sd	a1,400(sp)
ffffffc08020141c:	f32e                	sd	a1,416(sp)
ffffffc08020141e:	fb2a                	sd	a0,432(sp)
ffffffc080201420:	4515                	li	a0,5
ffffffc080201422:	02251593          	slli	a1,a0,0x22
ffffffc080201426:	02058593          	addi	a1,a1,32
ffffffc08020142a:	ff2e                	sd	a1,440(sp)
ffffffc08020142c:	1cd10023          	sb	a3,448(sp)

ffffffc080201430 <.Lpcrel_hi207>:
ffffffc080201430:	00003597          	auipc	a1,0x3
ffffffc080201434:	0a858593          	addi	a1,a1,168 # ffffffc0802044d8 <.Lanon.c0305fa26fbb8783b10acb09d8a7a5c4.47>
ffffffc080201438:	f02e                	sd	a1,32(sp)
ffffffc08020143a:	f42a                	sd	a0,40(sp)
ffffffc08020143c:	190c                	addi	a1,sp,176
ffffffc08020143e:	e0ae                	sd	a1,64(sp)
ffffffc080201440:	e4aa                	sd	a0,72(sp)
ffffffc080201442:	088c                	addi	a1,sp,80
ffffffc080201444:	f82e                	sd	a1,48(sp)
ffffffc080201446:	fc2a                	sd	a0,56(sp)

ffffffc080201448 <.Lpcrel_hi208>:
ffffffc080201448:	00003517          	auipc	a0,0x3
ffffffc08020144c:	0f050593          	addi	a1,a0,240 # ffffffc080204538 <.Lanon.c0305fa26fbb8783b10acb09d8a7a5c4.50>
ffffffc080201450:	1008                	addi	a0,sp,32
ffffffc080201452:	00001097          	auipc	ra,0x1
ffffffc080201456:	fd0080e7          	jalr	-48(ra) # ffffffc080202422 <_ZN4core9panicking9panic_fmt17h11ec9af140fca503E>

ffffffc08020145a <_ZN42_$LT$$RF$T$u20$as$u20$core..fmt..Debug$GT$3fmt17h39a64db73507cba9E>:
ffffffc08020145a:	1141                	addi	sp,sp,-16
ffffffc08020145c:	e406                	sd	ra,8(sp)
ffffffc08020145e:	6118                	ld	a4,0(a0)
ffffffc080201460:	852e                	mv	a0,a1
ffffffc080201462:	0f870613          	addi	a2,a4,248
ffffffc080201466:	10070593          	addi	a1,a4,256
ffffffc08020146a:	e02e                	sd	a1,0(sp)
ffffffc08020146c:	868a                	mv	a3,sp
ffffffc08020146e:	85ba                	mv	a1,a4
ffffffc080201470:	00002097          	auipc	ra,0x2
ffffffc080201474:	038080e7          	jalr	56(ra) # ffffffc0802034a8 <_ZN4core3fmt9Formatter26debug_struct_field3_finish17he8039d0e2eabc108E>
ffffffc080201478:	60a2                	ld	ra,8(sp)
ffffffc08020147a:	0141                	addi	sp,sp,16
ffffffc08020147c:	8082                	ret

ffffffc08020147e <_ZN4core3ptr26drop_in_place$LT$usize$GT$17h688718cdd377c4d8E>:
ffffffc08020147e:	8082                	ret

ffffffc080201480 <_ZN4core3fmt3num52_$LT$impl$u20$core..fmt..Debug$u20$for$u20$usize$GT$3fmt17h8a12040044249a2bE>:
ffffffc080201480:	7175                	addi	sp,sp,-144
ffffffc080201482:	e506                	sd	ra,136(sp)
ffffffc080201484:	0345e603          	lwu	a2,52(a1)
ffffffc080201488:	01067693          	andi	a3,a2,16
ffffffc08020148c:	ea99                	bnez	a3,ffffffc0802014a2 <_ZN4core3fmt3num52_$LT$impl$u20$core..fmt..Debug$u20$for$u20$usize$GT$3fmt17h8a12040044249a2bE+0x22>
ffffffc08020148e:	02067613          	andi	a2,a2,32
ffffffc080201492:	ee39                	bnez	a2,ffffffc0802014f0 <.Lpcrel_hi212+0xa>
ffffffc080201494:	6108                	ld	a0,0(a0)
ffffffc080201496:	60aa                	ld	ra,136(sp)
ffffffc080201498:	6149                	addi	sp,sp,144
ffffffc08020149a:	00001317          	auipc	t1,0x1
ffffffc08020149e:	01230067          	jr	18(t1) # ffffffc0802024ac <_ZN4core3fmt3num3imp7fmt_u6417h5142f3088252957cE>
ffffffc0802014a2:	6108                	ld	a0,0(a0)
ffffffc0802014a4:	08100713          	li	a4,129
ffffffc0802014a8:	08710613          	addi	a2,sp,135
ffffffc0802014ac:	4829                	li	a6,10
ffffffc0802014ae:	a811                	j	ffffffc0802014c2 <_ZN4core3fmt3num52_$LT$impl$u20$core..fmt..Debug$u20$for$u20$usize$GT$3fmt17h8a12040044249a2bE+0x42>
ffffffc0802014b0:	05768713          	addi	a4,a3,87
ffffffc0802014b4:	8111                	srli	a0,a0,0x4
ffffffc0802014b6:	00e60023          	sb	a4,0(a2)
ffffffc0802014ba:	167d                	addi	a2,a2,-1
ffffffc0802014bc:	fff78713          	addi	a4,a5,-1
ffffffc0802014c0:	c909                	beqz	a0,ffffffc0802014d2 <_ZN4core3fmt3num52_$LT$impl$u20$core..fmt..Debug$u20$for$u20$usize$GT$3fmt17h8a12040044249a2bE+0x52>
ffffffc0802014c2:	00f57693          	andi	a3,a0,15
ffffffc0802014c6:	87ba                	mv	a5,a4
ffffffc0802014c8:	ff06f4e3          	bgeu	a3,a6,ffffffc0802014b0 <_ZN4core3fmt3num52_$LT$impl$u20$core..fmt..Debug$u20$for$u20$usize$GT$3fmt17h8a12040044249a2bE+0x30>
ffffffc0802014cc:	03068713          	addi	a4,a3,48
ffffffc0802014d0:	b7d5                	j	ffffffc0802014b4 <_ZN4core3fmt3num52_$LT$impl$u20$core..fmt..Debug$u20$for$u20$usize$GT$3fmt17h8a12040044249a2bE+0x34>
ffffffc0802014d2:	ffe78513          	addi	a0,a5,-2
ffffffc0802014d6:	08100613          	li	a2,129
ffffffc0802014da:	06c57b63          	bgeu	a0,a2,ffffffc080201550 <.Lpcrel_hi211>
ffffffc0802014de:	40e60733          	sub	a4,a2,a4
ffffffc0802014e2:	0034                	addi	a3,sp,8
ffffffc0802014e4:	96aa                	add	a3,a3,a0

ffffffc0802014e6 <.Lpcrel_hi212>:
ffffffc0802014e6:	00004517          	auipc	a0,0x4
ffffffc0802014ea:	15250793          	addi	a5,a0,338 # ffffffc080205638 <.Lanon.3bf094dc287819aacaa24632947359b8.2>
ffffffc0802014ee:	a0b9                	j	ffffffc08020153c <.Lpcrel_hi214+0x8>
ffffffc0802014f0:	6108                	ld	a0,0(a0)
ffffffc0802014f2:	08100713          	li	a4,129
ffffffc0802014f6:	08710613          	addi	a2,sp,135
ffffffc0802014fa:	4829                	li	a6,10
ffffffc0802014fc:	a811                	j	ffffffc080201510 <.Lpcrel_hi212+0x2a>
ffffffc0802014fe:	03768713          	addi	a4,a3,55
ffffffc080201502:	8111                	srli	a0,a0,0x4
ffffffc080201504:	00e60023          	sb	a4,0(a2)
ffffffc080201508:	167d                	addi	a2,a2,-1
ffffffc08020150a:	fff78713          	addi	a4,a5,-1
ffffffc08020150e:	c909                	beqz	a0,ffffffc080201520 <.Lpcrel_hi212+0x3a>
ffffffc080201510:	00f57693          	andi	a3,a0,15
ffffffc080201514:	87ba                	mv	a5,a4
ffffffc080201516:	ff06f4e3          	bgeu	a3,a6,ffffffc0802014fe <.Lpcrel_hi212+0x18>
ffffffc08020151a:	03068713          	addi	a4,a3,48
ffffffc08020151e:	b7d5                	j	ffffffc080201502 <.Lpcrel_hi212+0x1c>
ffffffc080201520:	ffe78513          	addi	a0,a5,-2
ffffffc080201524:	08100613          	li	a2,129
ffffffc080201528:	02c57e63          	bgeu	a0,a2,ffffffc080201564 <.Lpcrel_hi213>
ffffffc08020152c:	40e60733          	sub	a4,a2,a4
ffffffc080201530:	0034                	addi	a3,sp,8
ffffffc080201532:	96aa                	add	a3,a3,a0

ffffffc080201534 <.Lpcrel_hi214>:
ffffffc080201534:	00004517          	auipc	a0,0x4
ffffffc080201538:	10450793          	addi	a5,a0,260 # ffffffc080205638 <.Lanon.3bf094dc287819aacaa24632947359b8.2>
ffffffc08020153c:	4609                	li	a2,2
ffffffc08020153e:	852e                	mv	a0,a1
ffffffc080201540:	85be                	mv	a1,a5
ffffffc080201542:	00001097          	auipc	ra,0x1
ffffffc080201546:	0ac080e7          	jalr	172(ra) # ffffffc0802025ee <_ZN4core3fmt9Formatter12pad_integral17h8b1ffde32503eca3E>
ffffffc08020154a:	60aa                	ld	ra,136(sp)
ffffffc08020154c:	6149                	addi	sp,sp,144
ffffffc08020154e:	8082                	ret

ffffffc080201550 <.Lpcrel_hi211>:
ffffffc080201550:	00004597          	auipc	a1,0x4
ffffffc080201554:	f6858613          	addi	a2,a1,-152 # ffffffc0802054b8 <.Lanon.c308b1a5a0a97bdc8edd9b96ba25ee05.312>
ffffffc080201558:	08000593          	li	a1,128
ffffffc08020155c:	00001097          	auipc	ra,0x1
ffffffc080201560:	f28080e7          	jalr	-216(ra) # ffffffc080202484 <_ZN4core5slice5index26slice_start_index_len_fail17h9a8c132d7bd51700E>

ffffffc080201564 <.Lpcrel_hi213>:
ffffffc080201564:	00004597          	auipc	a1,0x4
ffffffc080201568:	f5458613          	addi	a2,a1,-172 # ffffffc0802054b8 <.Lanon.c308b1a5a0a97bdc8edd9b96ba25ee05.312>
ffffffc08020156c:	08000593          	li	a1,128
ffffffc080201570:	00001097          	auipc	ra,0x1
ffffffc080201574:	f14080e7          	jalr	-236(ra) # ffffffc080202484 <_ZN4core5slice5index26slice_start_index_len_fail17h9a8c132d7bd51700E>

ffffffc080201578 <_ZN82_$LT$axhal..arch..riscv..context..GeneralRegisters$u20$as$u20$core..fmt..Debug$GT$3fmt17hb98b6a9ad014a72dE>:
ffffffc080201578:	dd010113          	addi	sp,sp,-560
ffffffc08020157c:	22113423          	sd	ra,552(sp)
ffffffc080201580:	22813023          	sd	s0,544(sp)
ffffffc080201584:	20913c23          	sd	s1,536(sp)
ffffffc080201588:	21213823          	sd	s2,528(sp)
ffffffc08020158c:	21313423          	sd	s3,520(sp)
ffffffc080201590:	842e                	mv	s0,a1
ffffffc080201592:	01050593          	addi	a1,a0,16
ffffffc080201596:	0f050613          	addi	a2,a0,240
ffffffc08020159a:	fbb2                	sd	a2,496(sp)
ffffffc08020159c:	01850613          	addi	a2,a0,24
ffffffc0802015a0:	f02e                	sd	a1,32(sp)
ffffffc0802015a2:	02050593          	addi	a1,a0,32
ffffffc0802015a6:	f832                	sd	a2,48(sp)
ffffffc0802015a8:	02850613          	addi	a2,a0,40
ffffffc0802015ac:	e0ae                	sd	a1,64(sp)
ffffffc0802015ae:	03050593          	addi	a1,a0,48
ffffffc0802015b2:	e8b2                	sd	a2,80(sp)
ffffffc0802015b4:	03850613          	addi	a2,a0,56
ffffffc0802015b8:	f0ae                	sd	a1,96(sp)
ffffffc0802015ba:	04050593          	addi	a1,a0,64
ffffffc0802015be:	f8b2                	sd	a2,112(sp)
ffffffc0802015c0:	04850613          	addi	a2,a0,72
ffffffc0802015c4:	e12e                	sd	a1,128(sp)
ffffffc0802015c6:	05050593          	addi	a1,a0,80
ffffffc0802015ca:	e932                	sd	a2,144(sp)
ffffffc0802015cc:	05850613          	addi	a2,a0,88
ffffffc0802015d0:	f12e                	sd	a1,160(sp)
ffffffc0802015d2:	06050593          	addi	a1,a0,96
ffffffc0802015d6:	f932                	sd	a2,176(sp)
ffffffc0802015d8:	06850613          	addi	a2,a0,104
ffffffc0802015dc:	e1ae                	sd	a1,192(sp)
ffffffc0802015de:	07050593          	addi	a1,a0,112
ffffffc0802015e2:	e9b2                	sd	a2,208(sp)
ffffffc0802015e4:	07850613          	addi	a2,a0,120
ffffffc0802015e8:	f1ae                	sd	a1,224(sp)
ffffffc0802015ea:	08050593          	addi	a1,a0,128
ffffffc0802015ee:	f9b2                	sd	a2,240(sp)
ffffffc0802015f0:	08850613          	addi	a2,a0,136
ffffffc0802015f4:	e22e                	sd	a1,256(sp)
ffffffc0802015f6:	09050593          	addi	a1,a0,144
ffffffc0802015fa:	ea32                	sd	a2,272(sp)
ffffffc0802015fc:	09850613          	addi	a2,a0,152
ffffffc080201600:	f22e                	sd	a1,288(sp)
ffffffc080201602:	0a050593          	addi	a1,a0,160
ffffffc080201606:	fa32                	sd	a2,304(sp)
ffffffc080201608:	0a850613          	addi	a2,a0,168
ffffffc08020160c:	e2ae                	sd	a1,320(sp)
ffffffc08020160e:	0b050593          	addi	a1,a0,176
ffffffc080201612:	eab2                	sd	a2,336(sp)
ffffffc080201614:	0b850613          	addi	a2,a0,184
ffffffc080201618:	f2ae                	sd	a1,352(sp)
ffffffc08020161a:	0c050593          	addi	a1,a0,192
ffffffc08020161e:	fab2                	sd	a2,368(sp)
ffffffc080201620:	0c850613          	addi	a2,a0,200
ffffffc080201624:	e32e                	sd	a1,384(sp)
ffffffc080201626:	0d050593          	addi	a1,a0,208
ffffffc08020162a:	eb32                	sd	a2,400(sp)
ffffffc08020162c:	0d850613          	addi	a2,a0,216
ffffffc080201630:	f32e                	sd	a1,416(sp)
ffffffc080201632:	0e050593          	addi	a1,a0,224
ffffffc080201636:	fb32                	sd	a2,432(sp)
ffffffc080201638:	0e850613          	addi	a2,a0,232
ffffffc08020163c:	e3ae                	sd	a1,448(sp)

ffffffc08020163e <.Lpcrel_hi215>:
ffffffc08020163e:	00003597          	auipc	a1,0x3
ffffffc080201642:	2e258593          	addi	a1,a1,738 # ffffffc080204920 <.Lanon.c473fb1a9af64a93c76cfe2c383e01f6.40>
ffffffc080201646:	e42e                	sd	a1,8(sp)
ffffffc080201648:	ec2e                	sd	a1,24(sp)
ffffffc08020164a:	f42e                	sd	a1,40(sp)
ffffffc08020164c:	fc2e                	sd	a1,56(sp)
ffffffc08020164e:	e4ae                	sd	a1,72(sp)
ffffffc080201650:	ecae                	sd	a1,88(sp)
ffffffc080201652:	f4ae                	sd	a1,104(sp)
ffffffc080201654:	fcae                	sd	a1,120(sp)
ffffffc080201656:	e52e                	sd	a1,136(sp)
ffffffc080201658:	ed2e                	sd	a1,152(sp)
ffffffc08020165a:	f52e                	sd	a1,168(sp)
ffffffc08020165c:	fd2e                	sd	a1,184(sp)
ffffffc08020165e:	e5ae                	sd	a1,200(sp)
ffffffc080201660:	edae                	sd	a1,216(sp)
ffffffc080201662:	f5ae                	sd	a1,232(sp)
ffffffc080201664:	fdae                	sd	a1,248(sp)
ffffffc080201666:	e62e                	sd	a1,264(sp)
ffffffc080201668:	ee2e                	sd	a1,280(sp)
ffffffc08020166a:	f62e                	sd	a1,296(sp)
ffffffc08020166c:	fe2e                	sd	a1,312(sp)
ffffffc08020166e:	e6ae                	sd	a1,328(sp)
ffffffc080201670:	eeae                	sd	a1,344(sp)
ffffffc080201672:	f6ae                	sd	a1,360(sp)
ffffffc080201674:	feae                	sd	a1,376(sp)
ffffffc080201676:	e72e                	sd	a1,392(sp)
ffffffc080201678:	ef2e                	sd	a1,408(sp)
ffffffc08020167a:	f72e                	sd	a1,424(sp)
ffffffc08020167c:	ff2e                	sd	a1,440(sp)
ffffffc08020167e:	e7ae                	sd	a1,456(sp)
ffffffc080201680:	ebb2                	sd	a2,464(sp)
ffffffc080201682:	efae                	sd	a1,472(sp)
ffffffc080201684:	1b8c                	addi	a1,sp,496
ffffffc080201686:	f3ae                	sd	a1,480(sp)

ffffffc080201688 <.Lpcrel_hi216>:
ffffffc080201688:	00003597          	auipc	a1,0x3
ffffffc08020168c:	7410                	ld	a2,40(s0)
ffffffc08020168e:	2b858593          	addi	a1,a1,696 # ffffffc080204940 <.Lanon.c473fb1a9af64a93c76cfe2c383e01f6.41>
ffffffc080201692:	f7ae                	sd	a1,488(sp)
ffffffc080201694:	7014                	ld	a3,32(s0)
ffffffc080201696:	6e18                	ld	a4,24(a2)
ffffffc080201698:	e02a                	sd	a0,0(sp)
ffffffc08020169a:	0521                	addi	a0,a0,8
ffffffc08020169c:	e82a                	sd	a0,16(sp)

ffffffc08020169e <.Lpcrel_hi217>:
ffffffc08020169e:	00003517          	auipc	a0,0x3
ffffffc0802016a2:	b2250593          	addi	a1,a0,-1246 # ffffffc0802041c0 <$d.102+0x40>
ffffffc0802016a6:	4641                	li	a2,16
ffffffc0802016a8:	8536                	mv	a0,a3
ffffffc0802016aa:	9702                	jalr	a4
ffffffc0802016ac:	ffa2                	sd	s0,504(sp)
ffffffc0802016ae:	20a10023          	sb	a0,512(sp)
ffffffc0802016b2:	200100a3          	sb	zero,513(sp)

ffffffc0802016b6 <.Lpcrel_hi218>:
ffffffc0802016b6:	00003517          	auipc	a0,0x3
ffffffc0802016ba:	2f250493          	addi	s1,a0,754 # ffffffc0802049a8 <.Lanon.c473fb1a9af64a93c76cfe2c383e01f6.74+0x8>
ffffffc0802016be:	840a                	mv	s0,sp
ffffffc0802016c0:	1f010993          	addi	s3,sp,496

ffffffc0802016c4 <.Lpcrel_hi219>:
ffffffc0802016c4:	00001517          	auipc	a0,0x1
ffffffc0802016c8:	69c50913          	addi	s2,a0,1692 # ffffffc080202d60 <_ZN42_$LT$$RF$T$u20$as$u20$core..fmt..Debug$GT$3fmt17h9537dceab56d2f80E>
ffffffc0802016cc:	ff84b583          	ld	a1,-8(s1)
ffffffc0802016d0:	6090                	ld	a2,0(s1)
ffffffc0802016d2:	1ba8                	addi	a0,sp,504
ffffffc0802016d4:	86a2                	mv	a3,s0
ffffffc0802016d6:	874a                	mv	a4,s2
ffffffc0802016d8:	00002097          	auipc	ra,0x2
ffffffc0802016dc:	89c080e7          	jalr	-1892(ra) # ffffffc080202f74 <_ZN4core3fmt8builders11DebugStruct5field17h6ad11fbdee0221d3E>
ffffffc0802016e0:	0441                	addi	s0,s0,16
ffffffc0802016e2:	04c1                	addi	s1,s1,16
ffffffc0802016e4:	ff3414e3          	bne	s0,s3,ffffffc0802016cc <.Lpcrel_hi219+0x8>
ffffffc0802016e8:	20114503          	lbu	a0,513(sp)
ffffffc0802016ec:	20014583          	lbu	a1,512(sp)
ffffffc0802016f0:	c10d                	beqz	a0,ffffffc080201712 <.Lpcrel_hi220+0xc>
ffffffc0802016f2:	4505                	li	a0,1
ffffffc0802016f4:	e99d                	bnez	a1,ffffffc08020172a <.Lpcrel_hi221+0xc>
ffffffc0802016f6:	757e                	ld	a0,504(sp)
ffffffc0802016f8:	03454583          	lbu	a1,52(a0)
ffffffc0802016fc:	8991                	andi	a1,a1,4
ffffffc0802016fe:	ed89                	bnez	a1,ffffffc080201718 <.Lpcrel_hi220+0x12>
ffffffc080201700:	750c                	ld	a1,40(a0)
ffffffc080201702:	7108                	ld	a0,32(a0)
ffffffc080201704:	6d94                	ld	a3,24(a1)

ffffffc080201706 <.Lpcrel_hi220>:
ffffffc080201706:	00004597          	auipc	a1,0x4
ffffffc08020170a:	d8d58593          	addi	a1,a1,-627 # ffffffc080205493 <.Lanon.c308b1a5a0a97bdc8edd9b96ba25ee05.294>
ffffffc08020170e:	4609                	li	a2,2
ffffffc080201710:	a821                	j	ffffffc080201728 <.Lpcrel_hi221+0xa>
ffffffc080201712:	00b03533          	snez	a0,a1
ffffffc080201716:	a811                	j	ffffffc08020172a <.Lpcrel_hi221+0xc>
ffffffc080201718:	750c                	ld	a1,40(a0)
ffffffc08020171a:	7108                	ld	a0,32(a0)
ffffffc08020171c:	6d94                	ld	a3,24(a1)

ffffffc08020171e <.Lpcrel_hi221>:
ffffffc08020171e:	00004597          	auipc	a1,0x4
ffffffc080201722:	d7458593          	addi	a1,a1,-652 # ffffffc080205492 <.Lanon.c308b1a5a0a97bdc8edd9b96ba25ee05.293>
ffffffc080201726:	4605                	li	a2,1
ffffffc080201728:	9682                	jalr	a3
ffffffc08020172a:	22813083          	ld	ra,552(sp)
ffffffc08020172e:	22013403          	ld	s0,544(sp)
ffffffc080201732:	21813483          	ld	s1,536(sp)
ffffffc080201736:	21013903          	ld	s2,528(sp)
ffffffc08020173a:	20813983          	ld	s3,520(sp)
ffffffc08020173e:	23010113          	addi	sp,sp,560
ffffffc080201742:	8082                	ret

ffffffc080201744 <_ZN42_$LT$$RF$T$u20$as$u20$core..fmt..Debug$GT$3fmt17h44123029f32ec905E>:
ffffffc080201744:	6108                	ld	a0,0(a0)
ffffffc080201746:	6108                	ld	a0,0(a0)
ffffffc080201748:	050e                	slli	a0,a0,0x3
ffffffc08020174a:	1561                	addi	a0,a0,-8

ffffffc08020174c <.Lpcrel_hi222>:
ffffffc08020174c:	00004617          	auipc	a2,0x4
ffffffc080201750:	01460613          	addi	a2,a2,20 # ffffffc080205760 <.Lswitch.table._ZN42_$LT$$RF$T$u20$as$u20$core..fmt..Debug$GT$3fmt17h44123029f32ec905E>
ffffffc080201754:	962a                	add	a2,a2,a0

ffffffc080201756 <.Lpcrel_hi223>:
ffffffc080201756:	00004697          	auipc	a3,0x4
ffffffc08020175a:	05a68693          	addi	a3,a3,90 # ffffffc0802057b0 <.Lswitch.table._ZN42_$LT$$RF$T$u20$as$u20$core..fmt..Debug$GT$3fmt17h44123029f32ec905E.184>
ffffffc08020175e:	9536                	add	a0,a0,a3
ffffffc080201760:	7598                	ld	a4,40(a1)
ffffffc080201762:	6210                	ld	a2,0(a2)
ffffffc080201764:	6114                	ld	a3,0(a0)
ffffffc080201766:	7188                	ld	a0,32(a1)
ffffffc080201768:	6f1c                	ld	a5,24(a4)
ffffffc08020176a:	85b6                	mv	a1,a3
ffffffc08020176c:	8782                	jr	a5

ffffffc08020176e <_ZN42_$LT$$RF$T$u20$as$u20$core..fmt..Debug$GT$3fmt17h936243d9c2958897E>:
ffffffc08020176e:	6108                	ld	a0,0(a0)
ffffffc080201770:	6108                	ld	a0,0(a0)
ffffffc080201772:	050e                	slli	a0,a0,0x3

ffffffc080201774 <.Lpcrel_hi224>:
ffffffc080201774:	00004617          	auipc	a2,0x4
ffffffc080201778:	08c60613          	addi	a2,a2,140 # ffffffc080205800 <.Lswitch.table._ZN42_$LT$$RF$T$u20$as$u20$core..fmt..Debug$GT$3fmt17h936243d9c2958897E>
ffffffc08020177c:	962a                	add	a2,a2,a0

ffffffc08020177e <.Lpcrel_hi225>:
ffffffc08020177e:	00004697          	auipc	a3,0x4
ffffffc080201782:	10a68693          	addi	a3,a3,266 # ffffffc080205888 <.Lswitch.table._ZN42_$LT$$RF$T$u20$as$u20$core..fmt..Debug$GT$3fmt17h936243d9c2958897E.185>
ffffffc080201786:	9536                	add	a0,a0,a3
ffffffc080201788:	7598                	ld	a4,40(a1)
ffffffc08020178a:	6210                	ld	a2,0(a2)
ffffffc08020178c:	6114                	ld	a3,0(a0)
ffffffc08020178e:	7188                	ld	a0,32(a1)
ffffffc080201790:	6f1c                	ld	a5,24(a4)
ffffffc080201792:	85b6                	mv	a1,a3
ffffffc080201794:	8782                	jr	a5

ffffffc080201796 <_ZN5axhal3cpu12init_primary17h7140126b1399deffE>:
ffffffc080201796:	000005b7          	lui	a1,0x0
ffffffc08020179a:	00958593          	addi	a1,a1,9 # 9 <_percpu_load_end>
ffffffc08020179e:	000005b7          	lui	a1,0x0
ffffffc0802017a2:	00058593          	mv	a1,a1
ffffffc0802017a6:	000005b7          	lui	a1,0x0
ffffffc0802017aa:	00958593          	addi	a1,a1,9 # 9 <_percpu_load_end>
ffffffc0802017ae:	000005b7          	lui	a1,0x0
ffffffc0802017b2:	00058593          	mv	a1,a1
ffffffc0802017b6:	000005b7          	lui	a1,0x0
ffffffc0802017ba:	00958593          	addi	a1,a1,9 # 9 <_percpu_load_end>
ffffffc0802017be:	00000637          	lui	a2,0x0
ffffffc0802017c2:	00060613          	mv	a2,a2
ffffffc0802017c6:	8d91                	sub	a1,a1,a2
ffffffc0802017c8:	03f58593          	addi	a1,a1,63
ffffffc0802017cc:	fc05f593          	andi	a1,a1,-64
ffffffc0802017d0:	02a585b3          	mul	a1,a1,a0

ffffffc0802017d4 <.Lpcrel_hi226>:
ffffffc0802017d4:	00007617          	auipc	a2,0x7
ffffffc0802017d8:	82c60613          	addi	a2,a2,-2004 # ffffffc080208000 <_percpu_start>
ffffffc0802017dc:	95b2                	add	a1,a1,a2
ffffffc0802017de:	81ae                	mv	gp,a1
ffffffc0802017e0:	000005b7          	lui	a1,0x0
ffffffc0802017e4:	958e                	add	a1,a1,gp
ffffffc0802017e6:	00a5b023          	sd	a0,0(a1) # 0 <_ZN5axhal3cpu15__PERCPU_CPU_ID17hfa613938a927a527E>
ffffffc0802017ea:	4505                	li	a0,1
ffffffc0802017ec:	000005b7          	lui	a1,0x0
ffffffc0802017f0:	958e                	add	a1,a1,gp
ffffffc0802017f2:	00a58423          	sb	a0,8(a1) # 8 <_ZN5axhal3cpu15__PERCPU_IS_BSP17h8ae24ab6d224e61cE>
ffffffc0802017f6:	8082                	ret

ffffffc0802017f8 <_ZN5axhal8platform17riscv64_qemu_virt4boot20init_boot_page_table17hb15703921e95c9efE>:
ffffffc0802017f8:	00005517          	auipc	a0,0x5
ffffffc0802017fc:	80850513          	addi	a0,a0,-2040 # ffffffc080206000 <_ZN5axhal8platform17riscv64_qemu_virt4boot12BOOT_PT_SV3917hcf6c4511daf0214fE>
ffffffc080201800:	0ef00593          	li	a1,239
ffffffc080201804:	e10c                	sd	a1,0(a0)
ffffffc080201806:	20000637          	lui	a2,0x20000
ffffffc08020180a:	0ef6061b          	addiw	a2,a2,239
ffffffc08020180e:	e910                	sd	a2,16(a0)
ffffffc080201810:	7ff50513          	addi	a0,a0,2047
ffffffc080201814:	00b530a3          	sd	a1,1(a0)
ffffffc080201818:	00c538a3          	sd	a2,17(a0)
ffffffc08020181c:	8082                	ret

ffffffc08020181e <_ZN5axhal8platform17riscv64_qemu_virt4boot8init_mmu17h0d5b9a1b21bfd6a1E>:
ffffffc08020181e:	7139                	addi	sp,sp,-64

ffffffc080201820 <.Lpcrel_hi228>:
ffffffc080201820:	00004517          	auipc	a0,0x4
ffffffc080201824:	7e050593          	addi	a1,a0,2016 # ffffffc080206000 <_ZN5axhal8platform17riscv64_qemu_virt4boot12BOOT_PT_SV3917hcf6c4511daf0214fE>
ffffffc080201828:	00c5d513          	srli	a0,a1,0xc
ffffffc08020182c:	e02a                	sd	a0,0(sp)
ffffffc08020182e:	01451613          	slli	a2,a0,0x14
ffffffc080201832:	8251                	srli	a2,a2,0x14
ffffffc080201834:	91e1                	srli	a1,a1,0x38
ffffffc080201836:	e432                	sd	a2,8(sp)
ffffffc080201838:	e991                	bnez	a1,ffffffc08020184c <.Lpcrel_hi229>
ffffffc08020183a:	55fd                	li	a1,-1
ffffffc08020183c:	15fe                	slli	a1,a1,0x3f
ffffffc08020183e:	8d4d                	or	a0,a0,a1
ffffffc080201840:	18051073          	csrw	satp,a0
ffffffc080201844:	12000073          	sfence.vma
ffffffc080201848:	6121                	addi	sp,sp,64
ffffffc08020184a:	8082                	ret

ffffffc08020184c <.Lpcrel_hi229>:
ffffffc08020184c:	00003517          	auipc	a0,0x3
ffffffc080201850:	e6c50513          	addi	a0,a0,-404 # ffffffc0802046b8 <.Lanon.c473fb1a9af64a93c76cfe2c383e01f6.2>
ffffffc080201854:	e82a                	sd	a0,16(sp)
ffffffc080201856:	4505                	li	a0,1
ffffffc080201858:	ec2a                	sd	a0,24(sp)
ffffffc08020185a:	4521                	li	a0,8
ffffffc08020185c:	f02a                	sd	a0,32(sp)
ffffffc08020185e:	f402                	sd	zero,40(sp)
ffffffc080201860:	f802                	sd	zero,48(sp)
ffffffc080201862:	850a                	mv	a0,sp
ffffffc080201864:	002c                	addi	a1,sp,8
ffffffc080201866:	0810                	addi	a2,sp,16
ffffffc080201868:	fffff097          	auipc	ra,0xfffff
ffffffc08020186c:	604080e7          	jalr	1540(ra) # ffffffc080200e6c <_ZN4core9panicking13assert_failed17h6c6f88c81ac2fb35E>

ffffffc080201870 <_ZN5axhal8platform17riscv64_qemu_virt4misc9terminate17h0bc651b4056054b0E>:
ffffffc080201870:	7175                	addi	sp,sp,-144
ffffffc080201872:	e506                	sd	ra,136(sp)
ffffffc080201874:	53525537          	lui	a0,0x53525
ffffffc080201878:	3545089b          	addiw	a7,a0,852
ffffffc08020187c:	4801                	li	a6,0
ffffffc08020187e:	4501                	li	a0,0
ffffffc080201880:	4581                	li	a1,0
ffffffc080201882:	00000073          	ecall

ffffffc080201886 <.Lpcrel_hi230>:
ffffffc080201886:	00048517          	auipc	a0,0x48
ffffffc08020188a:	80a53503          	ld	a0,-2038(a0) # ffffffc080249090 <_ZN3log20MAX_LOG_LEVEL_FILTER17ha1f6027dc31f6649E.0>
ffffffc08020188e:	4609                	li	a2,2
ffffffc080201890:	08c56463          	bltu	a0,a2,ffffffc080201918 <.Lpcrel_hi237+0x24>

ffffffc080201894 <.Lpcrel_hi231>:
ffffffc080201894:	00047517          	auipc	a0,0x47
ffffffc080201898:	7f453503          	ld	a0,2036(a0) # ffffffc080249088 <_ZN3log5STATE17h82db28ebc6c403a6E>
ffffffc08020189c:	0230000f          	fence	r,rw
ffffffc0802018a0:	00c50e63          	beq	a0,a2,ffffffc0802018bc <.Lpcrel_hi232>

ffffffc0802018a4 <.Lpcrel_hi233>:
ffffffc0802018a4:	00004597          	auipc	a1,0x4
ffffffc0802018a8:	d4c58593          	addi	a1,a1,-692 # ffffffc0802055f0 <.Lanon.f39d08480f7773be82bf088a10543c94.0>
ffffffc0802018ac:	4685                	li	a3,1
ffffffc0802018ae:	00c50e63          	beq	a0,a2,ffffffc0802018ca <.Lpcrel_hi232+0xe>

ffffffc0802018b2 <.Lpcrel_hi234>:
ffffffc0802018b2:	00004517          	auipc	a0,0x4
ffffffc0802018b6:	d6e50513          	addi	a0,a0,-658 # ffffffc080205620 <.Lanon.3cf6065fb3bc5c8a6dbd7ebdc6e6fed3.2>
ffffffc0802018ba:	a809                	j	ffffffc0802018cc <.Lpcrel_hi232+0x10>

ffffffc0802018bc <.Lpcrel_hi232>:
ffffffc0802018bc:	00005597          	auipc	a1,0x5
ffffffc0802018c0:	7845b583          	ld	a1,1924(a1) # ffffffc080207040 <_ZN3log6LOGGER17ha416a0c03de1f01fE.1>
ffffffc0802018c4:	4685                	li	a3,1
ffffffc0802018c6:	fec516e3          	bne	a0,a2,ffffffc0802018b2 <.Lpcrel_hi234>
ffffffc0802018ca:	4505                	li	a0,1
ffffffc0802018cc:	fc32                	sd	a2,56(sp)

ffffffc0802018ce <.Lpcrel_hi235>:
ffffffc0802018ce:	00003617          	auipc	a2,0x3
ffffffc0802018d2:	f8260613          	addi	a2,a2,-126 # ffffffc080204850 <.Lanon.c473fb1a9af64a93c76cfe2c383e01f6.35>
ffffffc0802018d6:	e0b2                	sd	a2,64(sp)
ffffffc0802018d8:	02800713          	li	a4,40
ffffffc0802018dc:	e4ba                	sd	a4,72(sp)

ffffffc0802018de <.Lpcrel_hi236>:
ffffffc0802018de:	00003797          	auipc	a5,0x3
ffffffc0802018e2:	f6278793          	addi	a5,a5,-158 # ffffffc080204840 <.Lanon.c473fb1a9af64a93c76cfe2c383e01f6.34>
ffffffc0802018e6:	ecbe                	sd	a5,88(sp)
ffffffc0802018e8:	f0b6                	sd	a3,96(sp)
ffffffc0802018ea:	46a1                	li	a3,8
ffffffc0802018ec:	f4b6                	sd	a3,104(sp)
ffffffc0802018ee:	f882                	sd	zero,112(sp)
ffffffc0802018f0:	fc82                	sd	zero,120(sp)
ffffffc0802018f2:	e402                	sd	zero,8(sp)

ffffffc0802018f4 <.Lpcrel_hi237>:
ffffffc0802018f4:	00003697          	auipc	a3,0x3
ffffffc0802018f8:	f8468693          	addi	a3,a3,-124 # ffffffc080204878 <.Lanon.c473fb1a9af64a93c76cfe2c383e01f6.36>
ffffffc0802018fc:	f436                	sd	a3,40(sp)
ffffffc0802018fe:	03400693          	li	a3,52
ffffffc080201902:	f836                	sd	a3,48(sp)
ffffffc080201904:	4695                	li	a3,5
ffffffc080201906:	1682                	slli	a3,a3,0x20
ffffffc080201908:	0685                	addi	a3,a3,1
ffffffc08020190a:	e8b6                	sd	a3,80(sp)
ffffffc08020190c:	7194                	ld	a3,32(a1)
ffffffc08020190e:	e832                	sd	a2,16(sp)
ffffffc080201910:	ec3a                	sd	a4,24(sp)
ffffffc080201912:	f002                	sd	zero,32(sp)
ffffffc080201914:	002c                	addi	a1,sp,8
ffffffc080201916:	9682                	jalr	a3
ffffffc080201918:	4509                	li	a0,2
ffffffc08020191a:	10053073          	csrc	sstatus,a0
ffffffc08020191e:	10500073          	wfi
ffffffc080201922:	bfe5                	j	ffffffc08020191a <.Lpcrel_hi237+0x26>

ffffffc080201924 <_ZN50_$LT$axlog..Logger$u20$as$u20$core..fmt..Write$GT$9write_str17h7934acddd1dbced3E>:
ffffffc080201924:	ce0d                	beqz	a2,ffffffc08020195e <_ZN50_$LT$axlog..Logger$u20$as$u20$core..fmt..Write$GT$9write_str17h7934acddd1dbced3E+0x3a>
ffffffc080201926:	86b2                	mv	a3,a2
ffffffc080201928:	82ae                	mv	t0,a1
ffffffc08020192a:	4781                	li	a5,0
ffffffc08020192c:	4705                	li	a4,1
ffffffc08020192e:	171a                	slli	a4,a4,0x26
ffffffc080201930:	44424537          	lui	a0,0x44424
ffffffc080201934:	34e5089b          	addiw	a7,a0,846
ffffffc080201938:	4801                	li	a6,0
ffffffc08020193a:	4601                	li	a2,0
ffffffc08020193c:	40f68533          	sub	a0,a3,a5
ffffffc080201940:	10000593          	li	a1,256
ffffffc080201944:	00b56463          	bltu	a0,a1,ffffffc08020194c <_ZN50_$LT$axlog..Logger$u20$as$u20$core..fmt..Write$GT$9write_str17h7934acddd1dbced3E+0x28>
ffffffc080201948:	10000513          	li	a0,256
ffffffc08020194c:	00f285b3          	add	a1,t0,a5
ffffffc080201950:	95ba                	add	a1,a1,a4
ffffffc080201952:	00000073          	ecall
ffffffc080201956:	c581                	beqz	a1,ffffffc08020195e <_ZN50_$LT$axlog..Logger$u20$as$u20$core..fmt..Write$GT$9write_str17h7934acddd1dbced3E+0x3a>
ffffffc080201958:	97ae                	add	a5,a5,a1
ffffffc08020195a:	fed7e1e3          	bltu	a5,a3,ffffffc08020193c <_ZN50_$LT$axlog..Logger$u20$as$u20$core..fmt..Write$GT$9write_str17h7934acddd1dbced3E+0x18>
ffffffc08020195e:	4501                	li	a0,0
ffffffc080201960:	8082                	ret

ffffffc080201962 <_ZN42_$LT$axlog..Logger$u20$as$u20$log..Log$GT$3log17h1b86338614160325E>:
ffffffc080201962:	d3010113          	addi	sp,sp,-720
ffffffc080201966:	2c113423          	sd	ra,712(sp)
ffffffc08020196a:	2c813023          	sd	s0,704(sp)
ffffffc08020196e:	45a8                	lw	a0,72(a1)
ffffffc080201970:	45f0                	lw	a2,76(a1)
ffffffc080201972:	00153513          	seqz	a0,a0
ffffffc080201976:	157d                	addi	a0,a0,-1
ffffffc080201978:	8d71                	and	a0,a0,a2
ffffffc08020197a:	7d90                	ld	a2,56(a1)
ffffffc08020197c:	61b4                	ld	a3,64(a1)
ffffffc08020197e:	7998                	ld	a4,48(a1)
ffffffc080201980:	c22a                	sw	a0,4(sp)
ffffffc080201982:	e432                	sd	a2,8(sp)
ffffffc080201984:	e836                	sd	a3,16(sp)
ffffffc080201986:	070e                	slli	a4,a4,0x3
ffffffc080201988:	1761                	addi	a4,a4,-8
ffffffc08020198a:	02d12537          	lui	a0,0x2d12
ffffffc08020198e:	1015051b          	addiw	a0,a0,257
ffffffc080201992:	0536                	slli	a0,a0,0xd
ffffffc080201994:	11f50513          	addi	a0,a0,287 # 2d1211f <_percpu_load_end+0x2d12116>
ffffffc080201998:	00e55533          	srl	a0,a0,a4

ffffffc08020199c <.Lpcrel_hi238>:
ffffffc08020199c:	00047617          	auipc	a2,0x47
ffffffc0802019a0:	6e463003          	ld	zero,1764(a2) # ffffffc080249080 <_ZN9axruntime11INITED_CPUS17haecfae2c245bf0eaE>
ffffffc0802019a4:	0230000f          	fence	r,rw
ffffffc0802019a8:	c0102673          	rdtime	a2

ffffffc0802019ac <.Lpcrel_hi239>:
ffffffc0802019ac:	00005697          	auipc	a3,0x5
ffffffc0802019b0:	6546b683          	ld	a3,1620(a3) # ffffffc080207000 <$d.26>
ffffffc0802019b4:	06400713          	li	a4,100
ffffffc0802019b8:	02e60633          	mul	a2,a2,a4
ffffffc0802019bc:	00965713          	srli	a4,a2,0x9
ffffffc0802019c0:	02d736b3          	mulhu	a3,a4,a3
ffffffc0802019c4:	82ad                	srli	a3,a3,0xb
ffffffc0802019c6:	3b9ad737          	lui	a4,0x3b9ad
ffffffc0802019ca:	a0070713          	addi	a4,a4,-1536 # 3b9aca00 <_percpu_load_end+0x3b9ac9f7>
ffffffc0802019ce:	02e68733          	mul	a4,a3,a4
ffffffc0802019d2:	9e19                	subw	a2,a2,a4
ffffffc0802019d4:	ec02                	sd	zero,24(sp)
ffffffc0802019d6:	e1b6                	sd	a3,192(sp)
ffffffc0802019d8:	1602                	slli	a2,a2,0x20
ffffffc0802019da:	106256b7          	lui	a3,0x10625
ffffffc0802019de:	dd368693          	addi	a3,a3,-557 # 10624dd3 <_percpu_load_end+0x10624dca>
ffffffc0802019e2:	1682                	slli	a3,a3,0x20
ffffffc0802019e4:	02d63633          	mulhu	a2,a2,a3
ffffffc0802019e8:	9219                	srli	a2,a2,0x26
ffffffc0802019ea:	c7b2                	sw	a2,204(sp)
ffffffc0802019ec:	12a103a3          	sb	a0,295(sp)
ffffffc0802019f0:	05058513          	addi	a0,a1,80
ffffffc0802019f4:	f62a                	sd	a0,296(sp)
ffffffc0802019f6:	12710513          	addi	a0,sp,295
ffffffc0802019fa:	e22a                	sd	a0,256(sp)

ffffffc0802019fc <.Lpcrel_hi240>:
ffffffc0802019fc:	00002517          	auipc	a0,0x2
ffffffc080201a00:	a1250613          	addi	a2,a0,-1518 # ffffffc08020340e <_ZN4core3fmt3num3imp51_$LT$impl$u20$core..fmt..Display$u20$for$u20$u8$GT$3fmt17hadfe9ae40f4f8fc6E>
ffffffc080201a04:	e632                	sd	a2,264(sp)
ffffffc080201a06:	1228                	addi	a0,sp,296
ffffffc080201a08:	ea2a                	sd	a0,272(sp)

ffffffc080201a0a <.Lpcrel_hi241>:
ffffffc080201a0a:	00000517          	auipc	a0,0x0
ffffffc080201a0e:	16850513          	addi	a0,a0,360 # ffffffc080201b72 <_ZN44_$LT$$RF$T$u20$as$u20$core..fmt..Display$GT$3fmt17h7baec4b1fb0f9f77E>
ffffffc080201a12:	ee2a                	sd	a0,280(sp)

ffffffc080201a14 <.Lpcrel_hi242>:
ffffffc080201a14:	00003517          	auipc	a0,0x3
ffffffc080201a18:	1e450513          	addi	a0,a0,484 # ffffffc080204bf8 <.Lanon.4a31e99874bac1ccf364a2e81921985e.16>
ffffffc080201a1c:	e9aa                	sd	a0,208(sp)
ffffffc080201a1e:	450d                	li	a0,3
ffffffc080201a20:	edaa                	sd	a0,216(sp)
ffffffc080201a22:	f982                	sd	zero,240(sp)
ffffffc080201a24:	020c                	addi	a1,sp,256
ffffffc080201a26:	f1ae                	sd	a1,224(sp)
ffffffc080201a28:	4589                	li	a1,2
ffffffc080201a2a:	f5ae                	sd	a1,232(sp)

ffffffc080201a2c <.Lpcrel_hi243>:
ffffffc080201a2c:	00003697          	auipc	a3,0x3
ffffffc080201a30:	1c468693          	addi	a3,a3,452 # ffffffc080204bf0 <.Lanon.4a31e99874bac1ccf364a2e81921985e.13>
ffffffc080201a34:	e8b6                	sd	a3,80(sp)
ffffffc080201a36:	ecb2                	sd	a2,88(sp)
ffffffc080201a38:	0190                	addi	a2,sp,192
ffffffc080201a3a:	f0b2                	sd	a2,96(sp)

ffffffc080201a3c <.Lpcrel_hi244>:
ffffffc080201a3c:	00001617          	auipc	a2,0x1
ffffffc080201a40:	a5860613          	addi	a2,a2,-1448 # ffffffc080202494 <_ZN4core3fmt3num3imp52_$LT$impl$u20$core..fmt..Display$u20$for$u20$u64$GT$3fmt17hca01a1912e792145E>
ffffffc080201a44:	f4b2                	sd	a2,104(sp)
ffffffc080201a46:	01f4                	addi	a3,sp,204
ffffffc080201a48:	f8b6                	sd	a3,112(sp)

ffffffc080201a4a <.Lpcrel_hi245>:
ffffffc080201a4a:	00001697          	auipc	a3,0x1
ffffffc080201a4e:	51068693          	addi	a3,a3,1296 # ffffffc080202f5a <_ZN4core3fmt3num3imp52_$LT$impl$u20$core..fmt..Display$u20$for$u20$u32$GT$3fmt17h4e8d7a453206e77eE>
ffffffc080201a52:	fcb6                	sd	a3,120(sp)
ffffffc080201a54:	0838                	addi	a4,sp,24
ffffffc080201a56:	e13a                	sd	a4,128(sp)
ffffffc080201a58:	e532                	sd	a2,136(sp)
ffffffc080201a5a:	0030                	addi	a2,sp,8
ffffffc080201a5c:	e932                	sd	a2,144(sp)

ffffffc080201a5e <.Lpcrel_hi246>:
ffffffc080201a5e:	00000617          	auipc	a2,0x0
ffffffc080201a62:	7c860613          	addi	a2,a2,1992 # ffffffc080202226 <_ZN44_$LT$$RF$T$u20$as$u20$core..fmt..Display$GT$3fmt17h08215a0f3cae4f5bE>
ffffffc080201a66:	ed32                	sd	a2,152(sp)
ffffffc080201a68:	0050                	addi	a2,sp,4
ffffffc080201a6a:	f132                	sd	a2,160(sp)
ffffffc080201a6c:	f536                	sd	a3,168(sp)
ffffffc080201a6e:	0990                	addi	a2,sp,208
ffffffc080201a70:	f932                	sd	a2,176(sp)

ffffffc080201a72 <.Lpcrel_hi247>:
ffffffc080201a72:	00001617          	auipc	a2,0x1
ffffffc080201a76:	30460613          	addi	a2,a2,772 # ffffffc080202d76 <_ZN59_$LT$core..fmt..Arguments$u20$as$u20$core..fmt..Display$GT$3fmt17hb9ea72e8555fec20E>
ffffffc080201a7a:	fd32                	sd	a2,184(sp)
ffffffc080201a7c:	fa2e                	sd	a1,304(sp)
ffffffc080201a7e:	e2ae                	sd	a1,320(sp)
ffffffc080201a80:	ea82                	sd	zero,336(sp)
ffffffc080201a82:	02000613          	li	a2,32
ffffffc080201a86:	eeb2                	sd	a2,344(sp)
ffffffc080201a88:	16a10023          	sb	a0,352(sp)
ffffffc080201a8c:	f6ae                	sd	a1,360(sp)
ffffffc080201a8e:	fe82                	sd	zero,376(sp)
ffffffc080201a90:	e32a                	sd	a0,384(sp)
ffffffc080201a92:	4685                	li	a3,1
ffffffc080201a94:	e736                	sd	a3,392(sp)
ffffffc080201a96:	eb32                	sd	a2,400(sp)
ffffffc080201a98:	18d10c23          	sb	a3,408(sp)
ffffffc080201a9c:	f32e                	sd	a1,416(sp)
ffffffc080201a9e:	fb02                	sd	zero,432(sp)
ffffffc080201aa0:	4719                	li	a4,6
ffffffc080201aa2:	ff3a                	sd	a4,440(sp)
ffffffc080201aa4:	e3ae                	sd	a1,448(sp)
ffffffc080201aa6:	168e                	slli	a3,a3,0x23
ffffffc080201aa8:	02068693          	addi	a3,a3,32
ffffffc080201aac:	e7b6                	sd	a3,456(sp)
ffffffc080201aae:	1ca10823          	sb	a0,464(sp)
ffffffc080201ab2:	efae                	sd	a1,472(sp)
ffffffc080201ab4:	f7ae                	sd	a1,488(sp)
ffffffc080201ab6:	ffaa                	sd	a0,504(sp)
ffffffc080201ab8:	20c13023          	sd	a2,512(sp)
ffffffc080201abc:	20a10423          	sb	a0,520(sp)
ffffffc080201ac0:	20b13823          	sd	a1,528(sp)
ffffffc080201ac4:	22b13023          	sd	a1,544(sp)
ffffffc080201ac8:	4691                	li	a3,4
ffffffc080201aca:	22d13823          	sd	a3,560(sp)
ffffffc080201ace:	22c13c23          	sd	a2,568(sp)
ffffffc080201ad2:	24a10023          	sb	a0,576(sp)
ffffffc080201ad6:	24b13423          	sd	a1,584(sp)
ffffffc080201ada:	24b13c23          	sd	a1,600(sp)
ffffffc080201ade:	4695                	li	a3,5
ffffffc080201ae0:	26d13423          	sd	a3,616(sp)
ffffffc080201ae4:	26c13823          	sd	a2,624(sp)
ffffffc080201ae8:	26a10c23          	sb	a0,632(sp)
ffffffc080201aec:	28b13023          	sd	a1,640(sp)
ffffffc080201af0:	28b13823          	sd	a1,656(sp)
ffffffc080201af4:	2ae13023          	sd	a4,672(sp)
ffffffc080201af8:	2ac13423          	sd	a2,680(sp)
ffffffc080201afc:	2aa10823          	sb	a0,688(sp)

ffffffc080201b00 <.Lpcrel_hi248>:
ffffffc080201b00:	00003517          	auipc	a0,0x3
ffffffc080201b04:	12850513          	addi	a0,a0,296 # ffffffc080204c28 <.Lanon.4a31e99874bac1ccf364a2e81921985e.17>
ffffffc080201b08:	f02a                	sd	a0,32(sp)
ffffffc080201b0a:	4521                	li	a0,8
ffffffc080201b0c:	f42a                	sd	a0,40(sp)
ffffffc080201b0e:	1a08                	addi	a0,sp,304
ffffffc080201b10:	e0aa                	sd	a0,64(sp)
ffffffc080201b12:	451d                	li	a0,7
ffffffc080201b14:	e4aa                	sd	a0,72(sp)
ffffffc080201b16:	088c                	addi	a1,sp,80
ffffffc080201b18:	f82e                	sd	a1,48(sp)
ffffffc080201b1a:	fc2a                	sd	a0,56(sp)
ffffffc080201b1c:	10017573          	csrrci	a0,sstatus,2
ffffffc080201b20:	00257413          	andi	s0,a0,2

ffffffc080201b24 <.Lpcrel_hi249>:
ffffffc080201b24:	00003517          	auipc	a0,0x3
ffffffc080201b28:	09450593          	addi	a1,a0,148 # ffffffc080204bb8 <.Lanon.4a31e99874bac1ccf364a2e81921985e.4>
ffffffc080201b2c:	2bf10513          	addi	a0,sp,703
ffffffc080201b30:	1010                	addi	a2,sp,32
ffffffc080201b32:	00001097          	auipc	ra,0x1
ffffffc080201b36:	264080e7          	jalr	612(ra) # ffffffc080202d96 <_ZN4core3fmt5write17h49a560cace6c89d2E>
ffffffc080201b3a:	10042073          	csrs	sstatus,s0
ffffffc080201b3e:	e901                	bnez	a0,ffffffc080201b4e <.Lpcrel_hi250>
ffffffc080201b40:	2c813083          	ld	ra,712(sp)
ffffffc080201b44:	2c013403          	ld	s0,704(sp)
ffffffc080201b48:	2d010113          	addi	sp,sp,720
ffffffc080201b4c:	8082                	ret

ffffffc080201b4e <.Lpcrel_hi250>:
ffffffc080201b4e:	00003517          	auipc	a0,0x3
ffffffc080201b52:	76d50513          	addi	a0,a0,1901 # ffffffc0802052bb <.Lanon.427a789f18ce83ac0f31c2f7c1e7e09c.41>

ffffffc080201b56 <.Lpcrel_hi251>:
ffffffc080201b56:	00003597          	auipc	a1,0x3
ffffffc080201b5a:	15258613          	addi	a2,a1,338 # ffffffc080204ca8 <.Lanon.4a31e99874bac1ccf364a2e81921985e.20>

ffffffc080201b5e <.Lpcrel_hi252>:
ffffffc080201b5e:	00003597          	auipc	a1,0x3
ffffffc080201b62:	18258693          	addi	a3,a1,386 # ffffffc080204ce0 <.Lanon.4a31e99874bac1ccf364a2e81921985e.22>
ffffffc080201b66:	2bf10593          	addi	a1,sp,703
ffffffc080201b6a:	00002097          	auipc	ra,0x2
ffffffc080201b6e:	830080e7          	jalr	-2000(ra) # ffffffc08020339a <_ZN4core6result13unwrap_failed17h368883645868569cE>

ffffffc080201b72 <_ZN44_$LT$$RF$T$u20$as$u20$core..fmt..Display$GT$3fmt17h7baec4b1fb0f9f77E>:
ffffffc080201b72:	6110                	ld	a2,0(a0)
ffffffc080201b74:	7188                	ld	a0,32(a1)
ffffffc080201b76:	758c                	ld	a1,40(a1)
ffffffc080201b78:	00001317          	auipc	t1,0x1
ffffffc080201b7c:	21e30067          	jr	542(t1) # ffffffc080202d96 <_ZN4core3fmt5write17h49a560cace6c89d2E>

ffffffc080201b80 <_ZN53_$LT$core..fmt..Error$u20$as$u20$core..fmt..Debug$GT$3fmt17h1e73695f188ebaffE>:
ffffffc080201b80:	7590                	ld	a2,40(a1)
ffffffc080201b82:	7188                	ld	a0,32(a1)
ffffffc080201b84:	6e1c                	ld	a5,24(a2)

ffffffc080201b86 <.Lpcrel_hi253>:
ffffffc080201b86:	00003597          	auipc	a1,0x3
ffffffc080201b8a:	01c58593          	addi	a1,a1,28 # ffffffc080204ba2 <.Lanon.4a31e99874bac1ccf364a2e81921985e.1>
ffffffc080201b8e:	4615                	li	a2,5
ffffffc080201b90:	8782                	jr	a5

ffffffc080201b92 <_ZN4core3ptr34drop_in_place$LT$axlog..Logger$GT$17h96c3629026278385E>:
ffffffc080201b92:	8082                	ret

ffffffc080201b94 <_ZN4core3fmt5Write10write_char17h0be9418581eb71f1E>:
ffffffc080201b94:	1141                	addi	sp,sp,-16
ffffffc080201b96:	0005851b          	sext.w	a0,a1
ffffffc080201b9a:	08000613          	li	a2,128
ffffffc080201b9e:	c602                	sw	zero,12(sp)
ffffffc080201ba0:	00c57663          	bgeu	a0,a2,ffffffc080201bac <_ZN4core3fmt5Write10write_char17h0be9418581eb71f1E+0x18>
ffffffc080201ba4:	00b10623          	sb	a1,12(sp)
ffffffc080201ba8:	4685                	li	a3,1
ffffffc080201baa:	a071                	j	ffffffc080201c36 <_ZN4core3fmt5Write10write_char17h0be9418581eb71f1E+0xa2>
ffffffc080201bac:	00b5d51b          	srliw	a0,a1,0xb
ffffffc080201bb0:	ed19                	bnez	a0,ffffffc080201bce <_ZN4core3fmt5Write10write_char17h0be9418581eb71f1E+0x3a>
ffffffc080201bb2:	0065d513          	srli	a0,a1,0x6
ffffffc080201bb6:	0c056513          	ori	a0,a0,192
ffffffc080201bba:	00a10623          	sb	a0,12(sp)
ffffffc080201bbe:	03f5f513          	andi	a0,a1,63
ffffffc080201bc2:	08050513          	addi	a0,a0,128
ffffffc080201bc6:	00a106a3          	sb	a0,13(sp)
ffffffc080201bca:	4689                	li	a3,2
ffffffc080201bcc:	a0ad                	j	ffffffc080201c36 <_ZN4core3fmt5Write10write_char17h0be9418581eb71f1E+0xa2>
ffffffc080201bce:	0105d51b          	srliw	a0,a1,0x10
ffffffc080201bd2:	e515                	bnez	a0,ffffffc080201bfe <_ZN4core3fmt5Write10write_char17h0be9418581eb71f1E+0x6a>
ffffffc080201bd4:	00c5d513          	srli	a0,a1,0xc
ffffffc080201bd8:	0e056513          	ori	a0,a0,224
ffffffc080201bdc:	00a10623          	sb	a0,12(sp)
ffffffc080201be0:	03459513          	slli	a0,a1,0x34
ffffffc080201be4:	9169                	srli	a0,a0,0x3a
ffffffc080201be6:	08050513          	addi	a0,a0,128
ffffffc080201bea:	00a106a3          	sb	a0,13(sp)
ffffffc080201bee:	03f5f513          	andi	a0,a1,63
ffffffc080201bf2:	08050513          	addi	a0,a0,128
ffffffc080201bf6:	00a10723          	sb	a0,14(sp)
ffffffc080201bfa:	468d                	li	a3,3
ffffffc080201bfc:	a82d                	j	ffffffc080201c36 <_ZN4core3fmt5Write10write_char17h0be9418581eb71f1E+0xa2>
ffffffc080201bfe:	02b59513          	slli	a0,a1,0x2b
ffffffc080201c02:	9175                	srli	a0,a0,0x3d
ffffffc080201c04:	0f050513          	addi	a0,a0,240
ffffffc080201c08:	00a10623          	sb	a0,12(sp)
ffffffc080201c0c:	02e59513          	slli	a0,a1,0x2e
ffffffc080201c10:	9169                	srli	a0,a0,0x3a
ffffffc080201c12:	08050513          	addi	a0,a0,128
ffffffc080201c16:	00a106a3          	sb	a0,13(sp)
ffffffc080201c1a:	03459513          	slli	a0,a1,0x34
ffffffc080201c1e:	9169                	srli	a0,a0,0x3a
ffffffc080201c20:	08050513          	addi	a0,a0,128
ffffffc080201c24:	00a10723          	sb	a0,14(sp)
ffffffc080201c28:	03f5f513          	andi	a0,a1,63
ffffffc080201c2c:	08050513          	addi	a0,a0,128
ffffffc080201c30:	00a107a3          	sb	a0,15(sp)
ffffffc080201c34:	4691                	li	a3,4
ffffffc080201c36:	4701                	li	a4,0
ffffffc080201c38:	00c10293          	addi	t0,sp,12
ffffffc080201c3c:	4785                	li	a5,1
ffffffc080201c3e:	179a                	slli	a5,a5,0x26
ffffffc080201c40:	44424537          	lui	a0,0x44424
ffffffc080201c44:	34e5089b          	addiw	a7,a0,846
ffffffc080201c48:	4801                	li	a6,0
ffffffc080201c4a:	4601                	li	a2,0
ffffffc080201c4c:	40e68533          	sub	a0,a3,a4
ffffffc080201c50:	10000593          	li	a1,256
ffffffc080201c54:	00b56463          	bltu	a0,a1,ffffffc080201c5c <_ZN4core3fmt5Write10write_char17h0be9418581eb71f1E+0xc8>
ffffffc080201c58:	10000513          	li	a0,256
ffffffc080201c5c:	00e285b3          	add	a1,t0,a4
ffffffc080201c60:	95be                	add	a1,a1,a5
ffffffc080201c62:	00000073          	ecall
ffffffc080201c66:	c581                	beqz	a1,ffffffc080201c6e <_ZN4core3fmt5Write10write_char17h0be9418581eb71f1E+0xda>
ffffffc080201c68:	972e                	add	a4,a4,a1
ffffffc080201c6a:	fed761e3          	bltu	a4,a3,ffffffc080201c4c <_ZN4core3fmt5Write10write_char17h0be9418581eb71f1E+0xb8>
ffffffc080201c6e:	4501                	li	a0,0
ffffffc080201c70:	0141                	addi	sp,sp,16
ffffffc080201c72:	8082                	ret

ffffffc080201c74 <_ZN4core3fmt5Write9write_fmt17hfea597444c249abeE>:
ffffffc080201c74:	862e                	mv	a2,a1
ffffffc080201c76:	658c                	ld	a1,8(a1)
ffffffc080201c78:	4685                	li	a3,1

ffffffc080201c7a <.Lpcrel_hi254>:
ffffffc080201c7a:	00003597          	auipc	a1,0x3
ffffffc080201c7e:	f3e58593          	addi	a1,a1,-194 # ffffffc080204bb8 <.Lanon.4a31e99874bac1ccf364a2e81921985e.4>
ffffffc080201c82:	00001317          	auipc	t1,0x1
ffffffc080201c86:	11430067          	jr	276(t1) # ffffffc080202d96 <_ZN4core3fmt5write17h49a560cace6c89d2E>

ffffffc080201c8a <_ZN56_$LT$log..SetLoggerError$u20$as$u20$core..fmt..Debug$GT$3fmt17h5435f3a6617b5e84E>:
ffffffc080201c8a:	1141                	addi	sp,sp,-16
ffffffc080201c8c:	e406                	sd	ra,8(sp)
ffffffc080201c8e:	87ae                	mv	a5,a1
ffffffc080201c90:	e02a                	sd	a0,0(sp)

ffffffc080201c92 <.Lpcrel_hi255>:
ffffffc080201c92:	00003517          	auipc	a0,0x3
ffffffc080201c96:	f1550593          	addi	a1,a0,-235 # ffffffc080204ba7 <.Lanon.4a31e99874bac1ccf364a2e81921985e.2>

ffffffc080201c9a <.Lpcrel_hi256>:
ffffffc080201c9a:	00000517          	auipc	a0,0x0
ffffffc080201c9e:	01c50713          	addi	a4,a0,28 # ffffffc080201cb6 <_ZN42_$LT$$RF$T$u20$as$u20$core..fmt..Debug$GT$3fmt17he84f462cd34d32a1E>
ffffffc080201ca2:	4639                	li	a2,14
ffffffc080201ca4:	868a                	mv	a3,sp
ffffffc080201ca6:	853e                	mv	a0,a5
ffffffc080201ca8:	00002097          	auipc	ra,0x2
ffffffc080201cac:	8ea080e7          	jalr	-1814(ra) # ffffffc080203592 <_ZN4core3fmt9Formatter25debug_tuple_field1_finish17h7b601b839df38242E>
ffffffc080201cb0:	60a2                	ld	ra,8(sp)
ffffffc080201cb2:	0141                	addi	sp,sp,16
ffffffc080201cb4:	8082                	ret

ffffffc080201cb6 <_ZN42_$LT$$RF$T$u20$as$u20$core..fmt..Debug$GT$3fmt17he84f462cd34d32a1E>:
ffffffc080201cb6:	00003517          	auipc	a0,0x3
ffffffc080201cba:	eea50693          	addi	a3,a0,-278 # ffffffc080204ba0 <.Lanon.4a31e99874bac1ccf364a2e81921985e.0>
ffffffc080201cbe:	4609                	li	a2,2
ffffffc080201cc0:	852e                	mv	a0,a1
ffffffc080201cc2:	85b6                	mv	a1,a3
ffffffc080201cc4:	00001317          	auipc	t1,0x1
ffffffc080201cc8:	bda30067          	jr	-1062(t1) # ffffffc08020289e <_ZN4core3fmt9Formatter3pad17heef45ae07d2799a9E>

ffffffc080201ccc <_ZN42_$LT$axlog..Logger$u20$as$u20$log..Log$GT$7enabled17h6dcba6d177773153E>:
ffffffc080201ccc:	4505                	li	a0,1
ffffffc080201cce:	8082                	ret

ffffffc080201cd0 <_ZN42_$LT$axlog..Logger$u20$as$u20$log..Log$GT$5flush17h80f3dc617a2d7f52E>:
ffffffc080201cd0:	8082                	ret

ffffffc080201cd2 <rust_begin_unwind>:
ffffffc080201cd2:	7135                	addi	sp,sp,-160
ffffffc080201cd4:	ed06                	sd	ra,152(sp)
ffffffc080201cd6:	e02a                	sd	a0,0(sp)

ffffffc080201cd8 <.Lpcrel_hi258>:
ffffffc080201cd8:	00047517          	auipc	a0,0x47
ffffffc080201cdc:	3b853503          	ld	a0,952(a0) # ffffffc080249090 <_ZN3log20MAX_LOG_LEVEL_FILTER17ha1f6027dc31f6649E.0>
ffffffc080201ce0:	c951                	beqz	a0,ffffffc080201d74 <.Lpcrel_hi266+0x24>
ffffffc080201ce2:	850a                	mv	a0,sp
ffffffc080201ce4:	e42a                	sd	a0,8(sp)

ffffffc080201ce6 <.Lpcrel_hi259>:
ffffffc080201ce6:	00000517          	auipc	a0,0x0
ffffffc080201cea:	09650513          	addi	a0,a0,150 # ffffffc080201d7c <_ZN44_$LT$$RF$T$u20$as$u20$core..fmt..Display$GT$3fmt17h5ecbecb532bff226E>
ffffffc080201cee:	e82a                	sd	a0,16(sp)

ffffffc080201cf0 <.Lpcrel_hi260>:
ffffffc080201cf0:	00047517          	auipc	a0,0x47
ffffffc080201cf4:	39853503          	ld	a0,920(a0) # ffffffc080249088 <_ZN3log5STATE17h82db28ebc6c403a6E>
ffffffc080201cf8:	4689                	li	a3,2
ffffffc080201cfa:	0230000f          	fence	r,rw
ffffffc080201cfe:	00d50e63          	beq	a0,a3,ffffffc080201d1a <.Lpcrel_hi261>

ffffffc080201d02 <.Lpcrel_hi262>:
ffffffc080201d02:	00004597          	auipc	a1,0x4
ffffffc080201d06:	8ee58593          	addi	a1,a1,-1810 # ffffffc0802055f0 <.Lanon.f39d08480f7773be82bf088a10543c94.0>
ffffffc080201d0a:	4605                	li	a2,1
ffffffc080201d0c:	00d50e63          	beq	a0,a3,ffffffc080201d28 <.Lpcrel_hi261+0xe>

ffffffc080201d10 <.Lpcrel_hi263>:
ffffffc080201d10:	00004517          	auipc	a0,0x4
ffffffc080201d14:	91050513          	addi	a0,a0,-1776 # ffffffc080205620 <.Lanon.3cf6065fb3bc5c8a6dbd7ebdc6e6fed3.2>
ffffffc080201d18:	a809                	j	ffffffc080201d2a <.Lpcrel_hi261+0x10>

ffffffc080201d1a <.Lpcrel_hi261>:
ffffffc080201d1a:	00005597          	auipc	a1,0x5
ffffffc080201d1e:	3265b583          	ld	a1,806(a1) # ffffffc080207040 <_ZN3log6LOGGER17ha416a0c03de1f01fE.1>
ffffffc080201d22:	4605                	li	a2,1
ffffffc080201d24:	fed516e3          	bne	a0,a3,ffffffc080201d10 <.Lpcrel_hi263>
ffffffc080201d28:	4505                	li	a0,1
ffffffc080201d2a:	e4b2                	sd	a2,72(sp)

ffffffc080201d2c <.Lpcrel_hi264>:
ffffffc080201d2c:	00003697          	auipc	a3,0x3
ffffffc080201d30:	03468693          	addi	a3,a3,52 # ffffffc080204d60 <.Lanon.17b8dcd1ba2522b4e3e13e905f48ff2c.1>
ffffffc080201d34:	e8b6                	sd	a3,80(sp)
ffffffc080201d36:	4755                	li	a4,21
ffffffc080201d38:	ecba                	sd	a4,88(sp)

ffffffc080201d3a <.Lpcrel_hi265>:
ffffffc080201d3a:	00002797          	auipc	a5,0x2
ffffffc080201d3e:	45678793          	addi	a5,a5,1110 # ffffffc080204190 <$d.102+0x10>
ffffffc080201d42:	f4be                	sd	a5,104(sp)
ffffffc080201d44:	f8b2                	sd	a2,112(sp)
ffffffc080201d46:	003c                	addi	a5,sp,8
ffffffc080201d48:	fcbe                	sd	a5,120(sp)
ffffffc080201d4a:	e132                	sd	a2,128(sp)
ffffffc080201d4c:	e502                	sd	zero,136(sp)
ffffffc080201d4e:	ec02                	sd	zero,24(sp)

ffffffc080201d50 <.Lpcrel_hi266>:
ffffffc080201d50:	00003617          	auipc	a2,0x3
ffffffc080201d54:	02560613          	addi	a2,a2,37 # ffffffc080204d75 <.Lanon.17b8dcd1ba2522b4e3e13e905f48ff2c.2>
ffffffc080201d58:	fc32                	sd	a2,56(sp)
ffffffc080201d5a:	02300613          	li	a2,35
ffffffc080201d5e:	e0b2                	sd	a2,64(sp)
ffffffc080201d60:	4615                	li	a2,5
ffffffc080201d62:	1602                	slli	a2,a2,0x20
ffffffc080201d64:	0605                	addi	a2,a2,1
ffffffc080201d66:	f0b2                	sd	a2,96(sp)
ffffffc080201d68:	7190                	ld	a2,32(a1)
ffffffc080201d6a:	f036                	sd	a3,32(sp)
ffffffc080201d6c:	f43a                	sd	a4,40(sp)
ffffffc080201d6e:	f802                	sd	zero,48(sp)
ffffffc080201d70:	082c                	addi	a1,sp,24
ffffffc080201d72:	9602                	jalr	a2
ffffffc080201d74:	00000097          	auipc	ra,0x0
ffffffc080201d78:	afc080e7          	jalr	-1284(ra) # ffffffc080201870 <_ZN5axhal8platform17riscv64_qemu_virt4misc9terminate17h0bc651b4056054b0E>

ffffffc080201d7c <_ZN44_$LT$$RF$T$u20$as$u20$core..fmt..Display$GT$3fmt17h5ecbecb532bff226E>:
ffffffc080201d7c:	7135                	addi	sp,sp,-160
ffffffc080201d7e:	ed06                	sd	ra,152(sp)
ffffffc080201d80:	e922                	sd	s0,144(sp)
ffffffc080201d82:	e526                	sd	s1,136(sp)
ffffffc080201d84:	e14a                	sd	s2,128(sp)
ffffffc080201d86:	fcce                	sd	s3,120(sp)
ffffffc080201d88:	f8d2                	sd	s4,112(sp)
ffffffc080201d8a:	f4d6                	sd	s5,104(sp)
ffffffc080201d8c:	7580                	ld	s0,40(a1)
ffffffc080201d8e:	00053a03          	ld	s4,0(a0)
ffffffc080201d92:	0205b903          	ld	s2,32(a1)
ffffffc080201d96:	01843983          	ld	s3,24(s0)

ffffffc080201d9a <.Lpcrel_hi267>:
ffffffc080201d9a:	00003517          	auipc	a0,0x3
ffffffc080201d9e:	5be50593          	addi	a1,a0,1470 # ffffffc080205358 <.Lanon.c308b1a5a0a97bdc8edd9b96ba25ee05.253>
ffffffc080201da2:	4631                	li	a2,12
ffffffc080201da4:	854a                	mv	a0,s2
ffffffc080201da6:	9982                	jalr	s3
ffffffc080201da8:	4485                	li	s1,1
ffffffc080201daa:	e97d                	bnez	a0,ffffffc080201ea0 <.Lpcrel_hi275+0x1e>
ffffffc080201dac:	018a3503          	ld	a0,24(s4)
ffffffc080201db0:	01050593          	addi	a1,a0,16
ffffffc080201db4:	01450613          	addi	a2,a0,20
ffffffc080201db8:	fc2a                	sd	a0,56(sp)

ffffffc080201dba <.Lpcrel_hi268>:
ffffffc080201dba:	00001517          	auipc	a0,0x1
ffffffc080201dbe:	f8850513          	addi	a0,a0,-120 # ffffffc080202d42 <_ZN44_$LT$$RF$T$u20$as$u20$core..fmt..Display$GT$3fmt17hefe420aa2149ea35E>
ffffffc080201dc2:	e0aa                	sd	a0,64(sp)
ffffffc080201dc4:	e4ae                	sd	a1,72(sp)

ffffffc080201dc6 <.Lpcrel_hi269>:
ffffffc080201dc6:	00001517          	auipc	a0,0x1
ffffffc080201dca:	19450513          	addi	a0,a0,404 # ffffffc080202f5a <_ZN4core3fmt3num3imp52_$LT$impl$u20$core..fmt..Display$u20$for$u20$u32$GT$3fmt17h4e8d7a453206e77eE>
ffffffc080201dce:	e8aa                	sd	a0,80(sp)
ffffffc080201dd0:	ecb2                	sd	a2,88(sp)
ffffffc080201dd2:	f0aa                	sd	a0,96(sp)

ffffffc080201dd4 <.Lpcrel_hi270>:
ffffffc080201dd4:	00003517          	auipc	a0,0x3
ffffffc080201dd8:	55450513          	addi	a0,a0,1364 # ffffffc080205328 <.Lanon.c308b1a5a0a97bdc8edd9b96ba25ee05.252>
ffffffc080201ddc:	e42a                	sd	a0,8(sp)
ffffffc080201dde:	450d                	li	a0,3
ffffffc080201de0:	e82a                	sd	a0,16(sp)
ffffffc080201de2:	f402                	sd	zero,40(sp)
ffffffc080201de4:	182c                	addi	a1,sp,56
ffffffc080201de6:	ec2e                	sd	a1,24(sp)
ffffffc080201de8:	f02a                	sd	a0,32(sp)
ffffffc080201dea:	0030                	addi	a2,sp,8
ffffffc080201dec:	854a                	mv	a0,s2
ffffffc080201dee:	85a2                	mv	a1,s0
ffffffc080201df0:	00001097          	auipc	ra,0x1
ffffffc080201df4:	fa6080e7          	jalr	-90(ra) # ffffffc080202d96 <_ZN4core3fmt5write17h49a560cace6c89d2E>
ffffffc080201df8:	e545                	bnez	a0,ffffffc080201ea0 <.Lpcrel_hi275+0x1e>

ffffffc080201dfa <.Lpcrel_hi271>:
ffffffc080201dfa:	00003517          	auipc	a0,0x3
ffffffc080201dfe:	52750593          	addi	a1,a0,1319 # ffffffc080205321 <.Lanon.c308b1a5a0a97bdc8edd9b96ba25ee05.241>
ffffffc080201e02:	4605                	li	a2,1
ffffffc080201e04:	4485                	li	s1,1
ffffffc080201e06:	854a                	mv	a0,s2
ffffffc080201e08:	9982                	jalr	s3
ffffffc080201e0a:	e959                	bnez	a0,ffffffc080201ea0 <.Lpcrel_hi275+0x1e>
ffffffc080201e0c:	010a3a83          	ld	s5,16(s4)
ffffffc080201e10:	040a8663          	beqz	s5,ffffffc080201e5c <.Lpcrel_hi272+0x48>

ffffffc080201e14 <.Lpcrel_hi272>:
ffffffc080201e14:	00003517          	auipc	a0,0x3
ffffffc080201e18:	55050593          	addi	a1,a0,1360 # ffffffc080205364 <.Lanon.c308b1a5a0a97bdc8edd9b96ba25ee05.254>
ffffffc080201e1c:	4605                	li	a2,1
ffffffc080201e1e:	4485                	li	s1,1
ffffffc080201e20:	854a                	mv	a0,s2
ffffffc080201e22:	9982                	jalr	s3
ffffffc080201e24:	ed35                	bnez	a0,ffffffc080201ea0 <.Lpcrel_hi275+0x1e>
ffffffc080201e26:	028ab503          	ld	a0,40(s5)
ffffffc080201e2a:	f0aa                	sd	a0,96(sp)
ffffffc080201e2c:	020ab503          	ld	a0,32(s5)
ffffffc080201e30:	ecaa                	sd	a0,88(sp)
ffffffc080201e32:	018ab503          	ld	a0,24(s5)
ffffffc080201e36:	e8aa                	sd	a0,80(sp)
ffffffc080201e38:	010ab503          	ld	a0,16(s5)
ffffffc080201e3c:	e4aa                	sd	a0,72(sp)
ffffffc080201e3e:	008ab503          	ld	a0,8(s5)
ffffffc080201e42:	e0aa                	sd	a0,64(sp)
ffffffc080201e44:	000ab503          	ld	a0,0(s5)
ffffffc080201e48:	fc2a                	sd	a0,56(sp)
ffffffc080201e4a:	1830                	addi	a2,sp,56
ffffffc080201e4c:	854a                	mv	a0,s2
ffffffc080201e4e:	85a2                	mv	a1,s0
ffffffc080201e50:	00001097          	auipc	ra,0x1
ffffffc080201e54:	f46080e7          	jalr	-186(ra) # ffffffc080202d96 <_ZN4core3fmt5write17h49a560cace6c89d2E>
ffffffc080201e58:	c139                	beqz	a0,ffffffc080201e9e <.Lpcrel_hi275+0x1c>
ffffffc080201e5a:	a099                	j	ffffffc080201ea0 <.Lpcrel_hi275+0x1e>
ffffffc080201e5c:	008a3503          	ld	a0,8(s4)
ffffffc080201e60:	000a3403          	ld	s0,0(s4)
ffffffc080201e64:	6d0c                	ld	a1,24(a0)
ffffffc080201e66:	8522                	mv	a0,s0
ffffffc080201e68:	9582                	jalr	a1

ffffffc080201e6a <.Lpcrel_hi273>:
ffffffc080201e6a:	00005617          	auipc	a2,0x5
ffffffc080201e6e:	19e63603          	ld	a2,414(a2) # ffffffc080207008 <.LCPI36_0>
ffffffc080201e72:	02c51663          	bne	a0,a2,ffffffc080201e9e <.Lpcrel_hi275+0x1c>

ffffffc080201e76 <.Lpcrel_hi274>:
ffffffc080201e76:	00005517          	auipc	a0,0x5
ffffffc080201e7a:	19a53503          	ld	a0,410(a0) # ffffffc080207010 <.LCPI36_1>
ffffffc080201e7e:	02a59063          	bne	a1,a0,ffffffc080201e9e <.Lpcrel_hi275+0x1c>

ffffffc080201e82 <.Lpcrel_hi275>:
ffffffc080201e82:	00003517          	auipc	a0,0x3
ffffffc080201e86:	4e250593          	addi	a1,a0,1250 # ffffffc080205364 <.Lanon.c308b1a5a0a97bdc8edd9b96ba25ee05.254>
ffffffc080201e8a:	4605                	li	a2,1
ffffffc080201e8c:	4485                	li	s1,1
ffffffc080201e8e:	854a                	mv	a0,s2
ffffffc080201e90:	9982                	jalr	s3
ffffffc080201e92:	e519                	bnez	a0,ffffffc080201ea0 <.Lpcrel_hi275+0x1e>
ffffffc080201e94:	600c                	ld	a1,0(s0)
ffffffc080201e96:	6410                	ld	a2,8(s0)
ffffffc080201e98:	854a                	mv	a0,s2
ffffffc080201e9a:	9982                	jalr	s3
ffffffc080201e9c:	e111                	bnez	a0,ffffffc080201ea0 <.Lpcrel_hi275+0x1e>
ffffffc080201e9e:	4481                	li	s1,0
ffffffc080201ea0:	8526                	mv	a0,s1
ffffffc080201ea2:	60ea                	ld	ra,152(sp)
ffffffc080201ea4:	644a                	ld	s0,144(sp)
ffffffc080201ea6:	64aa                	ld	s1,136(sp)
ffffffc080201ea8:	690a                	ld	s2,128(sp)
ffffffc080201eaa:	79e6                	ld	s3,120(sp)
ffffffc080201eac:	7a46                	ld	s4,112(sp)
ffffffc080201eae:	7aa6                	ld	s5,104(sp)
ffffffc080201eb0:	610d                	addi	sp,sp,160
ffffffc080201eb2:	8082                	ret

ffffffc080201eb4 <rust_main>:
ffffffc080201eb4:	7105                	addi	sp,sp,-480
ffffffc080201eb6:	ef86                	sd	ra,472(sp)
ffffffc080201eb8:	eba2                	sd	s0,464(sp)
ffffffc080201eba:	e7a6                	sd	s1,456(sp)
ffffffc080201ebc:	e3ca                	sd	s2,448(sp)
ffffffc080201ebe:	ff4e                	sd	s3,440(sp)

ffffffc080201ec0 <.Lpcrel_hi276>:
ffffffc080201ec0:	00003517          	auipc	a0,0x3
ffffffc080201ec4:	0e050513          	addi	a0,a0,224 # ffffffc080204fa0 <.Lanon.17b8dcd1ba2522b4e3e13e905f48ff2c.7>
ffffffc080201ec8:	e02a                	sd	a0,0(sp)

ffffffc080201eca <.Lpcrel_hi277>:
ffffffc080201eca:	00000517          	auipc	a0,0x0
ffffffc080201ece:	35c50413          	addi	s0,a0,860 # ffffffc080202226 <_ZN44_$LT$$RF$T$u20$as$u20$core..fmt..Display$GT$3fmt17h08215a0f3cae4f5bE>
ffffffc080201ed2:	e422                	sd	s0,8(sp)

ffffffc080201ed4 <.Lpcrel_hi278>:
ffffffc080201ed4:	00003517          	auipc	a0,0x3
ffffffc080201ed8:	ec450513          	addi	a0,a0,-316 # ffffffc080204d98 <.Lanon.17b8dcd1ba2522b4e3e13e905f48ff2c.5>
ffffffc080201edc:	e92a                	sd	a0,144(sp)
ffffffc080201ede:	4509                	li	a0,2
ffffffc080201ee0:	ed2a                	sd	a0,152(sp)
ffffffc080201ee2:	f902                	sd	zero,176(sp)
ffffffc080201ee4:	850a                	mv	a0,sp
ffffffc080201ee6:	f12a                	sd	a0,160(sp)
ffffffc080201ee8:	4985                	li	s3,1
ffffffc080201eea:	f54e                	sd	s3,168(sp)
ffffffc080201eec:	10017573          	csrrci	a0,sstatus,2
ffffffc080201ef0:	00257493          	andi	s1,a0,2

ffffffc080201ef4 <.Lpcrel_hi279>:
ffffffc080201ef4:	00003517          	auipc	a0,0x3
ffffffc080201ef8:	cc450593          	addi	a1,a0,-828 # ffffffc080204bb8 <.Lanon.4a31e99874bac1ccf364a2e81921985e.4>
ffffffc080201efc:	1b710513          	addi	a0,sp,439
ffffffc080201f00:	0910                	addi	a2,sp,144
ffffffc080201f02:	09010913          	addi	s2,sp,144
ffffffc080201f06:	00001097          	auipc	ra,0x1
ffffffc080201f0a:	e90080e7          	jalr	-368(ra) # ffffffc080202d96 <_ZN4core3fmt5write17h49a560cace6c89d2E>
ffffffc080201f0e:	1004a073          	csrs	sstatus,s1
ffffffc080201f12:	c11d                	beqz	a0,ffffffc080201f38 <.Lpcrel_hi283>

ffffffc080201f14 <.Lpcrel_hi280>:
ffffffc080201f14:	00003517          	auipc	a0,0x3
ffffffc080201f18:	3a750513          	addi	a0,a0,935 # ffffffc0802052bb <.Lanon.427a789f18ce83ac0f31c2f7c1e7e09c.41>

ffffffc080201f1c <.Lpcrel_hi281>:
ffffffc080201f1c:	00003597          	auipc	a1,0x3
ffffffc080201f20:	d8c58613          	addi	a2,a1,-628 # ffffffc080204ca8 <.Lanon.4a31e99874bac1ccf364a2e81921985e.20>

ffffffc080201f24 <.Lpcrel_hi282>:
ffffffc080201f24:	00003597          	auipc	a1,0x3
ffffffc080201f28:	dbc58693          	addi	a3,a1,-580 # ffffffc080204ce0 <.Lanon.4a31e99874bac1ccf364a2e81921985e.22>
ffffffc080201f2c:	1b710593          	addi	a1,sp,439
ffffffc080201f30:	00001097          	auipc	ra,0x1
ffffffc080201f34:	46a080e7          	jalr	1130(ra) # ffffffc08020339a <_ZN4core6result13unwrap_failed17h368883645868569cE>

ffffffc080201f38 <.Lpcrel_hi283>:
ffffffc080201f38:	00003517          	auipc	a0,0x3
ffffffc080201f3c:	13050513          	addi	a0,a0,304 # ffffffc080205068 <.Lanon.17b8dcd1ba2522b4e3e13e905f48ff2c.16>
ffffffc080201f40:	f82a                	sd	a0,48(sp)
ffffffc080201f42:	451d                	li	a0,7
ffffffc080201f44:	fc2a                	sd	a0,56(sp)

ffffffc080201f46 <.Lpcrel_hi284>:
ffffffc080201f46:	00003597          	auipc	a1,0x3
ffffffc080201f4a:	12958593          	addi	a1,a1,297 # ffffffc08020506f <.Lanon.17b8dcd1ba2522b4e3e13e905f48ff2c.17>
ffffffc080201f4e:	e0ae                	sd	a1,64(sp)
ffffffc080201f50:	45c5                	li	a1,17
ffffffc080201f52:	e4ae                	sd	a1,72(sp)

ffffffc080201f54 <.Lpcrel_hi285>:
ffffffc080201f54:	00003597          	auipc	a1,0x3
ffffffc080201f58:	12c58593          	addi	a1,a1,300 # ffffffc080205080 <.Lanon.17b8dcd1ba2522b4e3e13e905f48ff2c.18>
ffffffc080201f5c:	e8ae                	sd	a1,80(sp)
ffffffc080201f5e:	45e9                	li	a1,26
ffffffc080201f60:	ecae                	sd	a1,88(sp)

ffffffc080201f62 <.Lpcrel_hi286>:
ffffffc080201f62:	00003597          	auipc	a1,0x3
ffffffc080201f66:	13858593          	addi	a1,a1,312 # ffffffc08020509a <.Lanon.17b8dcd1ba2522b4e3e13e905f48ff2c.19>
ffffffc080201f6a:	f0ae                	sd	a1,96(sp)
ffffffc080201f6c:	f4ce                	sd	s3,104(sp)

ffffffc080201f6e <.Lpcrel_hi287>:
ffffffc080201f6e:	00003597          	auipc	a1,0x3
ffffffc080201f72:	12d58593          	addi	a1,a1,301 # ffffffc08020509b <.Lanon.17b8dcd1ba2522b4e3e13e905f48ff2c.20>
ffffffc080201f76:	f8ae                	sd	a1,112(sp)
ffffffc080201f78:	fcaa                	sd	a0,120(sp)

ffffffc080201f7a <.Lpcrel_hi288>:
ffffffc080201f7a:	00002597          	auipc	a1,0x2
ffffffc080201f7e:	0ce58593          	addi	a1,a1,206 # ffffffc080204048 <.Lanon.fad58de7366495db4650cfefac2fcd61.3+0x10>
ffffffc080201f82:	e12e                	sd	a1,128(sp)
ffffffc080201f84:	4591                	li	a1,4
ffffffc080201f86:	e52e                	sd	a1,136(sp)
ffffffc080201f88:	180c                	addi	a1,sp,48
ffffffc080201f8a:	e92e                	sd	a1,144(sp)
ffffffc080201f8c:	ed22                	sd	s0,152(sp)
ffffffc080201f8e:	008c                	addi	a1,sp,64
ffffffc080201f90:	f12e                	sd	a1,160(sp)
ffffffc080201f92:	f522                	sd	s0,168(sp)
ffffffc080201f94:	088c                	addi	a1,sp,80
ffffffc080201f96:	f92e                	sd	a1,176(sp)
ffffffc080201f98:	fd22                	sd	s0,184(sp)
ffffffc080201f9a:	108c                	addi	a1,sp,96
ffffffc080201f9c:	e1ae                	sd	a1,192(sp)
ffffffc080201f9e:	e5a2                	sd	s0,200(sp)
ffffffc080201fa0:	188c                	addi	a1,sp,112
ffffffc080201fa2:	e9ae                	sd	a1,208(sp)
ffffffc080201fa4:	eda2                	sd	s0,216(sp)
ffffffc080201fa6:	010c                	addi	a1,sp,128
ffffffc080201fa8:	f1ae                	sd	a1,224(sp)
ffffffc080201faa:	f5a2                	sd	s0,232(sp)

ffffffc080201fac <.Lpcrel_hi289>:
ffffffc080201fac:	00003597          	auipc	a1,0x3
ffffffc080201fb0:	04c58593          	addi	a1,a1,76 # ffffffc080204ff8 <.Lanon.17b8dcd1ba2522b4e3e13e905f48ff2c.15>
ffffffc080201fb4:	e02e                	sd	a1,0(sp)
ffffffc080201fb6:	e42a                	sd	a0,8(sp)
ffffffc080201fb8:	f002                	sd	zero,32(sp)
ffffffc080201fba:	e84a                	sd	s2,16(sp)
ffffffc080201fbc:	4519                	li	a0,6
ffffffc080201fbe:	ec2a                	sd	a0,24(sp)
ffffffc080201fc0:	10017573          	csrrci	a0,sstatus,2
ffffffc080201fc4:	00257413          	andi	s0,a0,2

ffffffc080201fc8 <.Lpcrel_hi290>:
ffffffc080201fc8:	00003517          	auipc	a0,0x3
ffffffc080201fcc:	bf050593          	addi	a1,a0,-1040 # ffffffc080204bb8 <.Lanon.4a31e99874bac1ccf364a2e81921985e.4>
ffffffc080201fd0:	1b710513          	addi	a0,sp,439
ffffffc080201fd4:	860a                	mv	a2,sp
ffffffc080201fd6:	00001097          	auipc	ra,0x1
ffffffc080201fda:	dc0080e7          	jalr	-576(ra) # ffffffc080202d96 <_ZN4core3fmt5write17h49a560cace6c89d2E>
ffffffc080201fde:	10042073          	csrs	sstatus,s0
ffffffc080201fe2:	c11d                	beqz	a0,ffffffc080202008 <.Lpcrel_hi294>

ffffffc080201fe4 <.Lpcrel_hi291>:
ffffffc080201fe4:	00003517          	auipc	a0,0x3
ffffffc080201fe8:	2d750513          	addi	a0,a0,727 # ffffffc0802052bb <.Lanon.427a789f18ce83ac0f31c2f7c1e7e09c.41>

ffffffc080201fec <.Lpcrel_hi292>:
ffffffc080201fec:	00003597          	auipc	a1,0x3
ffffffc080201ff0:	cbc58613          	addi	a2,a1,-836 # ffffffc080204ca8 <.Lanon.4a31e99874bac1ccf364a2e81921985e.20>

ffffffc080201ff4 <.Lpcrel_hi293>:
ffffffc080201ff4:	00003597          	auipc	a1,0x3
ffffffc080201ff8:	cec58693          	addi	a3,a1,-788 # ffffffc080204ce0 <.Lanon.4a31e99874bac1ccf364a2e81921985e.22>
ffffffc080201ffc:	1b710593          	addi	a1,sp,439
ffffffc080202000:	00001097          	auipc	ra,0x1
ffffffc080202004:	39a080e7          	jalr	922(ra) # ffffffc08020339a <_ZN4core6result13unwrap_failed17h368883645868569cE>

ffffffc080202008 <.Lpcrel_hi294>:
ffffffc080202008:	00047517          	auipc	a0,0x47
ffffffc08020200c:	08050693          	addi	a3,a0,128 # ffffffc080249088 <_ZN3log5STATE17h82db28ebc6c403a6E>
ffffffc080202010:	4285                	li	t0,1
ffffffc080202012:	1606b52f          	lr.d.aqrl	a0,(a3)
ffffffc080202016:	e501                	bnez	a0,ffffffc08020201e <.Lpcrel_hi294+0x16>
ffffffc080202018:	1a56b5af          	sc.d.rl	a1,t0,(a3)
ffffffc08020201c:	f9fd                	bnez	a1,ffffffc080202012 <.Lpcrel_hi294+0xa>
ffffffc08020201e:	c531                	beqz	a0,ffffffc08020206a <.Lpcrel_hi297+0x14>
ffffffc080202020:	02551363          	bne	a0,t0,ffffffc080202046 <.Lpcrel_hi295>
ffffffc080202024:	0330000f          	fence	rw,rw
ffffffc080202028:	628c                	ld	a1,0(a3)
ffffffc08020202a:	4505                	li	a0,1
ffffffc08020202c:	0230000f          	fence	r,rw
ffffffc080202030:	00a59b63          	bne	a1,a0,ffffffc080202046 <.Lpcrel_hi295>
ffffffc080202034:	0100000f          	pause
ffffffc080202038:	0330000f          	fence	rw,rw
ffffffc08020203c:	628c                	ld	a1,0(a3)
ffffffc08020203e:	0230000f          	fence	r,rw
ffffffc080202042:	fea589e3          	beq	a1,a0,ffffffc080202034 <.Lpcrel_hi294+0x2c>

ffffffc080202046 <.Lpcrel_hi295>:
ffffffc080202046:	00003517          	auipc	a0,0x3
ffffffc08020204a:	27550513          	addi	a0,a0,629 # ffffffc0802052bb <.Lanon.427a789f18ce83ac0f31c2f7c1e7e09c.41>

ffffffc08020204e <.Lpcrel_hi296>:
ffffffc08020204e:	00003597          	auipc	a1,0x3
ffffffc080202052:	cda58613          	addi	a2,a1,-806 # ffffffc080204d28 <.Lanon.4a31e99874bac1ccf364a2e81921985e.24>

ffffffc080202056 <.Lpcrel_hi297>:
ffffffc080202056:	00003597          	auipc	a1,0x3
ffffffc08020205a:	cf258693          	addi	a3,a1,-782 # ffffffc080204d48 <.Lanon.4a31e99874bac1ccf364a2e81921985e.25>
ffffffc08020205e:	1b710593          	addi	a1,sp,439
ffffffc080202062:	00001097          	auipc	ra,0x1
ffffffc080202066:	338080e7          	jalr	824(ra) # ffffffc08020339a <_ZN4core6result13unwrap_failed17h368883645868569cE>
ffffffc08020206a:	4881                	li	a7,0
ffffffc08020206c:	4401                	li	s0,0

ffffffc08020206e <.Lpcrel_hi298>:
ffffffc08020206e:	00005517          	auipc	a0,0x5

ffffffc080202072 <.Lpcrel_hi299>:
ffffffc080202072:	00003597          	auipc	a1,0x3
ffffffc080202076:	c8658593          	addi	a1,a1,-890 # ffffffc080204cf8 <.Lanon.4a31e99874bac1ccf364a2e81921985e.23>
ffffffc08020207a:	fcb53923          	sd	a1,-46(a0) # ffffffc080207040 <_ZN3log6LOGGER17ha416a0c03de1f01fE.1>
ffffffc08020207e:	0310000f          	fence	rw,w
ffffffc080202082:	4509                	li	a0,2
ffffffc080202084:	e288                	sd	a0,0(a3)

ffffffc080202086 <.Lpcrel_hi300>:
ffffffc080202086:	00047597          	auipc	a1,0x47
ffffffc08020208a:	00a5b523          	sd	a0,10(a1) # ffffffc080249090 <_ZN3log20MAX_LOG_LEVEL_FILTER17ha1f6027dc31f6649E.0>
ffffffc08020208e:	00a5b523          	sd	a0,10(a1)

ffffffc080202092 <.Lpcrel_hi301>:
ffffffc080202092:	00048517          	auipc	a0,0x48
ffffffc080202096:	f6e50513          	addi	a0,a0,-146 # ffffffc08024a000 <_ebss>
ffffffc08020209a:	040005b7          	lui	a1,0x4000
ffffffc08020209e:	2585                	addiw	a1,a1,1
ffffffc0802020a0:	05b2                	slli	a1,a1,0xc
ffffffc0802020a2:	15fd                	addi	a1,a1,-1
ffffffc0802020a4:	952e                	add	a0,a0,a1
ffffffc0802020a6:	75fd                	lui	a1,0xfffff
ffffffc0802020a8:	8d6d                	and	a0,a0,a1
ffffffc0802020aa:	45c5                	li	a1,17
ffffffc0802020ac:	05ee                	slli	a1,a1,0x1b
ffffffc0802020ae:	8d89                	sub	a1,a1,a0

ffffffc0802020b0 <.Lpcrel_hi302>:
ffffffc0802020b0:	00002617          	auipc	a2,0x2
ffffffc0802020b4:	2e860493          	addi	s1,a2,744 # ffffffc080204398 <.Lanon.c0305fa26fbb8783b10acb09d8a7a5c4.32>
ffffffc0802020b8:	fea6                	sd	s1,376(sp)
ffffffc0802020ba:	462d                	li	a2,11
ffffffc0802020bc:	e332                	sd	a2,384(sp)
ffffffc0802020be:	e72a                	sd	a0,392(sp)
ffffffc0802020c0:	eb2e                	sd	a1,400(sp)
ffffffc0802020c2:	08300513          	li	a0,131
ffffffc0802020c6:	ef2a                	sd	a0,408(sp)
ffffffc0802020c8:	fa96                	sd	t0,368(sp)

ffffffc0802020ca <.Lpcrel_hi303>:
ffffffc0802020ca:	00002517          	auipc	a0,0x2
ffffffc0802020ce:	6fe50513          	addi	a0,a0,1790 # ffffffc0802047c8 <.Lanon.c473fb1a9af64a93c76cfe2c383e01f6.32>
ffffffc0802020d2:	f32a                	sd	a0,416(sp)
ffffffc0802020d4:	06050513          	addi	a0,a0,96
ffffffc0802020d8:	f72a                	sd	a0,424(sp)
ffffffc0802020da:	e916                	sd	t0,144(sp)
ffffffc0802020dc:	ed02                	sd	zero,152(sp)
ffffffc0802020de:	4515                	li	a0,5
ffffffc0802020e0:	f12a                	sd	a0,160(sp)

ffffffc0802020e2 <.Lpcrel_hi304>:
ffffffc0802020e2:	00002597          	auipc	a1,0x2
ffffffc0802020e6:	28658593          	addi	a1,a1,646 # ffffffc080204368 <.Lanon.c0305fa26fbb8783b10acb09d8a7a5c4.27>
ffffffc0802020ea:	f52e                	sd	a1,168(sp)
ffffffc0802020ec:	f92a                	sd	a0,176(sp)

ffffffc0802020ee <.Lpcrel_hi305>:
ffffffc0802020ee:	ffffe517          	auipc	a0,0xffffe
ffffffc0802020f2:	f1250513          	addi	a0,a0,-238 # ffffffc080200000 <_start>
ffffffc0802020f6:	02629613          	slli	a2,t0,0x26
ffffffc0802020fa:	00c505b3          	add	a1,a0,a2
ffffffc0802020fe:	fd2e                	sd	a1,184(sp)

ffffffc080202100 <.Lpcrel_hi306>:
ffffffc080202100:	00002597          	auipc	a1,0x2
ffffffc080202104:	f0058593          	addi	a1,a1,-256 # ffffffc080204000 <_etext>
ffffffc080202108:	8d89                	sub	a1,a1,a0
ffffffc08020210a:	e1ae                	sd	a1,192(sp)
ffffffc08020210c:	04500513          	li	a0,69
ffffffc080202110:	e5aa                	sd	a0,200(sp)

ffffffc080202112 <.Lpcrel_hi307>:
ffffffc080202112:	00002517          	auipc	a0,0x2
ffffffc080202116:	25b50513          	addi	a0,a0,603 # ffffffc08020436d <.Lanon.c0305fa26fbb8783b10acb09d8a7a5c4.28>
ffffffc08020211a:	e9aa                	sd	a0,208(sp)
ffffffc08020211c:	451d                	li	a0,7
ffffffc08020211e:	edaa                	sd	a0,216(sp)

ffffffc080202120 <.Lpcrel_hi308>:
ffffffc080202120:	00002517          	auipc	a0,0x2
ffffffc080202124:	ee050513          	addi	a0,a0,-288 # ffffffc080204000 <_etext>
ffffffc080202128:	00c505b3          	add	a1,a0,a2
ffffffc08020212c:	f1ae                	sd	a1,224(sp)

ffffffc08020212e <.Lpcrel_hi309>:
ffffffc08020212e:	00004597          	auipc	a1,0x4
ffffffc080202132:	ed258593          	addi	a1,a1,-302 # ffffffc080206000 <_ZN5axhal8platform17riscv64_qemu_virt4boot12BOOT_PT_SV3917hcf6c4511daf0214fE>
ffffffc080202136:	8d89                	sub	a1,a1,a0
ffffffc080202138:	f5ae                	sd	a1,232(sp)
ffffffc08020213a:	04100513          	li	a0,65
ffffffc08020213e:	f9aa                	sd	a0,240(sp)

ffffffc080202140 <.Lpcrel_hi310>:
ffffffc080202140:	00002517          	auipc	a0,0x2
ffffffc080202144:	23450513          	addi	a0,a0,564 # ffffffc080204374 <.Lanon.c0305fa26fbb8783b10acb09d8a7a5c4.29>
ffffffc080202148:	fdaa                	sd	a0,248(sp)
ffffffc08020214a:	4569                	li	a0,26
ffffffc08020214c:	e22a                	sd	a0,256(sp)

ffffffc08020214e <.Lpcrel_hi311>:
ffffffc08020214e:	00004517          	auipc	a0,0x4
ffffffc080202152:	eb250513          	addi	a0,a0,-334 # ffffffc080206000 <_ZN5axhal8platform17riscv64_qemu_virt4boot12BOOT_PT_SV3917hcf6c4511daf0214fE>
ffffffc080202156:	00c505b3          	add	a1,a0,a2
ffffffc08020215a:	e62e                	sd	a1,264(sp)

ffffffc08020215c <.Lpcrel_hi312>:
ffffffc08020215c:	00007597          	auipc	a1,0x7
ffffffc080202160:	ea458593          	addi	a1,a1,-348 # ffffffc080209000 <_ZN5axhal8platform17riscv64_qemu_virt4boot10BOOT_STACK17h2485bfb03ee3e26aE>
ffffffc080202164:	40a58533          	sub	a0,a1,a0
ffffffc080202168:	112c                	addi	a1,sp,168
ffffffc08020216a:	ea2a                	sd	a0,272(sp)

ffffffc08020216c <.Lpcrel_hi313>:
ffffffc08020216c:	00002517          	auipc	a0,0x2
ffffffc080202170:	22250513          	addi	a0,a0,546 # ffffffc08020438e <.Lanon.c0305fa26fbb8783b10acb09d8a7a5c4.30>
ffffffc080202174:	f22a                	sd	a0,288(sp)
ffffffc080202176:	4529                	li	a0,10
ffffffc080202178:	f62a                	sd	a0,296(sp)

ffffffc08020217a <.Lpcrel_hi314>:
ffffffc08020217a:	00007517          	auipc	a0,0x7
ffffffc08020217e:	e8650513          	addi	a0,a0,-378 # ffffffc080209000 <_ZN5axhal8platform17riscv64_qemu_virt4boot10BOOT_STACK17h2485bfb03ee3e26aE>
ffffffc080202182:	962a                	add	a2,a2,a0
ffffffc080202184:	fa32                	sd	a2,304(sp)

ffffffc080202186 <.Lpcrel_hi315>:
ffffffc080202186:	00047617          	auipc	a2,0x47
ffffffc08020218a:	e7a60613          	addi	a2,a2,-390 # ffffffc080249000 <_ZN13arceos_loader9ABI_TABLE17h557f92d75859fc23E>
ffffffc08020218e:	8e09                	sub	a2,a2,a0
ffffffc080202190:	04300513          	li	a0,67
ffffffc080202194:	ee2a                	sd	a0,280(sp)
ffffffc080202196:	fe32                	sd	a2,312(sp)
ffffffc080202198:	e2aa                	sd	a0,320(sp)

ffffffc08020219a <.Lpcrel_hi316>:
ffffffc08020219a:	00002517          	auipc	a0,0x2
ffffffc08020219e:	eda50513          	addi	a0,a0,-294 # ffffffc080204074 <$d.90+0xc>
ffffffc0802021a2:	e6aa                	sd	a0,328(sp)
ffffffc0802021a4:	02800793          	li	a5,40
ffffffc0802021a8:	06000813          	li	a6,96
ffffffc0802021ac:	8626                	mv	a2,s1
ffffffc0802021ae:	8516                	mv	a0,t0
ffffffc0802021b0:	86b2                	mv	a3,a2
ffffffc0802021b2:	02f40733          	mul	a4,s0,a5
ffffffc0802021b6:	972e                	add	a4,a4,a1
ffffffc0802021b8:	8622                	mv	a2,s0
ffffffc0802021ba:	c919                	beqz	a0,ffffffc0802021d0 <.Lpcrel_hi316+0x36>
ffffffc0802021bc:	4415                	li	s0,5
ffffffc0802021be:	00860a63          	beq	a2,s0,ffffffc0802021d2 <.Lpcrel_hi316+0x38>
ffffffc0802021c2:	6304                	ld	s1,0(a4)
ffffffc0802021c4:	0605                	addi	a2,a2,1
ffffffc0802021c6:	02870713          	addi	a4,a4,40
ffffffc0802021ca:	8432                	mv	s0,a2
ffffffc0802021cc:	f4fd                	bnez	s1,ffffffc0802021ba <.Lpcrel_hi316+0x20>
ffffffc0802021ce:	a011                	j	ffffffc0802021d2 <.Lpcrel_hi316+0x38>
ffffffc0802021d0:	8432                	mv	s0,a2
ffffffc0802021d2:	00028963          	beqz	t0,ffffffc0802021e4 <.Lpcrel_hi316+0x4a>
ffffffc0802021d6:	4601                	li	a2,0
ffffffc0802021d8:	4501                	li	a0,0
ffffffc0802021da:	4481                	li	s1,0
ffffffc0802021dc:	faf1                	bnez	a3,ffffffc0802021b0 <.Lpcrel_hi316+0x16>
ffffffc0802021de:	01089663          	bne	a7,a6,ffffffc0802021ea <.Lpcrel_hi316+0x50>
ffffffc0802021e2:	a039                	j	ffffffc0802021f0 <.Lpcrel_hi317>
ffffffc0802021e4:	84b6                	mv	s1,a3
ffffffc0802021e6:	01088563          	beq	a7,a6,ffffffc0802021f0 <.Lpcrel_hi317>
ffffffc0802021ea:	4281                	li	t0,0
ffffffc0802021ec:	08c1                	addi	a7,a7,16
ffffffc0802021ee:	bf7d                	j	ffffffc0802021ac <.Lpcrel_hi316+0x12>

ffffffc0802021f0 <.Lpcrel_hi317>:
ffffffc0802021f0:	00047517          	auipc	a0,0x47
ffffffc0802021f4:	e9050513          	addi	a0,a0,-368 # ffffffc080249080 <_ZN9axruntime11INITED_CPUS17haecfae2c245bf0eaE>
ffffffc0802021f8:	4585                	li	a1,1
ffffffc0802021fa:	00b5302f          	amoadd.d	zero,a1,(a0)
ffffffc0802021fe:	6110                	ld	a2,0(a0)
ffffffc080202200:	0230000f          	fence	r,rw
ffffffc080202204:	00b60963          	beq	a2,a1,ffffffc080202216 <.Lpcrel_hi317+0x26>
ffffffc080202208:	0100000f          	pause
ffffffc08020220c:	6110                	ld	a2,0(a0)
ffffffc08020220e:	0230000f          	fence	r,rw
ffffffc080202212:	feb61be3          	bne	a2,a1,ffffffc080202208 <.Lpcrel_hi317+0x18>
ffffffc080202216:	ffffe097          	auipc	ra,0xffffe
ffffffc08020221a:	524080e7          	jalr	1316(ra) # ffffffc08020073a <main>
ffffffc08020221e:	fffff097          	auipc	ra,0xfffff
ffffffc080202222:	652080e7          	jalr	1618(ra) # ffffffc080201870 <_ZN5axhal8platform17riscv64_qemu_virt4misc9terminate17h0bc651b4056054b0E>

ffffffc080202226 <_ZN44_$LT$$RF$T$u20$as$u20$core..fmt..Display$GT$3fmt17h08215a0f3cae4f5bE>:
ffffffc080202226:	6114                	ld	a3,0(a0)
ffffffc080202228:	6510                	ld	a2,8(a0)
ffffffc08020222a:	852e                	mv	a0,a1
ffffffc08020222c:	85b6                	mv	a1,a3
ffffffc08020222e:	00000317          	auipc	t1,0x0
ffffffc080202232:	67030067          	jr	1648(t1) # ffffffc08020289e <_ZN4core3fmt9Formatter3pad17heef45ae07d2799a9E>

ffffffc080202236 <_ZN5axstd2io5stdio12__print_impl17h3241dcc74a39d932E>:
ffffffc080202236:	7159                	addi	sp,sp,-112
ffffffc080202238:	f486                	sd	ra,104(sp)
ffffffc08020223a:	f0a2                	sd	s0,96(sp)
ffffffc08020223c:	862a                	mv	a2,a0
ffffffc08020223e:	4505                	li	a0,1
ffffffc080202240:	e02a                	sd	a0,0(sp)

ffffffc080202242 <.Lpcrel_hi320>:
ffffffc080202242:	00047517          	auipc	a0,0x47
ffffffc080202246:	e3e50513          	addi	a0,a0,-450 # ffffffc080249080 <_ZN9axruntime11INITED_CPUS17haecfae2c245bf0eaE>
ffffffc08020224a:	e42a                	sd	a0,8(sp)
ffffffc08020224c:	850a                	mv	a0,sp
ffffffc08020224e:	e82a                	sd	a0,16(sp)
ffffffc080202250:	cc02                	sw	zero,24(sp)

ffffffc080202252 <.Lpcrel_hi321>:
ffffffc080202252:	00003517          	auipc	a0,0x3
ffffffc080202256:	eee50593          	addi	a1,a0,-274 # ffffffc080205140 <.Lanon.427a789f18ce83ac0f31c2f7c1e7e09c.8>
ffffffc08020225a:	0808                	addi	a0,sp,16
ffffffc08020225c:	00001097          	auipc	ra,0x1
ffffffc080202260:	b3a080e7          	jalr	-1222(ra) # ffffffc080202d96 <_ZN4core3fmt5write17h49a560cace6c89d2E>
ffffffc080202264:	e509                	bnez	a0,ffffffc08020226e <.Lpcrel_hi321+0x1c>
ffffffc080202266:	70a6                	ld	ra,104(sp)
ffffffc080202268:	7406                	ld	s0,96(sp)
ffffffc08020226a:	6165                	addi	sp,sp,112
ffffffc08020226c:	8082                	ret
ffffffc08020226e:	4462                	lw	s0,24(sp)
ffffffc080202270:	e831                	bnez	s0,ffffffc0802022c4 <.Lpcrel_hi326+0x18>

ffffffc080202272 <.Lpcrel_hi322>:
ffffffc080202272:	00047517          	auipc	a0,0x47
ffffffc080202276:	e1e53583          	ld	a1,-482(a0) # ffffffc080249090 <_ZN3log20MAX_LOG_LEVEL_FILTER17ha1f6027dc31f6649E.0>
ffffffc08020227a:	4509                	li	a0,2
ffffffc08020227c:	4421                	li	s0,8
ffffffc08020227e:	04a5e363          	bltu	a1,a0,ffffffc0802022c4 <.Lpcrel_hi326+0x18>

ffffffc080202282 <.Lpcrel_hi323>:
ffffffc080202282:	00002597          	auipc	a1,0x2
ffffffc080202286:	dde58593          	addi	a1,a1,-546 # ffffffc080204060 <.Lanon.fad58de7366495db4650cfefac2fcd61.3+0x28>
ffffffc08020228a:	e8ae                	sd	a1,80(sp)

ffffffc08020228c <.Lpcrel_hi324>:
ffffffc08020228c:	00000597          	auipc	a1,0x0
ffffffc080202290:	05c58593          	addi	a1,a1,92 # ffffffc0802022e8 <_ZN53_$LT$axerrno..AxError$u20$as$u20$core..fmt..Debug$GT$3fmt17hf4f51e7b362d9119E>
ffffffc080202294:	ecae                	sd	a1,88(sp)

ffffffc080202296 <.Lpcrel_hi325>:
ffffffc080202296:	00003597          	auipc	a1,0x3
ffffffc08020229a:	ef258593          	addi	a1,a1,-270 # ffffffc080205188 <.Lanon.427a789f18ce83ac0f31c2f7c1e7e09c.10>
ffffffc08020229e:	f02e                	sd	a1,32(sp)
ffffffc0802022a0:	f42a                	sd	a0,40(sp)
ffffffc0802022a2:	e082                	sd	zero,64(sp)
ffffffc0802022a4:	0888                	addi	a0,sp,80
ffffffc0802022a6:	f82a                	sd	a0,48(sp)
ffffffc0802022a8:	4505                	li	a0,1
ffffffc0802022aa:	fc2a                	sd	a0,56(sp)

ffffffc0802022ac <.Lpcrel_hi326>:
ffffffc0802022ac:	00003517          	auipc	a0,0x3
ffffffc0802022b0:	e6450613          	addi	a2,a0,-412 # ffffffc080205110 <.Lanon.427a789f18ce83ac0f31c2f7c1e7e09c.6>
ffffffc0802022b4:	1008                	addi	a0,sp,32
ffffffc0802022b6:	4589                	li	a1,2
ffffffc0802022b8:	07d00693          	li	a3,125
ffffffc0802022bc:	00001097          	auipc	ra,0x1
ffffffc0802022c0:	4c6080e7          	jalr	1222(ra) # ffffffc080203782 <_ZN3log13__private_api8log_impl17h8ff5c7eb18f9ca8bE>
ffffffc0802022c4:	d022                	sw	s0,32(sp)

ffffffc0802022c6 <.Lpcrel_hi327>:
ffffffc0802022c6:	00003517          	auipc	a0,0x3
ffffffc0802022ca:	ff550513          	addi	a0,a0,-11 # ffffffc0802052bb <.Lanon.427a789f18ce83ac0f31c2f7c1e7e09c.41>

ffffffc0802022ce <.Lpcrel_hi328>:
ffffffc0802022ce:	00003597          	auipc	a1,0x3
ffffffc0802022d2:	01a58613          	addi	a2,a1,26 # ffffffc0802052e8 <.Lanon.427a789f18ce83ac0f31c2f7c1e7e09c.42>

ffffffc0802022d6 <.Lpcrel_hi329>:
ffffffc0802022d6:	00003597          	auipc	a1,0x3
ffffffc0802022da:	03258693          	addi	a3,a1,50 # ffffffc080205308 <.Lanon.427a789f18ce83ac0f31c2f7c1e7e09c.43>
ffffffc0802022de:	100c                	addi	a1,sp,32
ffffffc0802022e0:	00001097          	auipc	ra,0x1
ffffffc0802022e4:	0ba080e7          	jalr	186(ra) # ffffffc08020339a <_ZN4core6result13unwrap_failed17h368883645868569cE>

ffffffc0802022e8 <_ZN53_$LT$axerrno..AxError$u20$as$u20$core..fmt..Debug$GT$3fmt17hf4f51e7b362d9119E>:
ffffffc0802022e8:	4108                	lw	a0,0(a0)
ffffffc0802022ea:	050e                	slli	a0,a0,0x3
ffffffc0802022ec:	1561                	addi	a0,a0,-8

ffffffc0802022ee <.Lpcrel_hi330>:
ffffffc0802022ee:	00003617          	auipc	a2,0x3
ffffffc0802022f2:	62260613          	addi	a2,a2,1570 # ffffffc080205910 <.Lswitch.table._ZN53_$LT$axerrno..AxError$u20$as$u20$core..fmt..Debug$GT$3fmt17hf4f51e7b362d9119E>
ffffffc0802022f6:	962a                	add	a2,a2,a0

ffffffc0802022f8 <.Lpcrel_hi331>:
ffffffc0802022f8:	00003697          	auipc	a3,0x3
ffffffc0802022fc:	6c868693          	addi	a3,a3,1736 # ffffffc0802059c0 <.Lswitch.table._ZN53_$LT$axerrno..AxError$u20$as$u20$core..fmt..Debug$GT$3fmt17hf4f51e7b362d9119E.186>
ffffffc080202300:	9536                	add	a0,a0,a3
ffffffc080202302:	7598                	ld	a4,40(a1)
ffffffc080202304:	6210                	ld	a2,0(a2)
ffffffc080202306:	6114                	ld	a3,0(a0)
ffffffc080202308:	7188                	ld	a0,32(a1)
ffffffc08020230a:	6f1c                	ld	a5,24(a4)
ffffffc08020230c:	85b6                	mv	a1,a3
ffffffc08020230e:	8782                	jr	a5

ffffffc080202310 <_ZN4core3ptr37drop_in_place$LT$axerrno..AxError$GT$17h45a1c73f6b5c562bE>:
ffffffc080202310:	8082                	ret

ffffffc080202312 <_ZN77_$LT$axio..Write..write_fmt..Adapter$LT$T$GT$$u20$as$u20$core..fmt..Write$GT$9write_str17h2f5a7ad0aef10030E>:
ffffffc080202312:	ce0d                	beqz	a2,ffffffc08020234c <_ZN77_$LT$axio..Write..write_fmt..Adapter$LT$T$GT$$u20$as$u20$core..fmt..Write$GT$9write_str17h2f5a7ad0aef10030E+0x3a>
ffffffc080202314:	86b2                	mv	a3,a2
ffffffc080202316:	82ae                	mv	t0,a1
ffffffc080202318:	4781                	li	a5,0
ffffffc08020231a:	4705                	li	a4,1
ffffffc08020231c:	171a                	slli	a4,a4,0x26
ffffffc08020231e:	44424537          	lui	a0,0x44424
ffffffc080202322:	34e5089b          	addiw	a7,a0,846
ffffffc080202326:	4801                	li	a6,0
ffffffc080202328:	4601                	li	a2,0
ffffffc08020232a:	40f68533          	sub	a0,a3,a5
ffffffc08020232e:	10000593          	li	a1,256
ffffffc080202332:	00b56463          	bltu	a0,a1,ffffffc08020233a <_ZN77_$LT$axio..Write..write_fmt..Adapter$LT$T$GT$$u20$as$u20$core..fmt..Write$GT$9write_str17h2f5a7ad0aef10030E+0x28>
ffffffc080202336:	10000513          	li	a0,256
ffffffc08020233a:	00f285b3          	add	a1,t0,a5
ffffffc08020233e:	95ba                	add	a1,a1,a4
ffffffc080202340:	00000073          	ecall
ffffffc080202344:	c581                	beqz	a1,ffffffc08020234c <_ZN77_$LT$axio..Write..write_fmt..Adapter$LT$T$GT$$u20$as$u20$core..fmt..Write$GT$9write_str17h2f5a7ad0aef10030E+0x3a>
ffffffc080202346:	97ae                	add	a5,a5,a1
ffffffc080202348:	fed7e1e3          	bltu	a5,a3,ffffffc08020232a <_ZN77_$LT$axio..Write..write_fmt..Adapter$LT$T$GT$$u20$as$u20$core..fmt..Write$GT$9write_str17h2f5a7ad0aef10030E+0x18>
ffffffc08020234c:	4501                	li	a0,0
ffffffc08020234e:	8082                	ret

ffffffc080202350 <_ZN4core3fmt5Write10write_char17h4386f550266674f3E>:
ffffffc080202350:	1141                	addi	sp,sp,-16
ffffffc080202352:	e406                	sd	ra,8(sp)
ffffffc080202354:	0005861b          	sext.w	a2,a1
ffffffc080202358:	08000693          	li	a3,128
ffffffc08020235c:	c202                	sw	zero,4(sp)
ffffffc08020235e:	00d67663          	bgeu	a2,a3,ffffffc08020236a <_ZN4core3fmt5Write10write_char17h4386f550266674f3E+0x1a>
ffffffc080202362:	00b10223          	sb	a1,4(sp)
ffffffc080202366:	4605                	li	a2,1
ffffffc080202368:	a071                	j	ffffffc0802023f4 <_ZN4core3fmt5Write10write_char17h4386f550266674f3E+0xa4>
ffffffc08020236a:	00b5d61b          	srliw	a2,a1,0xb
ffffffc08020236e:	ee19                	bnez	a2,ffffffc08020238c <_ZN4core3fmt5Write10write_char17h4386f550266674f3E+0x3c>
ffffffc080202370:	0065d613          	srli	a2,a1,0x6
ffffffc080202374:	0c066613          	ori	a2,a2,192
ffffffc080202378:	00c10223          	sb	a2,4(sp)
ffffffc08020237c:	03f5f593          	andi	a1,a1,63
ffffffc080202380:	08058593          	addi	a1,a1,128
ffffffc080202384:	00b102a3          	sb	a1,5(sp)
ffffffc080202388:	4609                	li	a2,2
ffffffc08020238a:	a0ad                	j	ffffffc0802023f4 <_ZN4core3fmt5Write10write_char17h4386f550266674f3E+0xa4>
ffffffc08020238c:	0105d61b          	srliw	a2,a1,0x10
ffffffc080202390:	e615                	bnez	a2,ffffffc0802023bc <_ZN4core3fmt5Write10write_char17h4386f550266674f3E+0x6c>
ffffffc080202392:	00c5d613          	srli	a2,a1,0xc
ffffffc080202396:	0e066613          	ori	a2,a2,224
ffffffc08020239a:	00c10223          	sb	a2,4(sp)
ffffffc08020239e:	03459613          	slli	a2,a1,0x34
ffffffc0802023a2:	9269                	srli	a2,a2,0x3a
ffffffc0802023a4:	08060613          	addi	a2,a2,128
ffffffc0802023a8:	00c102a3          	sb	a2,5(sp)
ffffffc0802023ac:	03f5f593          	andi	a1,a1,63
ffffffc0802023b0:	08058593          	addi	a1,a1,128
ffffffc0802023b4:	00b10323          	sb	a1,6(sp)
ffffffc0802023b8:	460d                	li	a2,3
ffffffc0802023ba:	a82d                	j	ffffffc0802023f4 <_ZN4core3fmt5Write10write_char17h4386f550266674f3E+0xa4>
ffffffc0802023bc:	02b59613          	slli	a2,a1,0x2b
ffffffc0802023c0:	9275                	srli	a2,a2,0x3d
ffffffc0802023c2:	0f060613          	addi	a2,a2,240
ffffffc0802023c6:	00c10223          	sb	a2,4(sp)
ffffffc0802023ca:	02e59613          	slli	a2,a1,0x2e
ffffffc0802023ce:	9269                	srli	a2,a2,0x3a
ffffffc0802023d0:	08060613          	addi	a2,a2,128
ffffffc0802023d4:	00c102a3          	sb	a2,5(sp)
ffffffc0802023d8:	03459613          	slli	a2,a1,0x34
ffffffc0802023dc:	9269                	srli	a2,a2,0x3a
ffffffc0802023de:	08060613          	addi	a2,a2,128
ffffffc0802023e2:	00c10323          	sb	a2,6(sp)
ffffffc0802023e6:	03f5f593          	andi	a1,a1,63
ffffffc0802023ea:	08058593          	addi	a1,a1,128
ffffffc0802023ee:	00b103a3          	sb	a1,7(sp)
ffffffc0802023f2:	4611                	li	a2,4
ffffffc0802023f4:	004c                	addi	a1,sp,4
ffffffc0802023f6:	00000097          	auipc	ra,0x0
ffffffc0802023fa:	f1c080e7          	jalr	-228(ra) # ffffffc080202312 <_ZN77_$LT$axio..Write..write_fmt..Adapter$LT$T$GT$$u20$as$u20$core..fmt..Write$GT$9write_str17h2f5a7ad0aef10030E>
ffffffc0802023fe:	60a2                	ld	ra,8(sp)
ffffffc080202400:	0141                	addi	sp,sp,16
ffffffc080202402:	8082                	ret

ffffffc080202404 <_ZN4core3fmt5Write9write_fmt17hd6698b59f53bf0f4E>:
ffffffc080202404:	862e                	mv	a2,a1
ffffffc080202406:	658c                	ld	a1,8(a1)
ffffffc080202408:	4685                	li	a3,1

ffffffc08020240a <.Lpcrel_hi332>:
ffffffc08020240a:	00003597          	auipc	a1,0x3
ffffffc08020240e:	d3658593          	addi	a1,a1,-714 # ffffffc080205140 <.Lanon.427a789f18ce83ac0f31c2f7c1e7e09c.8>
ffffffc080202412:	00001317          	auipc	t1,0x1
ffffffc080202416:	98430067          	jr	-1660(t1) # ffffffc080202d96 <_ZN4core3fmt5write17h49a560cace6c89d2E>

ffffffc08020241a <_ZN5axstd7process4exit17h785defe412e46c7fE>:
ffffffc08020241a:	fffff097          	auipc	ra,0xfffff
ffffffc08020241e:	950080e7          	jalr	-1712(ra) # ffffffc080200d6a <_ZN10arceos_api3sys12ax_terminate17hccfa4a17499acb35E>

ffffffc080202422 <_ZN4core9panicking9panic_fmt17h11ec9af140fca503E>:
ffffffc080202422:	7139                	addi	sp,sp,-64
ffffffc080202424:	fc06                	sd	ra,56(sp)
ffffffc080202426:	f822                	sd	s0,48(sp)
ffffffc080202428:	0080                	addi	s0,sp,64
ffffffc08020242a:	4605                	li	a2,1
ffffffc08020242c:	fcc43423          	sd	a2,-56(s0)

ffffffc080202430 <.Lpcrel_hi333>:
ffffffc080202430:	00003697          	auipc	a3,0x3
ffffffc080202434:	f3868693          	addi	a3,a3,-200 # ffffffc080205368 <.Lanon.c308b1a5a0a97bdc8edd9b96ba25ee05.255>
ffffffc080202438:	fcd43823          	sd	a3,-48(s0)
ffffffc08020243c:	fca43c23          	sd	a0,-40(s0)
ffffffc080202440:	feb43023          	sd	a1,-32(s0)
ffffffc080202444:	fec41423          	sh	a2,-24(s0)
ffffffc080202448:	fc840513          	addi	a0,s0,-56
ffffffc08020244c:	00000097          	auipc	ra,0x0
ffffffc080202450:	886080e7          	jalr	-1914(ra) # ffffffc080201cd2 <rust_begin_unwind>

ffffffc080202454 <_ZN4core3ptr37drop_in_place$LT$core..fmt..Error$GT$17h7c410a26c1d28cadE>:
ffffffc080202454:	1141                	addi	sp,sp,-16
ffffffc080202456:	e406                	sd	ra,8(sp)
ffffffc080202458:	e022                	sd	s0,0(sp)
ffffffc08020245a:	0800                	addi	s0,sp,16
ffffffc08020245c:	60a2                	ld	ra,8(sp)
ffffffc08020245e:	6402                	ld	s0,0(sp)
ffffffc080202460:	0141                	addi	sp,sp,16
ffffffc080202462:	8082                	ret

ffffffc080202464 <_ZN36_$LT$T$u20$as$u20$core..any..Any$GT$7type_id17hc3d15622f3d995abE>:
ffffffc080202464:	1141                	addi	sp,sp,-16
ffffffc080202466:	e406                	sd	ra,8(sp)
ffffffc080202468:	e022                	sd	s0,0(sp)
ffffffc08020246a:	0800                	addi	s0,sp,16

ffffffc08020246c <.Lpcrel_hi334>:
ffffffc08020246c:	00005517          	auipc	a0,0x5
ffffffc080202470:	bb453503          	ld	a0,-1100(a0) # ffffffc080207020 <.LCPI52_0>

ffffffc080202474 <.Lpcrel_hi335>:
ffffffc080202474:	00005597          	auipc	a1,0x5
ffffffc080202478:	bb45b583          	ld	a1,-1100(a1) # ffffffc080207028 <.LCPI52_1>
ffffffc08020247c:	60a2                	ld	ra,8(sp)
ffffffc08020247e:	6402                	ld	s0,0(sp)
ffffffc080202480:	0141                	addi	sp,sp,16
ffffffc080202482:	8082                	ret

ffffffc080202484 <_ZN4core5slice5index26slice_start_index_len_fail17h9a8c132d7bd51700E>:
ffffffc080202484:	1141                	addi	sp,sp,-16
ffffffc080202486:	e406                	sd	ra,8(sp)
ffffffc080202488:	e022                	sd	s0,0(sp)
ffffffc08020248a:	0800                	addi	s0,sp,16
ffffffc08020248c:	00000097          	auipc	ra,0x0
ffffffc080202490:	3b2080e7          	jalr	946(ra) # ffffffc08020283e <_ZN4core5slice5index29slice_start_index_len_fail_rt17h70e3d0b517469eb2E>

ffffffc080202494 <_ZN4core3fmt3num3imp52_$LT$impl$u20$core..fmt..Display$u20$for$u20$u64$GT$3fmt17hca01a1912e792145E>:
ffffffc080202494:	1141                	addi	sp,sp,-16
ffffffc080202496:	e406                	sd	ra,8(sp)
ffffffc080202498:	e022                	sd	s0,0(sp)
ffffffc08020249a:	0800                	addi	s0,sp,16
ffffffc08020249c:	6108                	ld	a0,0(a0)
ffffffc08020249e:	60a2                	ld	ra,8(sp)
ffffffc0802024a0:	6402                	ld	s0,0(sp)
ffffffc0802024a2:	0141                	addi	sp,sp,16
ffffffc0802024a4:	00000317          	auipc	t1,0x0
ffffffc0802024a8:	00830067          	jr	8(t1) # ffffffc0802024ac <_ZN4core3fmt3num3imp7fmt_u6417h5142f3088252957cE>

ffffffc0802024ac <_ZN4core3fmt3num3imp7fmt_u6417h5142f3088252957cE>:
ffffffc0802024ac:	7139                	addi	sp,sp,-64
ffffffc0802024ae:	fc06                	sd	ra,56(sp)
ffffffc0802024b0:	f822                	sd	s0,48(sp)
ffffffc0802024b2:	0080                	addi	s0,sp,64
ffffffc0802024b4:	882e                	mv	a6,a1
ffffffc0802024b6:	00455613          	srli	a2,a0,0x4
ffffffc0802024ba:	02700f13          	li	t5,39
ffffffc0802024be:	27100713          	li	a4,625

ffffffc0802024c2 <.Lpcrel_hi336>:
ffffffc0802024c2:	00003697          	auipc	a3,0x3
ffffffc0802024c6:	00e68e93          	addi	t4,a3,14 # ffffffc0802054d0 <.Lanon.c308b1a5a0a97bdc8edd9b96ba25ee05.316>
ffffffc0802024ca:	08e66363          	bltu	a2,a4,ffffffc080202550 <.Lpcrel_hi337+0x7a>
ffffffc0802024ce:	02700f13          	li	t5,39
ffffffc0802024d2:	fee40713          	addi	a4,s0,-18

ffffffc0802024d6 <.Lpcrel_hi337>:
ffffffc0802024d6:	00005617          	auipc	a2,0x5
ffffffc0802024da:	b5a63883          	ld	a7,-1190(a2) # ffffffc080207030 <.LCPI55_0>
ffffffc0802024de:	6639                	lui	a2,0xe
ffffffc0802024e0:	8f060313          	addi	t1,a2,-1808 # d8f0 <_percpu_load_end+0xd8e7>
ffffffc0802024e4:	6605                	lui	a2,0x1
ffffffc0802024e6:	47b6039b          	addiw	t2,a2,1147
ffffffc0802024ea:	f9c00293          	li	t0,-100
ffffffc0802024ee:	05f5e637          	lui	a2,0x5f5e
ffffffc0802024f2:	0ff60e1b          	addiw	t3,a2,255
ffffffc0802024f6:	86aa                	mv	a3,a0
ffffffc0802024f8:	03153533          	mulhu	a0,a0,a7
ffffffc0802024fc:	812d                	srli	a0,a0,0xb
ffffffc0802024fe:	02650633          	mul	a2,a0,t1
ffffffc080202502:	00d607b3          	add	a5,a2,a3
ffffffc080202506:	03079613          	slli	a2,a5,0x30
ffffffc08020250a:	9249                	srli	a2,a2,0x32
ffffffc08020250c:	02760633          	mul	a2,a2,t2
ffffffc080202510:	01165593          	srli	a1,a2,0x11
ffffffc080202514:	8241                	srli	a2,a2,0x10
ffffffc080202516:	7fe67613          	andi	a2,a2,2046
ffffffc08020251a:	025585b3          	mul	a1,a1,t0
ffffffc08020251e:	95be                	add	a1,a1,a5
ffffffc080202520:	9676                	add	a2,a2,t4
ffffffc080202522:	00164783          	lbu	a5,1(a2) # 5f5e001 <_percpu_load_end+0x5f5dff8>
ffffffc080202526:	15c6                	slli	a1,a1,0x31
ffffffc080202528:	91c1                	srli	a1,a1,0x30
ffffffc08020252a:	00064603          	lbu	a2,0(a2)
ffffffc08020252e:	fef70fa3          	sb	a5,-1(a4)
ffffffc080202532:	95f6                	add	a1,a1,t4
ffffffc080202534:	0015c783          	lbu	a5,1(a1)
ffffffc080202538:	0005c583          	lbu	a1,0(a1)
ffffffc08020253c:	1f71                	addi	t5,t5,-4
ffffffc08020253e:	fec70f23          	sb	a2,-2(a4)
ffffffc080202542:	00f700a3          	sb	a5,1(a4)
ffffffc080202546:	00b70023          	sb	a1,0(a4)
ffffffc08020254a:	1771                	addi	a4,a4,-4
ffffffc08020254c:	fade65e3          	bltu	t3,a3,ffffffc0802024f6 <.Lpcrel_hi337+0x20>
ffffffc080202550:	06300613          	li	a2,99
ffffffc080202554:	04a67063          	bgeu	a2,a0,ffffffc080202594 <.Lpcrel_hi337+0xbe>
ffffffc080202558:	03051593          	slli	a1,a0,0x30
ffffffc08020255c:	91c9                	srli	a1,a1,0x32
ffffffc08020255e:	6605                	lui	a2,0x1
ffffffc080202560:	47b6061b          	addiw	a2,a2,1147
ffffffc080202564:	02c585b3          	mul	a1,a1,a2
ffffffc080202568:	81c5                	srli	a1,a1,0x11
ffffffc08020256a:	f9c00613          	li	a2,-100
ffffffc08020256e:	02c58633          	mul	a2,a1,a2
ffffffc080202572:	9532                	add	a0,a0,a2
ffffffc080202574:	1546                	slli	a0,a0,0x31
ffffffc080202576:	9141                	srli	a0,a0,0x30
ffffffc080202578:	1f79                	addi	t5,t5,-2
ffffffc08020257a:	9576                	add	a0,a0,t4
ffffffc08020257c:	00154603          	lbu	a2,1(a0)
ffffffc080202580:	00054503          	lbu	a0,0(a0)
ffffffc080202584:	fc940693          	addi	a3,s0,-55
ffffffc080202588:	96fa                	add	a3,a3,t5
ffffffc08020258a:	00c680a3          	sb	a2,1(a3)
ffffffc08020258e:	00a68023          	sb	a0,0(a3)
ffffffc080202592:	852e                	mv	a0,a1
ffffffc080202594:	45a9                	li	a1,10
ffffffc080202596:	00b57c63          	bgeu	a0,a1,ffffffc0802025ae <.Lpcrel_hi337+0xd8>
ffffffc08020259a:	ffff0593          	addi	a1,t5,-1
ffffffc08020259e:	fc940613          	addi	a2,s0,-55
ffffffc0802025a2:	962e                	add	a2,a2,a1
ffffffc0802025a4:	03056513          	ori	a0,a0,48
ffffffc0802025a8:	00a60023          	sb	a0,0(a2) # 1000 <_percpu_load_end+0xff7>
ffffffc0802025ac:	a005                	j	ffffffc0802025cc <.Lpcrel_hi337+0xf6>
ffffffc0802025ae:	0506                	slli	a0,a0,0x1
ffffffc0802025b0:	ffef0593          	addi	a1,t5,-2
ffffffc0802025b4:	9576                	add	a0,a0,t4
ffffffc0802025b6:	00154603          	lbu	a2,1(a0)
ffffffc0802025ba:	00054503          	lbu	a0,0(a0)
ffffffc0802025be:	fc940693          	addi	a3,s0,-55
ffffffc0802025c2:	96ae                	add	a3,a3,a1
ffffffc0802025c4:	00c680a3          	sb	a2,1(a3)
ffffffc0802025c8:	00a68023          	sb	a0,0(a3)
ffffffc0802025cc:	fc940693          	addi	a3,s0,-55
ffffffc0802025d0:	96ae                	add	a3,a3,a1
ffffffc0802025d2:	02700713          	li	a4,39
ffffffc0802025d6:	8f0d                	sub	a4,a4,a1
ffffffc0802025d8:	4585                	li	a1,1
ffffffc0802025da:	8542                	mv	a0,a6
ffffffc0802025dc:	4601                	li	a2,0
ffffffc0802025de:	00000097          	auipc	ra,0x0
ffffffc0802025e2:	010080e7          	jalr	16(ra) # ffffffc0802025ee <_ZN4core3fmt9Formatter12pad_integral17h8b1ffde32503eca3E>
ffffffc0802025e6:	70e2                	ld	ra,56(sp)
ffffffc0802025e8:	7442                	ld	s0,48(sp)
ffffffc0802025ea:	6121                	addi	sp,sp,64
ffffffc0802025ec:	8082                	ret

ffffffc0802025ee <_ZN4core3fmt9Formatter12pad_integral17h8b1ffde32503eca3E>:
ffffffc0802025ee:	7159                	addi	sp,sp,-112
ffffffc0802025f0:	f486                	sd	ra,104(sp)
ffffffc0802025f2:	f0a2                	sd	s0,96(sp)
ffffffc0802025f4:	eca6                	sd	s1,88(sp)
ffffffc0802025f6:	e8ca                	sd	s2,80(sp)
ffffffc0802025f8:	e4ce                	sd	s3,72(sp)
ffffffc0802025fa:	e0d2                	sd	s4,64(sp)
ffffffc0802025fc:	fc56                	sd	s5,56(sp)
ffffffc0802025fe:	f85a                	sd	s6,48(sp)
ffffffc080202600:	f45e                	sd	s7,40(sp)
ffffffc080202602:	f062                	sd	s8,32(sp)
ffffffc080202604:	ec66                	sd	s9,24(sp)
ffffffc080202606:	e86a                	sd	s10,16(sp)
ffffffc080202608:	e46e                	sd	s11,8(sp)
ffffffc08020260a:	1880                	addi	s0,sp,112
ffffffc08020260c:	03456783          	lwu	a5,52(a0)
ffffffc080202610:	89ba                	mv	s3,a4
ffffffc080202612:	8936                	mv	s2,a3
ffffffc080202614:	8a32                	mv	s4,a2
ffffffc080202616:	8b2e                	mv	s6,a1
ffffffc080202618:	0017f493          	andi	s1,a5,1
ffffffc08020261c:	00110ab7          	lui	s5,0x110
ffffffc080202620:	c099                	beqz	s1,ffffffc080202626 <_ZN4core3fmt9Formatter12pad_integral17h8b1ffde32503eca3E+0x38>
ffffffc080202622:	02b00a93          	li	s5,43
ffffffc080202626:	0047f593          	andi	a1,a5,4
ffffffc08020262a:	94ce                	add	s1,s1,s3
ffffffc08020262c:	e589                	bnez	a1,ffffffc080202636 <_ZN4core3fmt9Formatter12pad_integral17h8b1ffde32503eca3E+0x48>
ffffffc08020262e:	4b01                	li	s6,0
ffffffc080202630:	610c                	ld	a1,0(a0)
ffffffc080202632:	e58d                	bnez	a1,ffffffc08020265c <_ZN4core3fmt9Formatter12pad_integral17h8b1ffde32503eca3E+0x6e>
ffffffc080202634:	a099                	j	ffffffc08020267a <_ZN4core3fmt9Formatter12pad_integral17h8b1ffde32503eca3E+0x8c>
ffffffc080202636:	4581                	li	a1,0
ffffffc080202638:	000a0f63          	beqz	s4,ffffffc080202656 <_ZN4core3fmt9Formatter12pad_integral17h8b1ffde32503eca3E+0x68>
ffffffc08020263c:	014b0633          	add	a2,s6,s4
ffffffc080202640:	86da                	mv	a3,s6
ffffffc080202642:	00068703          	lb	a4,0(a3)
ffffffc080202646:	fc072713          	slti	a4,a4,-64
ffffffc08020264a:	00174713          	xori	a4,a4,1
ffffffc08020264e:	0685                	addi	a3,a3,1
ffffffc080202650:	95ba                	add	a1,a1,a4
ffffffc080202652:	fec698e3          	bne	a3,a2,ffffffc080202642 <_ZN4core3fmt9Formatter12pad_integral17h8b1ffde32503eca3E+0x54>
ffffffc080202656:	94ae                	add	s1,s1,a1
ffffffc080202658:	610c                	ld	a1,0(a0)
ffffffc08020265a:	c185                	beqz	a1,ffffffc08020267a <_ZN4core3fmt9Formatter12pad_integral17h8b1ffde32503eca3E+0x8c>
ffffffc08020265c:	00853c83          	ld	s9,8(a0)
ffffffc080202660:	0194fd63          	bgeu	s1,s9,ffffffc08020267a <_ZN4core3fmt9Formatter12pad_integral17h8b1ffde32503eca3E+0x8c>
ffffffc080202664:	8ba1                	andi	a5,a5,8
ffffffc080202666:	efa1                	bnez	a5,ffffffc0802026be <_ZN4core3fmt9Formatter12pad_integral17h8b1ffde32503eca3E+0xd0>
ffffffc080202668:	03854583          	lbu	a1,56(a0)
ffffffc08020266c:	4605                	li	a2,1
ffffffc08020266e:	409c8cb3          	sub	s9,s9,s1
ffffffc080202672:	08b64d63          	blt	a2,a1,ffffffc08020270c <_ZN4core3fmt9Formatter12pad_integral17h8b1ffde32503eca3E+0x11e>
ffffffc080202676:	c5d5                	beqz	a1,ffffffc080202722 <_ZN4core3fmt9Formatter12pad_integral17h8b1ffde32503eca3E+0x134>
ffffffc080202678:	a05d                	j	ffffffc08020271e <_ZN4core3fmt9Formatter12pad_integral17h8b1ffde32503eca3E+0x130>
ffffffc08020267a:	02053b83          	ld	s7,32(a0)
ffffffc08020267e:	7504                	ld	s1,40(a0)
ffffffc080202680:	855e                	mv	a0,s7
ffffffc080202682:	85a6                	mv	a1,s1
ffffffc080202684:	8656                	mv	a2,s5
ffffffc080202686:	86da                	mv	a3,s6
ffffffc080202688:	8752                	mv	a4,s4
ffffffc08020268a:	00000097          	auipc	ra,0x0
ffffffc08020268e:	150080e7          	jalr	336(ra) # ffffffc0802027da <_ZN4core3fmt9Formatter12pad_integral12write_prefix17h155331fd35b09c53E>
ffffffc080202692:	85aa                	mv	a1,a0
ffffffc080202694:	4505                	li	a0,1
ffffffc080202696:	e5dd                	bnez	a1,ffffffc080202744 <_ZN4core3fmt9Formatter12pad_integral17h8b1ffde32503eca3E+0x156>
ffffffc080202698:	6c9c                	ld	a5,24(s1)
ffffffc08020269a:	855e                	mv	a0,s7
ffffffc08020269c:	85ca                	mv	a1,s2
ffffffc08020269e:	864e                	mv	a2,s3
ffffffc0802026a0:	70a6                	ld	ra,104(sp)
ffffffc0802026a2:	7406                	ld	s0,96(sp)
ffffffc0802026a4:	64e6                	ld	s1,88(sp)
ffffffc0802026a6:	6946                	ld	s2,80(sp)
ffffffc0802026a8:	69a6                	ld	s3,72(sp)
ffffffc0802026aa:	6a06                	ld	s4,64(sp)
ffffffc0802026ac:	7ae2                	ld	s5,56(sp)
ffffffc0802026ae:	7b42                	ld	s6,48(sp)
ffffffc0802026b0:	7ba2                	ld	s7,40(sp)
ffffffc0802026b2:	7c02                	ld	s8,32(sp)
ffffffc0802026b4:	6ce2                	ld	s9,24(sp)
ffffffc0802026b6:	6d42                	ld	s10,16(sp)
ffffffc0802026b8:	6da2                	ld	s11,8(sp)
ffffffc0802026ba:	6165                	addi	sp,sp,112
ffffffc0802026bc:	8782                	jr	a5
ffffffc0802026be:	590c                	lw	a1,48(a0)
ffffffc0802026c0:	f8b43823          	sd	a1,-112(s0)
ffffffc0802026c4:	03000593          	li	a1,48
ffffffc0802026c8:	03854d03          	lbu	s10,56(a0)
ffffffc0802026cc:	02053b83          	ld	s7,32(a0)
ffffffc0802026d0:	02853c03          	ld	s8,40(a0)
ffffffc0802026d4:	d90c                	sw	a1,48(a0)
ffffffc0802026d6:	4585                	li	a1,1
ffffffc0802026d8:	8daa                	mv	s11,a0
ffffffc0802026da:	02b50c23          	sb	a1,56(a0)
ffffffc0802026de:	855e                	mv	a0,s7
ffffffc0802026e0:	85e2                	mv	a1,s8
ffffffc0802026e2:	8656                	mv	a2,s5
ffffffc0802026e4:	86da                	mv	a3,s6
ffffffc0802026e6:	8752                	mv	a4,s4
ffffffc0802026e8:	00000097          	auipc	ra,0x0
ffffffc0802026ec:	0f2080e7          	jalr	242(ra) # ffffffc0802027da <_ZN4core3fmt9Formatter12pad_integral12write_prefix17h155331fd35b09c53E>
ffffffc0802026f0:	e929                	bnez	a0,ffffffc080202742 <_ZN4core3fmt9Formatter12pad_integral17h8b1ffde32503eca3E+0x154>
ffffffc0802026f2:	409c84b3          	sub	s1,s9,s1
ffffffc0802026f6:	0485                	addi	s1,s1,1
ffffffc0802026f8:	14fd                	addi	s1,s1,-1
ffffffc0802026fa:	c8dd                	beqz	s1,ffffffc0802027b0 <_ZN4core3fmt9Formatter12pad_integral17h8b1ffde32503eca3E+0x1c2>
ffffffc0802026fc:	020c3603          	ld	a2,32(s8)
ffffffc080202700:	03000593          	li	a1,48
ffffffc080202704:	855e                	mv	a0,s7
ffffffc080202706:	9602                	jalr	a2
ffffffc080202708:	d965                	beqz	a0,ffffffc0802026f8 <_ZN4core3fmt9Formatter12pad_integral17h8b1ffde32503eca3E+0x10a>
ffffffc08020270a:	a825                	j	ffffffc080202742 <_ZN4core3fmt9Formatter12pad_integral17h8b1ffde32503eca3E+0x154>
ffffffc08020270c:	4609                	li	a2,2
ffffffc08020270e:	00c59863          	bne	a1,a2,ffffffc08020271e <_ZN4core3fmt9Formatter12pad_integral17h8b1ffde32503eca3E+0x130>
ffffffc080202712:	001cd593          	srli	a1,s9,0x1
ffffffc080202716:	0c85                	addi	s9,s9,1
ffffffc080202718:	001cdc93          	srli	s9,s9,0x1
ffffffc08020271c:	a019                	j	ffffffc080202722 <_ZN4core3fmt9Formatter12pad_integral17h8b1ffde32503eca3E+0x134>
ffffffc08020271e:	85e6                	mv	a1,s9
ffffffc080202720:	4c81                	li	s9,0
ffffffc080202722:	02053b83          	ld	s7,32(a0)
ffffffc080202726:	02853d03          	ld	s10,40(a0)
ffffffc08020272a:	03052c03          	lw	s8,48(a0)
ffffffc08020272e:	00158493          	addi	s1,a1,1
ffffffc080202732:	14fd                	addi	s1,s1,-1
ffffffc080202734:	c49d                	beqz	s1,ffffffc080202762 <_ZN4core3fmt9Formatter12pad_integral17h8b1ffde32503eca3E+0x174>
ffffffc080202736:	020d3603          	ld	a2,32(s10)
ffffffc08020273a:	855e                	mv	a0,s7
ffffffc08020273c:	85e2                	mv	a1,s8
ffffffc08020273e:	9602                	jalr	a2
ffffffc080202740:	d96d                	beqz	a0,ffffffc080202732 <_ZN4core3fmt9Formatter12pad_integral17h8b1ffde32503eca3E+0x144>
ffffffc080202742:	4505                	li	a0,1
ffffffc080202744:	70a6                	ld	ra,104(sp)
ffffffc080202746:	7406                	ld	s0,96(sp)
ffffffc080202748:	64e6                	ld	s1,88(sp)
ffffffc08020274a:	6946                	ld	s2,80(sp)
ffffffc08020274c:	69a6                	ld	s3,72(sp)
ffffffc08020274e:	6a06                	ld	s4,64(sp)
ffffffc080202750:	7ae2                	ld	s5,56(sp)
ffffffc080202752:	7b42                	ld	s6,48(sp)
ffffffc080202754:	7ba2                	ld	s7,40(sp)
ffffffc080202756:	7c02                	ld	s8,32(sp)
ffffffc080202758:	6ce2                	ld	s9,24(sp)
ffffffc08020275a:	6d42                	ld	s10,16(sp)
ffffffc08020275c:	6da2                	ld	s11,8(sp)
ffffffc08020275e:	6165                	addi	sp,sp,112
ffffffc080202760:	8082                	ret
ffffffc080202762:	855e                	mv	a0,s7
ffffffc080202764:	85ea                	mv	a1,s10
ffffffc080202766:	8656                	mv	a2,s5
ffffffc080202768:	86da                	mv	a3,s6
ffffffc08020276a:	8752                	mv	a4,s4
ffffffc08020276c:	00000097          	auipc	ra,0x0
ffffffc080202770:	06e080e7          	jalr	110(ra) # ffffffc0802027da <_ZN4core3fmt9Formatter12pad_integral12write_prefix17h155331fd35b09c53E>
ffffffc080202774:	85aa                	mv	a1,a0
ffffffc080202776:	4505                	li	a0,1
ffffffc080202778:	f5f1                	bnez	a1,ffffffc080202744 <_ZN4core3fmt9Formatter12pad_integral17h8b1ffde32503eca3E+0x156>
ffffffc08020277a:	018d3683          	ld	a3,24(s10)
ffffffc08020277e:	855e                	mv	a0,s7
ffffffc080202780:	85ca                	mv	a1,s2
ffffffc080202782:	864e                	mv	a2,s3
ffffffc080202784:	9682                	jalr	a3
ffffffc080202786:	85aa                	mv	a1,a0
ffffffc080202788:	4505                	li	a0,1
ffffffc08020278a:	fdcd                	bnez	a1,ffffffc080202744 <_ZN4core3fmt9Formatter12pad_integral17h8b1ffde32503eca3E+0x156>
ffffffc08020278c:	41900933          	neg	s2,s9
ffffffc080202790:	59fd                	li	s3,-1
ffffffc080202792:	54fd                	li	s1,-1
ffffffc080202794:	00990533          	add	a0,s2,s1
ffffffc080202798:	03350d63          	beq	a0,s3,ffffffc0802027d2 <_ZN4core3fmt9Formatter12pad_integral17h8b1ffde32503eca3E+0x1e4>
ffffffc08020279c:	020d3603          	ld	a2,32(s10)
ffffffc0802027a0:	855e                	mv	a0,s7
ffffffc0802027a2:	85e2                	mv	a1,s8
ffffffc0802027a4:	9602                	jalr	a2
ffffffc0802027a6:	0485                	addi	s1,s1,1
ffffffc0802027a8:	d575                	beqz	a0,ffffffc080202794 <_ZN4core3fmt9Formatter12pad_integral17h8b1ffde32503eca3E+0x1a6>
ffffffc0802027aa:	0194b533          	sltu	a0,s1,s9
ffffffc0802027ae:	bf59                	j	ffffffc080202744 <_ZN4core3fmt9Formatter12pad_integral17h8b1ffde32503eca3E+0x156>
ffffffc0802027b0:	018c3683          	ld	a3,24(s8)
ffffffc0802027b4:	855e                	mv	a0,s7
ffffffc0802027b6:	85ca                	mv	a1,s2
ffffffc0802027b8:	864e                	mv	a2,s3
ffffffc0802027ba:	9682                	jalr	a3
ffffffc0802027bc:	85aa                	mv	a1,a0
ffffffc0802027be:	4505                	li	a0,1
ffffffc0802027c0:	f1d1                	bnez	a1,ffffffc080202744 <_ZN4core3fmt9Formatter12pad_integral17h8b1ffde32503eca3E+0x156>
ffffffc0802027c2:	4501                	li	a0,0
ffffffc0802027c4:	f9043583          	ld	a1,-112(s0)
ffffffc0802027c8:	02bda823          	sw	a1,48(s11)
ffffffc0802027cc:	03ad8c23          	sb	s10,56(s11)
ffffffc0802027d0:	bf95                	j	ffffffc080202744 <_ZN4core3fmt9Formatter12pad_integral17h8b1ffde32503eca3E+0x156>
ffffffc0802027d2:	84e6                	mv	s1,s9
ffffffc0802027d4:	019cb533          	sltu	a0,s9,s9
ffffffc0802027d8:	b7b5                	j	ffffffc080202744 <_ZN4core3fmt9Formatter12pad_integral17h8b1ffde32503eca3E+0x156>

ffffffc0802027da <_ZN4core3fmt9Formatter12pad_integral12write_prefix17h155331fd35b09c53E>:
ffffffc0802027da:	7179                	addi	sp,sp,-48
ffffffc0802027dc:	f406                	sd	ra,40(sp)
ffffffc0802027de:	f022                	sd	s0,32(sp)
ffffffc0802027e0:	ec26                	sd	s1,24(sp)
ffffffc0802027e2:	e84a                	sd	s2,16(sp)
ffffffc0802027e4:	e44e                	sd	s3,8(sp)
ffffffc0802027e6:	e052                	sd	s4,0(sp)
ffffffc0802027e8:	1800                	addi	s0,sp,48
ffffffc0802027ea:	0006079b          	sext.w	a5,a2
ffffffc0802027ee:	001104b7          	lui	s1,0x110
ffffffc0802027f2:	893a                	mv	s2,a4
ffffffc0802027f4:	8a36                	mv	s4,a3
ffffffc0802027f6:	89ae                	mv	s3,a1
ffffffc0802027f8:	00978b63          	beq	a5,s1,ffffffc08020280e <_ZN4core3fmt9Formatter12pad_integral12write_prefix17h155331fd35b09c53E+0x34>
ffffffc0802027fc:	0209b683          	ld	a3,32(s3)
ffffffc080202800:	84aa                	mv	s1,a0
ffffffc080202802:	85b2                	mv	a1,a2
ffffffc080202804:	9682                	jalr	a3
ffffffc080202806:	862a                	mv	a2,a0
ffffffc080202808:	8526                	mv	a0,s1
ffffffc08020280a:	4585                	li	a1,1
ffffffc08020280c:	e205                	bnez	a2,ffffffc08020282c <_ZN4core3fmt9Formatter12pad_integral12write_prefix17h155331fd35b09c53E+0x52>
ffffffc08020280e:	000a0e63          	beqz	s4,ffffffc08020282a <_ZN4core3fmt9Formatter12pad_integral12write_prefix17h155331fd35b09c53E+0x50>
ffffffc080202812:	0189b783          	ld	a5,24(s3)
ffffffc080202816:	85d2                	mv	a1,s4
ffffffc080202818:	864a                	mv	a2,s2
ffffffc08020281a:	70a2                	ld	ra,40(sp)
ffffffc08020281c:	7402                	ld	s0,32(sp)
ffffffc08020281e:	64e2                	ld	s1,24(sp)
ffffffc080202820:	6942                	ld	s2,16(sp)
ffffffc080202822:	69a2                	ld	s3,8(sp)
ffffffc080202824:	6a02                	ld	s4,0(sp)
ffffffc080202826:	6145                	addi	sp,sp,48
ffffffc080202828:	8782                	jr	a5
ffffffc08020282a:	4581                	li	a1,0
ffffffc08020282c:	852e                	mv	a0,a1
ffffffc08020282e:	70a2                	ld	ra,40(sp)
ffffffc080202830:	7402                	ld	s0,32(sp)
ffffffc080202832:	64e2                	ld	s1,24(sp)
ffffffc080202834:	6942                	ld	s2,16(sp)
ffffffc080202836:	69a2                	ld	s3,8(sp)
ffffffc080202838:	6a02                	ld	s4,0(sp)
ffffffc08020283a:	6145                	addi	sp,sp,48
ffffffc08020283c:	8082                	ret

ffffffc08020283e <_ZN4core5slice5index29slice_start_index_len_fail_rt17h70e3d0b517469eb2E>:
ffffffc08020283e:	7159                	addi	sp,sp,-112
ffffffc080202840:	f486                	sd	ra,104(sp)
ffffffc080202842:	f0a2                	sd	s0,96(sp)
ffffffc080202844:	1880                	addi	s0,sp,112
ffffffc080202846:	f8a43823          	sd	a0,-112(s0)
ffffffc08020284a:	f8b43c23          	sd	a1,-104(s0)
ffffffc08020284e:	f9040513          	addi	a0,s0,-112
ffffffc080202852:	fca43823          	sd	a0,-48(s0)

ffffffc080202856 <.Lpcrel_hi338>:
ffffffc080202856:	00000517          	auipc	a0,0x0
ffffffc08020285a:	c3e50513          	addi	a0,a0,-962 # ffffffc080202494 <_ZN4core3fmt3num3imp52_$LT$impl$u20$core..fmt..Display$u20$for$u20$u64$GT$3fmt17hca01a1912e792145E>
ffffffc08020285e:	fca43c23          	sd	a0,-40(s0)
ffffffc080202862:	f9840593          	addi	a1,s0,-104
ffffffc080202866:	feb43023          	sd	a1,-32(s0)
ffffffc08020286a:	fea43423          	sd	a0,-24(s0)

ffffffc08020286e <.Lpcrel_hi339>:
ffffffc08020286e:	00003517          	auipc	a0,0x3
ffffffc080202872:	d6250513          	addi	a0,a0,-670 # ffffffc0802055d0 <.Lanon.c308b1a5a0a97bdc8edd9b96ba25ee05.337>
ffffffc080202876:	faa43023          	sd	a0,-96(s0)
ffffffc08020287a:	4509                	li	a0,2
ffffffc08020287c:	faa43423          	sd	a0,-88(s0)
ffffffc080202880:	fc043023          	sd	zero,-64(s0)
ffffffc080202884:	fd040593          	addi	a1,s0,-48
ffffffc080202888:	fab43823          	sd	a1,-80(s0)
ffffffc08020288c:	faa43c23          	sd	a0,-72(s0)
ffffffc080202890:	fa040513          	addi	a0,s0,-96
ffffffc080202894:	85b2                	mv	a1,a2
ffffffc080202896:	00000097          	auipc	ra,0x0
ffffffc08020289a:	b8c080e7          	jalr	-1140(ra) # ffffffc080202422 <_ZN4core9panicking9panic_fmt17h11ec9af140fca503E>

ffffffc08020289e <_ZN4core3fmt9Formatter3pad17heef45ae07d2799a9E>:
ffffffc08020289e:	715d                	addi	sp,sp,-80
ffffffc0802028a0:	e486                	sd	ra,72(sp)
ffffffc0802028a2:	e0a2                	sd	s0,64(sp)
ffffffc0802028a4:	fc26                	sd	s1,56(sp)
ffffffc0802028a6:	f84a                	sd	s2,48(sp)
ffffffc0802028a8:	f44e                	sd	s3,40(sp)
ffffffc0802028aa:	f052                	sd	s4,32(sp)
ffffffc0802028ac:	ec56                	sd	s5,24(sp)
ffffffc0802028ae:	e85a                	sd	s6,16(sp)
ffffffc0802028b0:	e45e                	sd	s7,8(sp)
ffffffc0802028b2:	0880                	addi	s0,sp,80
ffffffc0802028b4:	00053303          	ld	t1,0(a0)
ffffffc0802028b8:	6914                	ld	a3,16(a0)
ffffffc0802028ba:	00d36733          	or	a4,t1,a3
ffffffc0802028be:	8932                	mv	s2,a2
ffffffc0802028c0:	89ae                	mv	s3,a1
ffffffc0802028c2:	28070e63          	beqz	a4,ffffffc080202b5e <_ZN4core3fmt9Formatter3pad17heef45ae07d2799a9E+0x2c0>
ffffffc0802028c6:	cee5                	beqz	a3,ffffffc0802029be <_ZN4core3fmt9Formatter3pad17heef45ae07d2799a9E+0x120>
ffffffc0802028c8:	6d18                	ld	a4,24(a0)
ffffffc0802028ca:	01298633          	add	a2,s3,s2
ffffffc0802028ce:	4681                	li	a3,0
ffffffc0802028d0:	c341                	beqz	a4,ffffffc080202950 <_ZN4core3fmt9Formatter3pad17heef45ae07d2799a9E+0xb2>
ffffffc0802028d2:	4781                	li	a5,0
ffffffc0802028d4:	0e000293          	li	t0,224
ffffffc0802028d8:	0f000813          	li	a6,240
ffffffc0802028dc:	001108b7          	lui	a7,0x110
ffffffc0802028e0:	84ce                	mv	s1,s3
ffffffc0802028e2:	a809                	j	ffffffc0802028f4 <_ZN4core3fmt9Formatter3pad17heef45ae07d2799a9E+0x56>
ffffffc0802028e4:	00148593          	addi	a1,s1,1 # 110001 <_percpu_load_end+0x10fff8>
ffffffc0802028e8:	0785                	addi	a5,a5,1
ffffffc0802028ea:	8e85                	sub	a3,a3,s1
ffffffc0802028ec:	96ae                	add	a3,a3,a1
ffffffc0802028ee:	84ae                	mv	s1,a1
ffffffc0802028f0:	06f70163          	beq	a4,a5,ffffffc080202952 <_ZN4core3fmt9Formatter3pad17heef45ae07d2799a9E+0xb4>
ffffffc0802028f4:	0cc48563          	beq	s1,a2,ffffffc0802029be <_ZN4core3fmt9Formatter3pad17heef45ae07d2799a9E+0x120>
ffffffc0802028f8:	00048583          	lb	a1,0(s1)
ffffffc0802028fc:	fe05d4e3          	bgez	a1,ffffffc0802028e4 <_ZN4core3fmt9Formatter3pad17heef45ae07d2799a9E+0x46>
ffffffc080202900:	0ff5f593          	zext.b	a1,a1
ffffffc080202904:	0455e063          	bltu	a1,t0,ffffffc080202944 <_ZN4core3fmt9Formatter3pad17heef45ae07d2799a9E+0xa6>
ffffffc080202908:	0505e163          	bltu	a1,a6,ffffffc08020294a <_ZN4core3fmt9Formatter3pad17heef45ae07d2799a9E+0xac>
ffffffc08020290c:	0014c383          	lbu	t2,1(s1)
ffffffc080202910:	0024ce03          	lbu	t3,2(s1)
ffffffc080202914:	03f3f393          	andi	t2,t2,63
ffffffc080202918:	03fe7e13          	andi	t3,t3,63
ffffffc08020291c:	0034ce83          	lbu	t4,3(s1)
ffffffc080202920:	15f6                	slli	a1,a1,0x3d
ffffffc080202922:	02b5df13          	srli	t5,a1,0x2b
ffffffc080202926:	03b2                	slli	t2,t2,0xc
ffffffc080202928:	0e1a                	slli	t3,t3,0x6
ffffffc08020292a:	007e63b3          	or	t2,t3,t2
ffffffc08020292e:	03fef593          	andi	a1,t4,63
ffffffc080202932:	00b3e5b3          	or	a1,t2,a1
ffffffc080202936:	01e5e5b3          	or	a1,a1,t5
ffffffc08020293a:	09158263          	beq	a1,a7,ffffffc0802029be <_ZN4core3fmt9Formatter3pad17heef45ae07d2799a9E+0x120>
ffffffc08020293e:	00448593          	addi	a1,s1,4
ffffffc080202942:	b75d                	j	ffffffc0802028e8 <_ZN4core3fmt9Formatter3pad17heef45ae07d2799a9E+0x4a>
ffffffc080202944:	00248593          	addi	a1,s1,2
ffffffc080202948:	b745                	j	ffffffc0802028e8 <_ZN4core3fmt9Formatter3pad17heef45ae07d2799a9E+0x4a>
ffffffc08020294a:	00348593          	addi	a1,s1,3
ffffffc08020294e:	bf69                	j	ffffffc0802028e8 <_ZN4core3fmt9Formatter3pad17heef45ae07d2799a9E+0x4a>
ffffffc080202950:	85ce                	mv	a1,s3
ffffffc080202952:	06c58663          	beq	a1,a2,ffffffc0802029be <_ZN4core3fmt9Formatter3pad17heef45ae07d2799a9E+0x120>
ffffffc080202956:	00058603          	lb	a2,0(a1)
ffffffc08020295a:	04065363          	bgez	a2,ffffffc0802029a0 <_ZN4core3fmt9Formatter3pad17heef45ae07d2799a9E+0x102>
ffffffc08020295e:	0ff67613          	zext.b	a2,a2
ffffffc080202962:	0e000713          	li	a4,224
ffffffc080202966:	02e66d63          	bltu	a2,a4,ffffffc0802029a0 <_ZN4core3fmt9Formatter3pad17heef45ae07d2799a9E+0x102>
ffffffc08020296a:	0f000713          	li	a4,240
ffffffc08020296e:	02e66963          	bltu	a2,a4,ffffffc0802029a0 <_ZN4core3fmt9Formatter3pad17heef45ae07d2799a9E+0x102>
ffffffc080202972:	0015c703          	lbu	a4,1(a1)
ffffffc080202976:	0025c783          	lbu	a5,2(a1)
ffffffc08020297a:	03f77713          	andi	a4,a4,63
ffffffc08020297e:	03f7f793          	andi	a5,a5,63
ffffffc080202982:	0035c583          	lbu	a1,3(a1)
ffffffc080202986:	1676                	slli	a2,a2,0x3d
ffffffc080202988:	922d                	srli	a2,a2,0x2b
ffffffc08020298a:	0732                	slli	a4,a4,0xc
ffffffc08020298c:	079a                	slli	a5,a5,0x6
ffffffc08020298e:	8f5d                	or	a4,a4,a5
ffffffc080202990:	03f5f593          	andi	a1,a1,63
ffffffc080202994:	8dd9                	or	a1,a1,a4
ffffffc080202996:	8dd1                	or	a1,a1,a2
ffffffc080202998:	00110637          	lui	a2,0x110
ffffffc08020299c:	02c58163          	beq	a1,a2,ffffffc0802029be <_ZN4core3fmt9Formatter3pad17heef45ae07d2799a9E+0x120>
ffffffc0802029a0:	ce91                	beqz	a3,ffffffc0802029bc <_ZN4core3fmt9Formatter3pad17heef45ae07d2799a9E+0x11e>
ffffffc0802029a2:	0126fb63          	bgeu	a3,s2,ffffffc0802029b8 <_ZN4core3fmt9Formatter3pad17heef45ae07d2799a9E+0x11a>
ffffffc0802029a6:	00d985b3          	add	a1,s3,a3
ffffffc0802029aa:	00058583          	lb	a1,0(a1)
ffffffc0802029ae:	fc000613          	li	a2,-64
ffffffc0802029b2:	00c5d563          	bge	a1,a2,ffffffc0802029bc <_ZN4core3fmt9Formatter3pad17heef45ae07d2799a9E+0x11e>
ffffffc0802029b6:	a021                	j	ffffffc0802029be <_ZN4core3fmt9Formatter3pad17heef45ae07d2799a9E+0x120>
ffffffc0802029b8:	01269363          	bne	a3,s2,ffffffc0802029be <_ZN4core3fmt9Formatter3pad17heef45ae07d2799a9E+0x120>
ffffffc0802029bc:	8936                	mv	s2,a3
ffffffc0802029be:	1a030063          	beqz	t1,ffffffc080202b5e <_ZN4core3fmt9Formatter3pad17heef45ae07d2799a9E+0x2c0>
ffffffc0802029c2:	00853803          	ld	a6,8(a0)
ffffffc0802029c6:	02000593          	li	a1,32
ffffffc0802029ca:	02b97363          	bgeu	s2,a1,ffffffc0802029f0 <_ZN4core3fmt9Formatter3pad17heef45ae07d2799a9E+0x152>
ffffffc0802029ce:	4f01                	li	t5,0
ffffffc0802029d0:	16090963          	beqz	s2,ffffffc080202b42 <_ZN4core3fmt9Formatter3pad17heef45ae07d2799a9E+0x2a4>
ffffffc0802029d4:	012985b3          	add	a1,s3,s2
ffffffc0802029d8:	86ce                	mv	a3,s3
ffffffc0802029da:	00068603          	lb	a2,0(a3)
ffffffc0802029de:	fc062613          	slti	a2,a2,-64
ffffffc0802029e2:	00164613          	xori	a2,a2,1
ffffffc0802029e6:	0685                	addi	a3,a3,1
ffffffc0802029e8:	9f32                	add	t5,t5,a2
ffffffc0802029ea:	feb698e3          	bne	a3,a1,ffffffc0802029da <_ZN4core3fmt9Formatter3pad17heef45ae07d2799a9E+0x13c>
ffffffc0802029ee:	aa91                	j	ffffffc080202b42 <_ZN4core3fmt9Formatter3pad17heef45ae07d2799a9E+0x2a4>
ffffffc0802029f0:	00798793          	addi	a5,s3,7
ffffffc0802029f4:	9be1                	andi	a5,a5,-8
ffffffc0802029f6:	013904b3          	add	s1,s2,s3
ffffffc0802029fa:	40f488b3          	sub	a7,s1,a5
ffffffc0802029fe:	0078f693          	andi	a3,a7,7
ffffffc080202a02:	4601                	li	a2,0
ffffffc080202a04:	01378d63          	beq	a5,s3,ffffffc080202a1e <_ZN4core3fmt9Formatter3pad17heef45ae07d2799a9E+0x180>
ffffffc080202a08:	85ce                	mv	a1,s3
ffffffc080202a0a:	00058703          	lb	a4,0(a1)
ffffffc080202a0e:	fc072713          	slti	a4,a4,-64
ffffffc080202a12:	00174713          	xori	a4,a4,1
ffffffc080202a16:	0585                	addi	a1,a1,1
ffffffc080202a18:	963a                	add	a2,a2,a4
ffffffc080202a1a:	fef598e3          	bne	a1,a5,ffffffc080202a0a <_ZN4core3fmt9Formatter3pad17heef45ae07d2799a9E+0x16c>
ffffffc080202a1e:	4701                	li	a4,0
ffffffc080202a20:	c295                	beqz	a3,ffffffc080202a44 <_ZN4core3fmt9Formatter3pad17heef45ae07d2799a9E+0x1a6>
ffffffc080202a22:	ff88f493          	andi	s1,a7,-8
ffffffc080202a26:	009785b3          	add	a1,a5,s1
ffffffc080202a2a:	96ae                	add	a3,a3,a1
ffffffc080202a2c:	009785b3          	add	a1,a5,s1
ffffffc080202a30:	00058483          	lb	s1,0(a1)
ffffffc080202a34:	fc04a493          	slti	s1,s1,-64
ffffffc080202a38:	0014c493          	xori	s1,s1,1
ffffffc080202a3c:	0585                	addi	a1,a1,1
ffffffc080202a3e:	9726                	add	a4,a4,s1
ffffffc080202a40:	fed598e3          	bne	a1,a3,ffffffc080202a30 <_ZN4core3fmt9Formatter3pad17heef45ae07d2799a9E+0x192>
ffffffc080202a44:	0038df93          	srli	t6,a7,0x3
ffffffc080202a48:	010105b7          	lui	a1,0x1010
ffffffc080202a4c:	1015869b          	addiw	a3,a1,257
ffffffc080202a50:	02069593          	slli	a1,a3,0x20
ffffffc080202a54:	96ae                	add	a3,a3,a1
ffffffc080202a56:	00ff05b7          	lui	a1,0xff0
ffffffc080202a5a:	0ff5831b          	addiw	t1,a1,255
ffffffc080202a5e:	02031593          	slli	a1,t1,0x20
ffffffc080202a62:	932e                	add	t1,t1,a1
ffffffc080202a64:	65c1                	lui	a1,0x10
ffffffc080202a66:	2585                	addiw	a1,a1,1
ffffffc080202a68:	02059893          	slli	a7,a1,0x20
ffffffc080202a6c:	98ae                	add	a7,a7,a1
ffffffc080202a6e:	00c70f33          	add	t5,a4,a2
ffffffc080202a72:	4291                	li	t0,4
ffffffc080202a74:	a015                	j	ffffffc080202a98 <_ZN4core3fmt9Formatter3pad17heef45ae07d2799a9E+0x1fa>
ffffffc080202a76:	01de07b3          	add	a5,t3,t4
ffffffc080202a7a:	407f8fb3          	sub	t6,t6,t2
ffffffc080202a7e:	0033f713          	andi	a4,t2,3
ffffffc080202a82:	0065f633          	and	a2,a1,t1
ffffffc080202a86:	81a1                	srli	a1,a1,0x8
ffffffc080202a88:	0065f5b3          	and	a1,a1,t1
ffffffc080202a8c:	95b2                	add	a1,a1,a2
ffffffc080202a8e:	031585b3          	mul	a1,a1,a7
ffffffc080202a92:	91c1                	srli	a1,a1,0x30
ffffffc080202a94:	9f2e                	add	t5,t5,a1
ffffffc080202a96:	eb35                	bnez	a4,ffffffc080202b0a <_ZN4core3fmt9Formatter3pad17heef45ae07d2799a9E+0x26c>
ffffffc080202a98:	0a0f8563          	beqz	t6,ffffffc080202b42 <_ZN4core3fmt9Formatter3pad17heef45ae07d2799a9E+0x2a4>
ffffffc080202a9c:	8e3e                	mv	t3,a5
ffffffc080202a9e:	0c000593          	li	a1,192
ffffffc080202aa2:	83fe                	mv	t2,t6
ffffffc080202aa4:	00bfe463          	bltu	t6,a1,ffffffc080202aac <_ZN4core3fmt9Formatter3pad17heef45ae07d2799a9E+0x20e>
ffffffc080202aa8:	0c000393          	li	t2,192
ffffffc080202aac:	00339e93          	slli	t4,t2,0x3
ffffffc080202ab0:	4581                	li	a1,0
ffffffc080202ab2:	fc5fe2e3          	bltu	t6,t0,ffffffc080202a76 <_ZN4core3fmt9Formatter3pad17heef45ae07d2799a9E+0x1d8>
ffffffc080202ab6:	7e0ef793          	andi	a5,t4,2016
ffffffc080202aba:	00fe0a33          	add	s4,t3,a5
ffffffc080202abe:	8772                	mv	a4,t3
ffffffc080202ac0:	6310                	ld	a2,0(a4)
ffffffc080202ac2:	fff64493          	not	s1,a2
ffffffc080202ac6:	809d                	srli	s1,s1,0x7
ffffffc080202ac8:	8219                	srli	a2,a2,0x6
ffffffc080202aca:	671c                	ld	a5,8(a4)
ffffffc080202acc:	8e45                	or	a2,a2,s1
ffffffc080202ace:	8e75                	and	a2,a2,a3
ffffffc080202ad0:	95b2                	add	a1,a1,a2
ffffffc080202ad2:	fff7c613          	not	a2,a5
ffffffc080202ad6:	821d                	srli	a2,a2,0x7
ffffffc080202ad8:	6b04                	ld	s1,16(a4)
ffffffc080202ada:	8399                	srli	a5,a5,0x6
ffffffc080202adc:	8e5d                	or	a2,a2,a5
ffffffc080202ade:	8e75                	and	a2,a2,a3
ffffffc080202ae0:	fff4c793          	not	a5,s1
ffffffc080202ae4:	839d                	srli	a5,a5,0x7
ffffffc080202ae6:	8099                	srli	s1,s1,0x6
ffffffc080202ae8:	8fc5                	or	a5,a5,s1
ffffffc080202aea:	6f04                	ld	s1,24(a4)
ffffffc080202aec:	8ff5                	and	a5,a5,a3
ffffffc080202aee:	963e                	add	a2,a2,a5
ffffffc080202af0:	95b2                	add	a1,a1,a2
ffffffc080202af2:	fff4c613          	not	a2,s1
ffffffc080202af6:	821d                	srli	a2,a2,0x7
ffffffc080202af8:	8099                	srli	s1,s1,0x6
ffffffc080202afa:	8e45                	or	a2,a2,s1
ffffffc080202afc:	8e75                	and	a2,a2,a3
ffffffc080202afe:	02070713          	addi	a4,a4,32
ffffffc080202b02:	95b2                	add	a1,a1,a2
ffffffc080202b04:	fb471ee3          	bne	a4,s4,ffffffc080202ac0 <_ZN4core3fmt9Formatter3pad17heef45ae07d2799a9E+0x222>
ffffffc080202b08:	b7bd                	j	ffffffc080202a76 <_ZN4core3fmt9Formatter3pad17heef45ae07d2799a9E+0x1d8>
ffffffc080202b0a:	4581                	li	a1,0
ffffffc080202b0c:	0fc3f613          	andi	a2,t2,252
ffffffc080202b10:	060e                	slli	a2,a2,0x3
ffffffc080202b12:	9e32                	add	t3,t3,a2
ffffffc080202b14:	070e                	slli	a4,a4,0x3
ffffffc080202b16:	000e3603          	ld	a2,0(t3)
ffffffc080202b1a:	0e21                	addi	t3,t3,8
ffffffc080202b1c:	fff64793          	not	a5,a2
ffffffc080202b20:	839d                	srli	a5,a5,0x7
ffffffc080202b22:	8219                	srli	a2,a2,0x6
ffffffc080202b24:	8e5d                	or	a2,a2,a5
ffffffc080202b26:	8e75                	and	a2,a2,a3
ffffffc080202b28:	1761                	addi	a4,a4,-8
ffffffc080202b2a:	95b2                	add	a1,a1,a2
ffffffc080202b2c:	f76d                	bnez	a4,ffffffc080202b16 <_ZN4core3fmt9Formatter3pad17heef45ae07d2799a9E+0x278>
ffffffc080202b2e:	0065f633          	and	a2,a1,t1
ffffffc080202b32:	81a1                	srli	a1,a1,0x8
ffffffc080202b34:	0065f5b3          	and	a1,a1,t1
ffffffc080202b38:	95b2                	add	a1,a1,a2
ffffffc080202b3a:	031585b3          	mul	a1,a1,a7
ffffffc080202b3e:	91c1                	srli	a1,a1,0x30
ffffffc080202b40:	9f2e                	add	t5,t5,a1
ffffffc080202b42:	010f7e63          	bgeu	t5,a6,ffffffc080202b5e <_ZN4core3fmt9Formatter3pad17heef45ae07d2799a9E+0x2c0>
ffffffc080202b46:	03854683          	lbu	a3,56(a0)
ffffffc080202b4a:	4581                	li	a1,0
ffffffc080202b4c:	4605                	li	a2,1
ffffffc080202b4e:	41e80ab3          	sub	s5,a6,t5
ffffffc080202b52:	02d64663          	blt	a2,a3,ffffffc080202b7e <_ZN4core3fmt9Formatter3pad17heef45ae07d2799a9E+0x2e0>
ffffffc080202b56:	ce85                	beqz	a3,ffffffc080202b8e <_ZN4core3fmt9Formatter3pad17heef45ae07d2799a9E+0x2f0>
ffffffc080202b58:	85d6                	mv	a1,s5
ffffffc080202b5a:	4a81                	li	s5,0
ffffffc080202b5c:	a80d                	j	ffffffc080202b8e <_ZN4core3fmt9Formatter3pad17heef45ae07d2799a9E+0x2f0>
ffffffc080202b5e:	750c                	ld	a1,40(a0)
ffffffc080202b60:	7108                	ld	a0,32(a0)
ffffffc080202b62:	6d9c                	ld	a5,24(a1)
ffffffc080202b64:	85ce                	mv	a1,s3
ffffffc080202b66:	864a                	mv	a2,s2
ffffffc080202b68:	60a6                	ld	ra,72(sp)
ffffffc080202b6a:	6406                	ld	s0,64(sp)
ffffffc080202b6c:	74e2                	ld	s1,56(sp)
ffffffc080202b6e:	7942                	ld	s2,48(sp)
ffffffc080202b70:	79a2                	ld	s3,40(sp)
ffffffc080202b72:	7a02                	ld	s4,32(sp)
ffffffc080202b74:	6ae2                	ld	s5,24(sp)
ffffffc080202b76:	6b42                	ld	s6,16(sp)
ffffffc080202b78:	6ba2                	ld	s7,8(sp)
ffffffc080202b7a:	6161                	addi	sp,sp,80
ffffffc080202b7c:	8782                	jr	a5
ffffffc080202b7e:	4609                	li	a2,2
ffffffc080202b80:	00c69763          	bne	a3,a2,ffffffc080202b8e <_ZN4core3fmt9Formatter3pad17heef45ae07d2799a9E+0x2f0>
ffffffc080202b84:	001ad593          	srli	a1,s5,0x1
ffffffc080202b88:	0a85                	addi	s5,s5,1
ffffffc080202b8a:	001ada93          	srli	s5,s5,0x1
ffffffc080202b8e:	02053a03          	ld	s4,32(a0)
ffffffc080202b92:	02853b83          	ld	s7,40(a0)
ffffffc080202b96:	03052b03          	lw	s6,48(a0)
ffffffc080202b9a:	00158493          	addi	s1,a1,1 # 10001 <_percpu_load_end+0xfff8>
ffffffc080202b9e:	14fd                	addi	s1,s1,-1
ffffffc080202ba0:	c889                	beqz	s1,ffffffc080202bb2 <_ZN4core3fmt9Formatter3pad17heef45ae07d2799a9E+0x314>
ffffffc080202ba2:	020bb603          	ld	a2,32(s7)
ffffffc080202ba6:	8552                	mv	a0,s4
ffffffc080202ba8:	85da                	mv	a1,s6
ffffffc080202baa:	9602                	jalr	a2
ffffffc080202bac:	d96d                	beqz	a0,ffffffc080202b9e <_ZN4core3fmt9Formatter3pad17heef45ae07d2799a9E+0x300>
ffffffc080202bae:	4505                	li	a0,1
ffffffc080202bb0:	a82d                	j	ffffffc080202bea <_ZN4core3fmt9Formatter3pad17heef45ae07d2799a9E+0x34c>
ffffffc080202bb2:	018bb683          	ld	a3,24(s7)
ffffffc080202bb6:	8552                	mv	a0,s4
ffffffc080202bb8:	85ce                	mv	a1,s3
ffffffc080202bba:	864a                	mv	a2,s2
ffffffc080202bbc:	9682                	jalr	a3
ffffffc080202bbe:	85aa                	mv	a1,a0
ffffffc080202bc0:	4505                	li	a0,1
ffffffc080202bc2:	e585                	bnez	a1,ffffffc080202bea <_ZN4core3fmt9Formatter3pad17heef45ae07d2799a9E+0x34c>
ffffffc080202bc4:	41500933          	neg	s2,s5
ffffffc080202bc8:	59fd                	li	s3,-1
ffffffc080202bca:	54fd                	li	s1,-1
ffffffc080202bcc:	00990533          	add	a0,s2,s1
ffffffc080202bd0:	01350a63          	beq	a0,s3,ffffffc080202be4 <_ZN4core3fmt9Formatter3pad17heef45ae07d2799a9E+0x346>
ffffffc080202bd4:	020bb603          	ld	a2,32(s7)
ffffffc080202bd8:	8552                	mv	a0,s4
ffffffc080202bda:	85da                	mv	a1,s6
ffffffc080202bdc:	9602                	jalr	a2
ffffffc080202bde:	0485                	addi	s1,s1,1
ffffffc080202be0:	d575                	beqz	a0,ffffffc080202bcc <_ZN4core3fmt9Formatter3pad17heef45ae07d2799a9E+0x32e>
ffffffc080202be2:	a011                	j	ffffffc080202be6 <_ZN4core3fmt9Formatter3pad17heef45ae07d2799a9E+0x348>
ffffffc080202be4:	84d6                	mv	s1,s5
ffffffc080202be6:	0154b533          	sltu	a0,s1,s5
ffffffc080202bea:	60a6                	ld	ra,72(sp)
ffffffc080202bec:	6406                	ld	s0,64(sp)
ffffffc080202bee:	74e2                	ld	s1,56(sp)
ffffffc080202bf0:	7942                	ld	s2,48(sp)
ffffffc080202bf2:	79a2                	ld	s3,40(sp)
ffffffc080202bf4:	7a02                	ld	s4,32(sp)
ffffffc080202bf6:	6ae2                	ld	s5,24(sp)
ffffffc080202bf8:	6b42                	ld	s6,16(sp)
ffffffc080202bfa:	6ba2                	ld	s7,8(sp)
ffffffc080202bfc:	6161                	addi	sp,sp,80
ffffffc080202bfe:	8082                	ret

ffffffc080202c00 <_ZN4core9panicking19assert_failed_inner17h53dbe1fde977ee0eE>:
ffffffc080202c00:	7115                	addi	sp,sp,-224
ffffffc080202c02:	ed86                	sd	ra,216(sp)
ffffffc080202c04:	e9a2                	sd	s0,208(sp)
ffffffc080202c06:	1180                	addi	s0,sp,224
ffffffc080202c08:	f2a43023          	sd	a0,-224(s0)

ffffffc080202c0c <.Lpcrel_hi340>:
ffffffc080202c0c:	00001517          	auipc	a0,0x1
ffffffc080202c10:	65450513          	addi	a0,a0,1620 # ffffffc080204260 <.Lanon.c0305fa26fbb8783b10acb09d8a7a5c4.5>
ffffffc080202c14:	f2a43423          	sd	a0,-216(s0)
ffffffc080202c18:	f2b43823          	sd	a1,-208(s0)
ffffffc080202c1c:	f2a43c23          	sd	a0,-200(s0)

ffffffc080202c20 <.Lpcrel_hi341>:
ffffffc080202c20:	00002517          	auipc	a0,0x2
ffffffc080202c24:	620c                	ld	a1,0(a2)
ffffffc080202c26:	76850513          	addi	a0,a0,1896 # ffffffc080205388 <.Lanon.c308b1a5a0a97bdc8edd9b96ba25ee05.272>
ffffffc080202c2a:	f4a43023          	sd	a0,-192(s0)
ffffffc080202c2e:	4509                	li	a0,2
ffffffc080202c30:	f4a43423          	sd	a0,-184(s0)
ffffffc080202c34:	e5b5                	bnez	a1,ffffffc080202ca0 <.Lpcrel_hi345+0x14>
ffffffc080202c36:	f4040513          	addi	a0,s0,-192
ffffffc080202c3a:	f8a43023          	sd	a0,-128(s0)

ffffffc080202c3e <.Lpcrel_hi342>:
ffffffc080202c3e:	00000517          	auipc	a0,0x0
ffffffc080202c42:	10450513          	addi	a0,a0,260 # ffffffc080202d42 <_ZN44_$LT$$RF$T$u20$as$u20$core..fmt..Display$GT$3fmt17hefe420aa2149ea35E>
ffffffc080202c46:	f8a43423          	sd	a0,-120(s0)
ffffffc080202c4a:	f2040513          	addi	a0,s0,-224
ffffffc080202c4e:	f8a43823          	sd	a0,-112(s0)

ffffffc080202c52 <.Lpcrel_hi343>:
ffffffc080202c52:	00000517          	auipc	a0,0x0
ffffffc080202c56:	10e50513          	addi	a0,a0,270 # ffffffc080202d60 <_ZN42_$LT$$RF$T$u20$as$u20$core..fmt..Debug$GT$3fmt17h9537dceab56d2f80E>
ffffffc080202c5a:	f8a43c23          	sd	a0,-104(s0)
ffffffc080202c5e:	f3040593          	addi	a1,s0,-208
ffffffc080202c62:	fab43023          	sd	a1,-96(s0)
ffffffc080202c66:	faa43423          	sd	a0,-88(s0)

ffffffc080202c6a <.Lpcrel_hi344>:
ffffffc080202c6a:	00002517          	auipc	a0,0x2
ffffffc080202c6e:	74650513          	addi	a0,a0,1862 # ffffffc0802053b0 <.Lanon.c308b1a5a0a97bdc8edd9b96ba25ee05.278>
ffffffc080202c72:	fca43023          	sd	a0,-64(s0)
ffffffc080202c76:	450d                	li	a0,3
ffffffc080202c78:	fca43423          	sd	a0,-56(s0)
ffffffc080202c7c:	fe043023          	sd	zero,-32(s0)
ffffffc080202c80:	f8040593          	addi	a1,s0,-128
ffffffc080202c84:	fcb43823          	sd	a1,-48(s0)
ffffffc080202c88:	fca43c23          	sd	a0,-40(s0)

ffffffc080202c8c <.Lpcrel_hi345>:
ffffffc080202c8c:	00002517          	auipc	a0,0x2
ffffffc080202c90:	a3c50593          	addi	a1,a0,-1476 # ffffffc0802046c8 <.Lanon.c473fb1a9af64a93c76cfe2c383e01f6.3>
ffffffc080202c94:	fc040513          	addi	a0,s0,-64
ffffffc080202c98:	fffff097          	auipc	ra,0xfffff
ffffffc080202c9c:	78a080e7          	jalr	1930(ra) # ffffffc080202422 <_ZN4core9panicking9panic_fmt17h11ec9af140fca503E>
ffffffc080202ca0:	7608                	ld	a0,40(a2)
ffffffc080202ca2:	720c                	ld	a1,32(a2)
ffffffc080202ca4:	f6a43c23          	sd	a0,-136(s0)
ffffffc080202ca8:	f6b43823          	sd	a1,-144(s0)
ffffffc080202cac:	6e08                	ld	a0,24(a2)
ffffffc080202cae:	6a0c                	ld	a1,16(a2)
ffffffc080202cb0:	6614                	ld	a3,8(a2)
ffffffc080202cb2:	6210                	ld	a2,0(a2)
ffffffc080202cb4:	f6a43423          	sd	a0,-152(s0)
ffffffc080202cb8:	f6b43023          	sd	a1,-160(s0)
ffffffc080202cbc:	f4d43c23          	sd	a3,-168(s0)
ffffffc080202cc0:	f4c43823          	sd	a2,-176(s0)
ffffffc080202cc4:	f4040513          	addi	a0,s0,-192
ffffffc080202cc8:	f8a43023          	sd	a0,-128(s0)

ffffffc080202ccc <.Lpcrel_hi346>:
ffffffc080202ccc:	00000517          	auipc	a0,0x0
ffffffc080202cd0:	07650513          	addi	a0,a0,118 # ffffffc080202d42 <_ZN44_$LT$$RF$T$u20$as$u20$core..fmt..Display$GT$3fmt17hefe420aa2149ea35E>
ffffffc080202cd4:	f8a43423          	sd	a0,-120(s0)
ffffffc080202cd8:	f5040513          	addi	a0,s0,-176
ffffffc080202cdc:	f8a43823          	sd	a0,-112(s0)

ffffffc080202ce0 <.Lpcrel_hi347>:
ffffffc080202ce0:	00000517          	auipc	a0,0x0
ffffffc080202ce4:	09650513          	addi	a0,a0,150 # ffffffc080202d76 <_ZN59_$LT$core..fmt..Arguments$u20$as$u20$core..fmt..Display$GT$3fmt17hb9ea72e8555fec20E>
ffffffc080202ce8:	f8a43c23          	sd	a0,-104(s0)
ffffffc080202cec:	f2040513          	addi	a0,s0,-224
ffffffc080202cf0:	faa43023          	sd	a0,-96(s0)

ffffffc080202cf4 <.Lpcrel_hi348>:
ffffffc080202cf4:	00000517          	auipc	a0,0x0
ffffffc080202cf8:	06c50513          	addi	a0,a0,108 # ffffffc080202d60 <_ZN42_$LT$$RF$T$u20$as$u20$core..fmt..Debug$GT$3fmt17h9537dceab56d2f80E>
ffffffc080202cfc:	faa43423          	sd	a0,-88(s0)
ffffffc080202d00:	f3040593          	addi	a1,s0,-208
ffffffc080202d04:	fab43823          	sd	a1,-80(s0)
ffffffc080202d08:	faa43c23          	sd	a0,-72(s0)

ffffffc080202d0c <.Lpcrel_hi349>:
ffffffc080202d0c:	00002517          	auipc	a0,0x2
ffffffc080202d10:	6e450513          	addi	a0,a0,1764 # ffffffc0802053f0 <.Lanon.c308b1a5a0a97bdc8edd9b96ba25ee05.281>
ffffffc080202d14:	fca43023          	sd	a0,-64(s0)
ffffffc080202d18:	4511                	li	a0,4
ffffffc080202d1a:	fca43423          	sd	a0,-56(s0)
ffffffc080202d1e:	fe043023          	sd	zero,-32(s0)
ffffffc080202d22:	f8040593          	addi	a1,s0,-128
ffffffc080202d26:	fcb43823          	sd	a1,-48(s0)
ffffffc080202d2a:	fca43c23          	sd	a0,-40(s0)

ffffffc080202d2e <.Lpcrel_hi350>:
ffffffc080202d2e:	00002517          	auipc	a0,0x2
ffffffc080202d32:	99a50593          	addi	a1,a0,-1638 # ffffffc0802046c8 <.Lanon.c473fb1a9af64a93c76cfe2c383e01f6.3>
ffffffc080202d36:	fc040513          	addi	a0,s0,-64
ffffffc080202d3a:	fffff097          	auipc	ra,0xfffff
ffffffc080202d3e:	6e8080e7          	jalr	1768(ra) # ffffffc080202422 <_ZN4core9panicking9panic_fmt17h11ec9af140fca503E>

ffffffc080202d42 <_ZN44_$LT$$RF$T$u20$as$u20$core..fmt..Display$GT$3fmt17hefe420aa2149ea35E>:
ffffffc080202d42:	1141                	addi	sp,sp,-16
ffffffc080202d44:	e406                	sd	ra,8(sp)
ffffffc080202d46:	e022                	sd	s0,0(sp)
ffffffc080202d48:	0800                	addi	s0,sp,16
ffffffc080202d4a:	6114                	ld	a3,0(a0)
ffffffc080202d4c:	6510                	ld	a2,8(a0)
ffffffc080202d4e:	852e                	mv	a0,a1
ffffffc080202d50:	85b6                	mv	a1,a3
ffffffc080202d52:	60a2                	ld	ra,8(sp)
ffffffc080202d54:	6402                	ld	s0,0(sp)
ffffffc080202d56:	0141                	addi	sp,sp,16
ffffffc080202d58:	00000317          	auipc	t1,0x0
ffffffc080202d5c:	b4630067          	jr	-1210(t1) # ffffffc08020289e <_ZN4core3fmt9Formatter3pad17heef45ae07d2799a9E>

ffffffc080202d60 <_ZN42_$LT$$RF$T$u20$as$u20$core..fmt..Debug$GT$3fmt17h9537dceab56d2f80E>:
ffffffc080202d60:	1141                	addi	sp,sp,-16
ffffffc080202d62:	e406                	sd	ra,8(sp)
ffffffc080202d64:	e022                	sd	s0,0(sp)
ffffffc080202d66:	0800                	addi	s0,sp,16
ffffffc080202d68:	6510                	ld	a2,8(a0)
ffffffc080202d6a:	6108                	ld	a0,0(a0)
ffffffc080202d6c:	6e1c                	ld	a5,24(a2)
ffffffc080202d6e:	60a2                	ld	ra,8(sp)
ffffffc080202d70:	6402                	ld	s0,0(sp)
ffffffc080202d72:	0141                	addi	sp,sp,16
ffffffc080202d74:	8782                	jr	a5

ffffffc080202d76 <_ZN59_$LT$core..fmt..Arguments$u20$as$u20$core..fmt..Display$GT$3fmt17hb9ea72e8555fec20E>:
ffffffc080202d76:	1141                	addi	sp,sp,-16
ffffffc080202d78:	e406                	sd	ra,8(sp)
ffffffc080202d7a:	e022                	sd	s0,0(sp)
ffffffc080202d7c:	0800                	addi	s0,sp,16
ffffffc080202d7e:	7190                	ld	a2,32(a1)
ffffffc080202d80:	758c                	ld	a1,40(a1)
ffffffc080202d82:	86aa                	mv	a3,a0
ffffffc080202d84:	8532                	mv	a0,a2
ffffffc080202d86:	8636                	mv	a2,a3
ffffffc080202d88:	60a2                	ld	ra,8(sp)
ffffffc080202d8a:	6402                	ld	s0,0(sp)
ffffffc080202d8c:	0141                	addi	sp,sp,16
ffffffc080202d8e:	00000317          	auipc	t1,0x0
ffffffc080202d92:	00830067          	jr	8(t1) # ffffffc080202d96 <_ZN4core3fmt5write17h49a560cace6c89d2E>

ffffffc080202d96 <_ZN4core3fmt5write17h49a560cace6c89d2E>:
ffffffc080202d96:	7175                	addi	sp,sp,-144
ffffffc080202d98:	e506                	sd	ra,136(sp)
ffffffc080202d9a:	e122                	sd	s0,128(sp)
ffffffc080202d9c:	fca6                	sd	s1,120(sp)
ffffffc080202d9e:	f8ca                	sd	s2,112(sp)
ffffffc080202da0:	f4ce                	sd	s3,104(sp)
ffffffc080202da2:	f0d2                	sd	s4,96(sp)
ffffffc080202da4:	ecd6                	sd	s5,88(sp)
ffffffc080202da6:	e8da                	sd	s6,80(sp)
ffffffc080202da8:	e4de                	sd	s7,72(sp)
ffffffc080202daa:	e0e2                	sd	s8,64(sp)
ffffffc080202dac:	0900                	addi	s0,sp,144
ffffffc080202dae:	89b2                	mv	s3,a2
ffffffc080202db0:	02000613          	li	a2,32
ffffffc080202db4:	fac43023          	sd	a2,-96(s0)
ffffffc080202db8:	460d                	li	a2,3
ffffffc080202dba:	fac40423          	sb	a2,-88(s0)
ffffffc080202dbe:	0209b483          	ld	s1,32(s3)
ffffffc080202dc2:	f6043823          	sd	zero,-144(s0)
ffffffc080202dc6:	f8043023          	sd	zero,-128(s0)
ffffffc080202dca:	f8a43823          	sd	a0,-112(s0)
ffffffc080202dce:	f8b43c23          	sd	a1,-104(s0)
ffffffc080202dd2:	c8f9                	beqz	s1,ffffffc080202ea8 <_ZN4core3fmt5write17h49a560cace6c89d2E+0x112>
ffffffc080202dd4:	0289b503          	ld	a0,40(s3)
ffffffc080202dd8:	12050663          	beqz	a0,ffffffc080202f04 <_ZN4core3fmt5write17h49a560cace6c89d2E+0x16e>
ffffffc080202ddc:	0009bb03          	ld	s6,0(s3)
ffffffc080202de0:	0109ba03          	ld	s4,16(s3)
ffffffc080202de4:	fff50593          	addi	a1,a0,-1
ffffffc080202de8:	058e                	slli	a1,a1,0x3
ffffffc080202dea:	818d                	srli	a1,a1,0x3
ffffffc080202dec:	00158913          	addi	s2,a1,1
ffffffc080202df0:	0b21                	addi	s6,s6,8
ffffffc080202df2:	03800593          	li	a1,56
ffffffc080202df6:	02b50ab3          	mul	s5,a0,a1
ffffffc080202dfa:	04e1                	addi	s1,s1,24
ffffffc080202dfc:	4b89                	li	s7,2
ffffffc080202dfe:	4c05                	li	s8,1
ffffffc080202e00:	000b3603          	ld	a2,0(s6)
ffffffc080202e04:	ca19                	beqz	a2,ffffffc080202e1a <_ZN4core3fmt5write17h49a560cace6c89d2E+0x84>
ffffffc080202e06:	f9843683          	ld	a3,-104(s0)
ffffffc080202e0a:	f9043503          	ld	a0,-112(s0)
ffffffc080202e0e:	ff8b3583          	ld	a1,-8(s6)
ffffffc080202e12:	6e94                	ld	a3,24(a3)
ffffffc080202e14:	9682                	jalr	a3
ffffffc080202e16:	10051b63          	bnez	a0,ffffffc080202f2c <_ZN4core3fmt5write17h49a560cace6c89d2E+0x196>
ffffffc080202e1a:	6888                	ld	a0,16(s1)
ffffffc080202e1c:	faa43023          	sd	a0,-96(s0)
ffffffc080202e20:	0184c603          	lbu	a2,24(s1)
ffffffc080202e24:	ff84b583          	ld	a1,-8(s1)
ffffffc080202e28:	6088                	ld	a0,0(s1)
ffffffc080202e2a:	fac40423          	sb	a2,-88(s0)
ffffffc080202e2e:	c195                	beqz	a1,ffffffc080202e52 <_ZN4core3fmt5write17h49a560cace6c89d2E+0xbc>
ffffffc080202e30:	01859663          	bne	a1,s8,ffffffc080202e3c <_ZN4core3fmt5write17h49a560cace6c89d2E+0xa6>
ffffffc080202e34:	0512                	slli	a0,a0,0x4
ffffffc080202e36:	9552                	add	a0,a0,s4
ffffffc080202e38:	650c                	ld	a1,8(a0)
ffffffc080202e3a:	c999                	beqz	a1,ffffffc080202e50 <_ZN4core3fmt5write17h49a560cace6c89d2E+0xba>
ffffffc080202e3c:	4581                	li	a1,0
ffffffc080202e3e:	fe84b603          	ld	a2,-24(s1)
ffffffc080202e42:	f6043823          	sd	zero,-144(s0)
ffffffc080202e46:	f6a43c23          	sd	a0,-136(s0)
ffffffc080202e4a:	01761d63          	bne	a2,s7,ffffffc080202e64 <_ZN4core3fmt5write17h49a560cace6c89d2E+0xce>
ffffffc080202e4e:	a025                	j	ffffffc080202e76 <_ZN4core3fmt5write17h49a560cace6c89d2E+0xe0>
ffffffc080202e50:	6108                	ld	a0,0(a0)
ffffffc080202e52:	4585                	li	a1,1
ffffffc080202e54:	fe84b603          	ld	a2,-24(s1)
ffffffc080202e58:	f6b43823          	sd	a1,-144(s0)
ffffffc080202e5c:	f6a43c23          	sd	a0,-136(s0)
ffffffc080202e60:	01760b63          	beq	a2,s7,ffffffc080202e76 <_ZN4core3fmt5write17h49a560cace6c89d2E+0xe0>
ffffffc080202e64:	ff04b583          	ld	a1,-16(s1)
ffffffc080202e68:	01861a63          	bne	a2,s8,ffffffc080202e7c <_ZN4core3fmt5write17h49a560cace6c89d2E+0xe6>
ffffffc080202e6c:	00459513          	slli	a0,a1,0x4
ffffffc080202e70:	9552                	add	a0,a0,s4
ffffffc080202e72:	650c                	ld	a1,8(a0)
ffffffc080202e74:	c199                	beqz	a1,ffffffc080202e7a <_ZN4core3fmt5write17h49a560cace6c89d2E+0xe4>
ffffffc080202e76:	4601                	li	a2,0
ffffffc080202e78:	a019                	j	ffffffc080202e7e <_ZN4core3fmt5write17h49a560cace6c89d2E+0xe8>
ffffffc080202e7a:	610c                	ld	a1,0(a0)
ffffffc080202e7c:	4605                	li	a2,1
ffffffc080202e7e:	6488                	ld	a0,8(s1)
ffffffc080202e80:	0512                	slli	a0,a0,0x4
ffffffc080202e82:	9552                	add	a0,a0,s4
ffffffc080202e84:	6514                	ld	a3,8(a0)
ffffffc080202e86:	6108                	ld	a0,0(a0)
ffffffc080202e88:	f8c43023          	sd	a2,-128(s0)
ffffffc080202e8c:	f8b43423          	sd	a1,-120(s0)
ffffffc080202e90:	f7040593          	addi	a1,s0,-144
ffffffc080202e94:	9682                	jalr	a3
ffffffc080202e96:	e959                	bnez	a0,ffffffc080202f2c <_ZN4core3fmt5write17h49a560cace6c89d2E+0x196>
ffffffc080202e98:	0b41                	addi	s6,s6,16
ffffffc080202e9a:	fc8a8a93          	addi	s5,s5,-56 # 10ffc8 <_percpu_load_end+0x10ffbf>
ffffffc080202e9e:	03848493          	addi	s1,s1,56
ffffffc080202ea2:	f40a9fe3          	bnez	s5,ffffffc080202e00 <_ZN4core3fmt5write17h49a560cace6c89d2E+0x6a>
ffffffc080202ea6:	a891                	j	ffffffc080202efa <_ZN4core3fmt5write17h49a560cace6c89d2E+0x164>
ffffffc080202ea8:	0189ba83          	ld	s5,24(s3)
ffffffc080202eac:	040a8c63          	beqz	s5,ffffffc080202f04 <_ZN4core3fmt5write17h49a560cace6c89d2E+0x16e>
ffffffc080202eb0:	0109b483          	ld	s1,16(s3)
ffffffc080202eb4:	0009ba03          	ld	s4,0(s3)
ffffffc080202eb8:	fffa8513          	addi	a0,s5,-1
ffffffc080202ebc:	0512                	slli	a0,a0,0x4
ffffffc080202ebe:	8111                	srli	a0,a0,0x4
ffffffc080202ec0:	00150913          	addi	s2,a0,1
ffffffc080202ec4:	0a21                	addi	s4,s4,8
ffffffc080202ec6:	04a1                	addi	s1,s1,8
ffffffc080202ec8:	0a92                	slli	s5,s5,0x4
ffffffc080202eca:	000a3603          	ld	a2,0(s4)
ffffffc080202ece:	ca11                	beqz	a2,ffffffc080202ee2 <_ZN4core3fmt5write17h49a560cace6c89d2E+0x14c>
ffffffc080202ed0:	f9843683          	ld	a3,-104(s0)
ffffffc080202ed4:	f9043503          	ld	a0,-112(s0)
ffffffc080202ed8:	ff8a3583          	ld	a1,-8(s4)
ffffffc080202edc:	6e94                	ld	a3,24(a3)
ffffffc080202ede:	9682                	jalr	a3
ffffffc080202ee0:	e531                	bnez	a0,ffffffc080202f2c <_ZN4core3fmt5write17h49a560cace6c89d2E+0x196>
ffffffc080202ee2:	6090                	ld	a2,0(s1)
ffffffc080202ee4:	ff84b503          	ld	a0,-8(s1)
ffffffc080202ee8:	f7040593          	addi	a1,s0,-144
ffffffc080202eec:	9602                	jalr	a2
ffffffc080202eee:	ed1d                	bnez	a0,ffffffc080202f2c <_ZN4core3fmt5write17h49a560cace6c89d2E+0x196>
ffffffc080202ef0:	0a41                	addi	s4,s4,16
ffffffc080202ef2:	1ac1                	addi	s5,s5,-16
ffffffc080202ef4:	04c1                	addi	s1,s1,16
ffffffc080202ef6:	fc0a9ae3          	bnez	s5,ffffffc080202eca <_ZN4core3fmt5write17h49a560cace6c89d2E+0x134>
ffffffc080202efa:	0089b503          	ld	a0,8(s3)
ffffffc080202efe:	00a96863          	bltu	s2,a0,ffffffc080202f0e <_ZN4core3fmt5write17h49a560cace6c89d2E+0x178>
ffffffc080202f02:	a03d                	j	ffffffc080202f30 <_ZN4core3fmt5write17h49a560cace6c89d2E+0x19a>
ffffffc080202f04:	4901                	li	s2,0
ffffffc080202f06:	0089b503          	ld	a0,8(s3)
ffffffc080202f0a:	02a07363          	bgeu	zero,a0,ffffffc080202f30 <_ZN4core3fmt5write17h49a560cace6c89d2E+0x19a>
ffffffc080202f0e:	0009b503          	ld	a0,0(s3)
ffffffc080202f12:	0912                	slli	s2,s2,0x4
ffffffc080202f14:	992a                	add	s2,s2,a0
ffffffc080202f16:	f9843683          	ld	a3,-104(s0)
ffffffc080202f1a:	f9043503          	ld	a0,-112(s0)
ffffffc080202f1e:	00093583          	ld	a1,0(s2)
ffffffc080202f22:	00893603          	ld	a2,8(s2)
ffffffc080202f26:	6e94                	ld	a3,24(a3)
ffffffc080202f28:	9682                	jalr	a3
ffffffc080202f2a:	c119                	beqz	a0,ffffffc080202f30 <_ZN4core3fmt5write17h49a560cace6c89d2E+0x19a>
ffffffc080202f2c:	4505                	li	a0,1
ffffffc080202f2e:	a011                	j	ffffffc080202f32 <_ZN4core3fmt5write17h49a560cace6c89d2E+0x19c>
ffffffc080202f30:	4501                	li	a0,0
ffffffc080202f32:	60aa                	ld	ra,136(sp)
ffffffc080202f34:	640a                	ld	s0,128(sp)
ffffffc080202f36:	74e6                	ld	s1,120(sp)
ffffffc080202f38:	7946                	ld	s2,112(sp)
ffffffc080202f3a:	79a6                	ld	s3,104(sp)
ffffffc080202f3c:	7a06                	ld	s4,96(sp)
ffffffc080202f3e:	6ae6                	ld	s5,88(sp)
ffffffc080202f40:	6b46                	ld	s6,80(sp)
ffffffc080202f42:	6ba6                	ld	s7,72(sp)
ffffffc080202f44:	6c06                	ld	s8,64(sp)
ffffffc080202f46:	6149                	addi	sp,sp,144
ffffffc080202f48:	8082                	ret

ffffffc080202f4a <_ZN4core3ptr26drop_in_place$LT$usize$GT$17h049e11f2864e99d2E>:
ffffffc080202f4a:	1141                	addi	sp,sp,-16
ffffffc080202f4c:	e406                	sd	ra,8(sp)
ffffffc080202f4e:	e022                	sd	s0,0(sp)
ffffffc080202f50:	0800                	addi	s0,sp,16
ffffffc080202f52:	60a2                	ld	ra,8(sp)
ffffffc080202f54:	6402                	ld	s0,0(sp)
ffffffc080202f56:	0141                	addi	sp,sp,16
ffffffc080202f58:	8082                	ret

ffffffc080202f5a <_ZN4core3fmt3num3imp52_$LT$impl$u20$core..fmt..Display$u20$for$u20$u32$GT$3fmt17h4e8d7a453206e77eE>:
ffffffc080202f5a:	1141                	addi	sp,sp,-16
ffffffc080202f5c:	e406                	sd	ra,8(sp)
ffffffc080202f5e:	e022                	sd	s0,0(sp)
ffffffc080202f60:	0800                	addi	s0,sp,16
ffffffc080202f62:	00056503          	lwu	a0,0(a0)
ffffffc080202f66:	60a2                	ld	ra,8(sp)
ffffffc080202f68:	6402                	ld	s0,0(sp)
ffffffc080202f6a:	0141                	addi	sp,sp,16
ffffffc080202f6c:	fffff317          	auipc	t1,0xfffff
ffffffc080202f70:	54030067          	jr	1344(t1) # ffffffc0802024ac <_ZN4core3fmt3num3imp7fmt_u6417h5142f3088252957cE>

ffffffc080202f74 <_ZN4core3fmt8builders11DebugStruct5field17h6ad11fbdee0221d3E>:
ffffffc080202f74:	7171                	addi	sp,sp,-176
ffffffc080202f76:	f506                	sd	ra,168(sp)
ffffffc080202f78:	f122                	sd	s0,160(sp)
ffffffc080202f7a:	ed26                	sd	s1,152(sp)
ffffffc080202f7c:	e94a                	sd	s2,144(sp)
ffffffc080202f7e:	e54e                	sd	s3,136(sp)
ffffffc080202f80:	e152                	sd	s4,128(sp)
ffffffc080202f82:	fcd6                	sd	s5,120(sp)
ffffffc080202f84:	f8da                	sd	s6,112(sp)
ffffffc080202f86:	f4de                	sd	s7,104(sp)
ffffffc080202f88:	f0e2                	sd	s8,96(sp)
ffffffc080202f8a:	1900                	addi	s0,sp,176
ffffffc080202f8c:	00854783          	lbu	a5,8(a0)
ffffffc080202f90:	4a85                	li	s5,1
ffffffc080202f92:	4485                	li	s1,1
ffffffc080202f94:	16079763          	bnez	a5,ffffffc080203102 <.Lpcrel_hi353+0x1e>
ffffffc080202f98:	893a                	mv	s2,a4
ffffffc080202f9a:	89b6                	mv	s3,a3
ffffffc080202f9c:	00053a03          	ld	s4,0(a0)
ffffffc080202fa0:	034a6683          	lwu	a3,52(s4)
ffffffc080202fa4:	00954703          	lbu	a4,9(a0)
ffffffc080202fa8:	0046f793          	andi	a5,a3,4
ffffffc080202fac:	8b2a                	mv	s6,a0
ffffffc080202fae:	eb99                	bnez	a5,ffffffc080202fc4 <.Lpcrel_hi352+0xa>
ffffffc080202fb0:	00173693          	seqz	a3,a4
ffffffc080202fb4:	8c2e                	mv	s8,a1
ffffffc080202fb6:	8bb2                	mv	s7,a2
ffffffc080202fb8:	c76d                	beqz	a4,ffffffc0802030a2 <.Lpcrel_hi351>

ffffffc080202fba <.Lpcrel_hi352>:
ffffffc080202fba:	00002517          	auipc	a0,0x2
ffffffc080202fbe:	4d150593          	addi	a1,a0,1233 # ffffffc08020548b <.Lanon.c308b1a5a0a97bdc8edd9b96ba25ee05.287>
ffffffc080202fc2:	a0e5                	j	ffffffc0802030aa <.Lpcrel_hi351+0x8>
ffffffc080202fc4:	eb05                	bnez	a4,ffffffc080202ff4 <.Lpcrel_hi354+0x24>
ffffffc080202fc6:	028a3683          	ld	a3,40(s4)
ffffffc080202fca:	020a3503          	ld	a0,32(s4)
ffffffc080202fce:	6e98                	ld	a4,24(a3)

ffffffc080202fd0 <.Lpcrel_hi354>:
ffffffc080202fd0:	00002697          	auipc	a3,0x2
ffffffc080202fd4:	4bd68693          	addi	a3,a3,1213 # ffffffc08020548d <.Lanon.c308b1a5a0a97bdc8edd9b96ba25ee05.288>
ffffffc080202fd8:	8bb2                	mv	s7,a2
ffffffc080202fda:	460d                	li	a2,3
ffffffc080202fdc:	84ae                	mv	s1,a1
ffffffc080202fde:	85b6                	mv	a1,a3
ffffffc080202fe0:	9702                	jalr	a4
ffffffc080202fe2:	85a6                	mv	a1,s1
ffffffc080202fe4:	86aa                	mv	a3,a0
ffffffc080202fe6:	4485                	li	s1,1
ffffffc080202fe8:	855a                	mv	a0,s6
ffffffc080202fea:	10069c63          	bnez	a3,ffffffc080203102 <.Lpcrel_hi353+0x1e>
ffffffc080202fee:	865e                	mv	a2,s7
ffffffc080202ff0:	034a2683          	lw	a3,52(s4)
ffffffc080202ff4:	020a3503          	ld	a0,32(s4)
ffffffc080202ff8:	028a3703          	ld	a4,40(s4)
ffffffc080202ffc:	4485                	li	s1,1
ffffffc080202ffe:	f69407a3          	sb	s1,-145(s0)
ffffffc080203002:	f4a43823          	sd	a0,-176(s0)
ffffffc080203006:	f4e43c23          	sd	a4,-168(s0)
ffffffc08020300a:	f6f40513          	addi	a0,s0,-145
ffffffc08020300e:	f6a43023          	sd	a0,-160(s0)
ffffffc080203012:	030a2503          	lw	a0,48(s4)
ffffffc080203016:	038a4703          	lbu	a4,56(s4)
ffffffc08020301a:	000a3783          	ld	a5,0(s4)
ffffffc08020301e:	008a3803          	ld	a6,8(s4)
ffffffc080203022:	010a3883          	ld	a7,16(s4)
ffffffc080203026:	018a3283          	ld	t0,24(s4)
ffffffc08020302a:	fad42223          	sw	a3,-92(s0)
ffffffc08020302e:	faa42023          	sw	a0,-96(s0)
ffffffc080203032:	fae40423          	sb	a4,-88(s0)
ffffffc080203036:	f6f43823          	sd	a5,-144(s0)
ffffffc08020303a:	f7043c23          	sd	a6,-136(s0)
ffffffc08020303e:	f9143023          	sd	a7,-128(s0)
ffffffc080203042:	f8543423          	sd	t0,-120(s0)
ffffffc080203046:	f5040513          	addi	a0,s0,-176
ffffffc08020304a:	f8a43823          	sd	a0,-112(s0)

ffffffc08020304e <.Lpcrel_hi355>:
ffffffc08020304e:	00002517          	auipc	a0,0x2
ffffffc080203052:	40a50513          	addi	a0,a0,1034 # ffffffc080205458 <.Lanon.c308b1a5a0a97bdc8edd9b96ba25ee05.284>
ffffffc080203056:	f8a43c23          	sd	a0,-104(s0)
ffffffc08020305a:	f5040513          	addi	a0,s0,-176
ffffffc08020305e:	00000097          	auipc	ra,0x0
ffffffc080203062:	0c4080e7          	jalr	196(ra) # ffffffc080203122 <_ZN68_$LT$core..fmt..builders..PadAdapter$u20$as$u20$core..fmt..Write$GT$9write_str17hd5dcd745dc924820E>
ffffffc080203066:	ed49                	bnez	a0,ffffffc080203100 <.Lpcrel_hi353+0x1c>

ffffffc080203068 <.Lpcrel_hi356>:
ffffffc080203068:	00002517          	auipc	a0,0x2
ffffffc08020306c:	3c850593          	addi	a1,a0,968 # ffffffc080205430 <.Lanon.c308b1a5a0a97bdc8edd9b96ba25ee05.282>
ffffffc080203070:	f5040513          	addi	a0,s0,-176
ffffffc080203074:	4609                	li	a2,2
ffffffc080203076:	00000097          	auipc	ra,0x0
ffffffc08020307a:	0ac080e7          	jalr	172(ra) # ffffffc080203122 <_ZN68_$LT$core..fmt..builders..PadAdapter$u20$as$u20$core..fmt..Write$GT$9write_str17hd5dcd745dc924820E>
ffffffc08020307e:	e149                	bnez	a0,ffffffc080203100 <.Lpcrel_hi353+0x1c>
ffffffc080203080:	f7040593          	addi	a1,s0,-144
ffffffc080203084:	854e                	mv	a0,s3
ffffffc080203086:	9902                	jalr	s2
ffffffc080203088:	ed25                	bnez	a0,ffffffc080203100 <.Lpcrel_hi353+0x1c>
ffffffc08020308a:	f9843583          	ld	a1,-104(s0)
ffffffc08020308e:	f9043503          	ld	a0,-112(s0)
ffffffc080203092:	6d94                	ld	a3,24(a1)

ffffffc080203094 <.Lpcrel_hi357>:
ffffffc080203094:	00002597          	auipc	a1,0x2
ffffffc080203098:	3fc58593          	addi	a1,a1,1020 # ffffffc080205490 <.Lanon.c308b1a5a0a97bdc8edd9b96ba25ee05.289>
ffffffc08020309c:	4609                	li	a2,2
ffffffc08020309e:	9682                	jalr	a3
ffffffc0802030a0:	a8b9                	j	ffffffc0802030fe <.Lpcrel_hi353+0x1a>

ffffffc0802030a2 <.Lpcrel_hi351>:
ffffffc0802030a2:	00002517          	auipc	a0,0x2
ffffffc0802030a6:	3e650593          	addi	a1,a0,998 # ffffffc080205488 <.Lanon.c308b1a5a0a97bdc8edd9b96ba25ee05.286>
ffffffc0802030aa:	028a3603          	ld	a2,40(s4)
ffffffc0802030ae:	020a3503          	ld	a0,32(s4)
ffffffc0802030b2:	6e18                	ld	a4,24(a2)
ffffffc0802030b4:	00268613          	addi	a2,a3,2
ffffffc0802030b8:	9702                	jalr	a4
ffffffc0802030ba:	86aa                	mv	a3,a0
ffffffc0802030bc:	4485                	li	s1,1
ffffffc0802030be:	855a                	mv	a0,s6
ffffffc0802030c0:	e2a9                	bnez	a3,ffffffc080203102 <.Lpcrel_hi353+0x1e>
ffffffc0802030c2:	865e                	mv	a2,s7
ffffffc0802030c4:	85e2                	mv	a1,s8
ffffffc0802030c6:	028a3683          	ld	a3,40(s4)
ffffffc0802030ca:	020a3503          	ld	a0,32(s4)
ffffffc0802030ce:	6e94                	ld	a3,24(a3)
ffffffc0802030d0:	9682                	jalr	a3
ffffffc0802030d2:	85aa                	mv	a1,a0
ffffffc0802030d4:	855a                	mv	a0,s6
ffffffc0802030d6:	4485                	li	s1,1
ffffffc0802030d8:	e58d                	bnez	a1,ffffffc080203102 <.Lpcrel_hi353+0x1e>
ffffffc0802030da:	028a3583          	ld	a1,40(s4)
ffffffc0802030de:	020a3503          	ld	a0,32(s4)
ffffffc0802030e2:	6d94                	ld	a3,24(a1)

ffffffc0802030e4 <.Lpcrel_hi353>:
ffffffc0802030e4:	00002597          	auipc	a1,0x2
ffffffc0802030e8:	34c58593          	addi	a1,a1,844 # ffffffc080205430 <.Lanon.c308b1a5a0a97bdc8edd9b96ba25ee05.282>
ffffffc0802030ec:	4609                	li	a2,2
ffffffc0802030ee:	9682                	jalr	a3
ffffffc0802030f0:	85aa                	mv	a1,a0
ffffffc0802030f2:	855a                	mv	a0,s6
ffffffc0802030f4:	4485                	li	s1,1
ffffffc0802030f6:	e591                	bnez	a1,ffffffc080203102 <.Lpcrel_hi353+0x1e>
ffffffc0802030f8:	854e                	mv	a0,s3
ffffffc0802030fa:	85d2                	mv	a1,s4
ffffffc0802030fc:	9902                	jalr	s2
ffffffc0802030fe:	84aa                	mv	s1,a0
ffffffc080203100:	855a                	mv	a0,s6
ffffffc080203102:	00950423          	sb	s1,8(a0)
ffffffc080203106:	015504a3          	sb	s5,9(a0)
ffffffc08020310a:	70aa                	ld	ra,168(sp)
ffffffc08020310c:	740a                	ld	s0,160(sp)
ffffffc08020310e:	64ea                	ld	s1,152(sp)
ffffffc080203110:	694a                	ld	s2,144(sp)
ffffffc080203112:	69aa                	ld	s3,136(sp)
ffffffc080203114:	6a0a                	ld	s4,128(sp)
ffffffc080203116:	7ae6                	ld	s5,120(sp)
ffffffc080203118:	7b46                	ld	s6,112(sp)
ffffffc08020311a:	7ba6                	ld	s7,104(sp)
ffffffc08020311c:	7c06                	ld	s8,96(sp)
ffffffc08020311e:	614d                	addi	sp,sp,176
ffffffc080203120:	8082                	ret

ffffffc080203122 <_ZN68_$LT$core..fmt..builders..PadAdapter$u20$as$u20$core..fmt..Write$GT$9write_str17hd5dcd745dc924820E>:
ffffffc080203122:	7175                	addi	sp,sp,-144
ffffffc080203124:	e506                	sd	ra,136(sp)
ffffffc080203126:	e122                	sd	s0,128(sp)
ffffffc080203128:	fca6                	sd	s1,120(sp)
ffffffc08020312a:	f8ca                	sd	s2,112(sp)
ffffffc08020312c:	f4ce                	sd	s3,104(sp)
ffffffc08020312e:	f0d2                	sd	s4,96(sp)
ffffffc080203130:	ecd6                	sd	s5,88(sp)
ffffffc080203132:	e8da                	sd	s6,80(sp)
ffffffc080203134:	e4de                	sd	s7,72(sp)
ffffffc080203136:	e0e2                	sd	s8,64(sp)
ffffffc080203138:	fc66                	sd	s9,56(sp)
ffffffc08020313a:	f86a                	sd	s10,48(sp)
ffffffc08020313c:	f46e                	sd	s11,40(sp)
ffffffc08020313e:	0900                	addi	s0,sp,144
ffffffc080203140:	89b2                	mv	s3,a2
ffffffc080203142:	4b01                	li	s6,0
ffffffc080203144:	4d01                	li	s10,0
ffffffc080203146:	feff0637          	lui	a2,0xfeff0
ffffffc08020314a:	eff60b9b          	addiw	s7,a2,-257
ffffffc08020314e:	020b9613          	slli	a2,s7,0x20
ffffffc080203152:	9bb2                	add	s7,s7,a2
ffffffc080203154:	0a0a1637          	lui	a2,0xa0a1
ffffffc080203158:	a0a6049b          	addiw	s1,a2,-1526
ffffffc08020315c:	02049913          	slli	s2,s1,0x20
ffffffc080203160:	9926                	add	s2,s2,s1
ffffffc080203162:	84ae                	mv	s1,a1
ffffffc080203164:	01053c03          	ld	s8,16(a0)
ffffffc080203168:	610c                	ld	a1,0(a0)
ffffffc08020316a:	f8b43823          	sd	a1,-112(s0)
ffffffc08020316e:	6508                	ld	a0,8(a0)
ffffffc080203170:	f8a43423          	sd	a0,-120(s0)
ffffffc080203174:	fff48513          	addi	a0,s1,-1
ffffffc080203178:	f6a43c23          	sd	a0,-136(s0)

ffffffc08020317c <.Lpcrel_hi358>:
ffffffc08020317c:	00001517          	auipc	a0,0x1
ffffffc080203180:	ef450513          	addi	a0,a0,-268 # ffffffc080204070 <$d.90+0x8>
ffffffc080203184:	f8a43023          	sd	a0,-128(s0)
ffffffc080203188:	4da9                	li	s11,10
ffffffc08020318a:	f6943823          	sd	s1,-144(s0)
ffffffc08020318e:	a815                	j	ffffffc0802031c2 <.Lpcrel_hi358+0x46>
ffffffc080203190:	f7843503          	ld	a0,-136(s0)
ffffffc080203194:	9556                	add	a0,a0,s5
ffffffc080203196:	00054503          	lbu	a0,0(a0)
ffffffc08020319a:	1559                	addi	a0,a0,-10
ffffffc08020319c:	00153513          	seqz	a0,a0
ffffffc0802031a0:	00ac0023          	sb	a0,0(s8)
ffffffc0802031a4:	f8843503          	ld	a0,-120(s0)
ffffffc0802031a8:	6d14                	ld	a3,24(a0)
ffffffc0802031aa:	41aa8633          	sub	a2,s5,s10
ffffffc0802031ae:	01a485b3          	add	a1,s1,s10
ffffffc0802031b2:	f9043503          	ld	a0,-112(s0)
ffffffc0802031b6:	9682                	jalr	a3
ffffffc0802031b8:	014565b3          	or	a1,a0,s4
ffffffc0802031bc:	8d66                	mv	s10,s9
ffffffc0802031be:	12059563          	bnez	a1,ffffffc0802032e8 <.Lpcrel_hi359+0xaa>
ffffffc0802031c2:	0169f563          	bgeu	s3,s6,ffffffc0802031cc <.Lpcrel_hi358+0x50>
ffffffc0802031c6:	a0c5                	j	ffffffc0802032a6 <.Lpcrel_hi359+0x68>
ffffffc0802031c8:	0d69ef63          	bltu	s3,s6,ffffffc0802032a6 <.Lpcrel_hi359+0x68>
ffffffc0802031cc:	416988b3          	sub	a7,s3,s6
ffffffc0802031d0:	01648533          	add	a0,s1,s6
ffffffc0802031d4:	45c1                	li	a1,16
ffffffc0802031d6:	00b8ff63          	bgeu	a7,a1,ffffffc0802031f4 <.Lpcrel_hi358+0x78>
ffffffc0802031da:	0d698563          	beq	s3,s6,ffffffc0802032a4 <.Lpcrel_hi359+0x66>
ffffffc0802031de:	4681                	li	a3,0
ffffffc0802031e0:	00d505b3          	add	a1,a0,a3
ffffffc0802031e4:	0005c583          	lbu	a1,0(a1)
ffffffc0802031e8:	09b58f63          	beq	a1,s11,ffffffc080203286 <.Lpcrel_hi359+0x48>
ffffffc0802031ec:	0685                	addi	a3,a3,1
ffffffc0802031ee:	fed899e3          	bne	a7,a3,ffffffc0802031e0 <.Lpcrel_hi358+0x64>
ffffffc0802031f2:	a84d                	j	ffffffc0802032a4 <.Lpcrel_hi359+0x66>
ffffffc0802031f4:	00750713          	addi	a4,a0,7
ffffffc0802031f8:	9b61                	andi	a4,a4,-8
ffffffc0802031fa:	40a70633          	sub	a2,a4,a0
ffffffc0802031fe:	c205                	beqz	a2,ffffffc08020321e <.Lpcrel_hi358+0xa2>
ffffffc080203200:	4681                	li	a3,0
ffffffc080203202:	00d507b3          	add	a5,a0,a3
ffffffc080203206:	0007c783          	lbu	a5,0(a5)
ffffffc08020320a:	07b78e63          	beq	a5,s11,ffffffc080203286 <.Lpcrel_hi359+0x48>
ffffffc08020320e:	0685                	addi	a3,a3,1
ffffffc080203210:	fed619e3          	bne	a2,a3,ffffffc080203202 <.Lpcrel_hi358+0x86>
ffffffc080203214:	ff088813          	addi	a6,a7,-16 # 10fff0 <_percpu_load_end+0x10ffe7>
ffffffc080203218:	00c87563          	bgeu	a6,a2,ffffffc080203222 <.Lpcrel_hi358+0xa6>
ffffffc08020321c:	a83d                	j	ffffffc08020325a <.Lpcrel_hi359+0x1c>
ffffffc08020321e:	ff088813          	addi	a6,a7,-16
ffffffc080203222:	45a1                	li	a1,8
ffffffc080203224:	972e                	add	a4,a4,a1
ffffffc080203226:	ff873783          	ld	a5,-8(a4)
ffffffc08020322a:	6304                	ld	s1,0(a4)
ffffffc08020322c:	0127c6b3          	xor	a3,a5,s2
ffffffc080203230:	96de                	add	a3,a3,s7
ffffffc080203232:	fff7c793          	not	a5,a5
ffffffc080203236:	8efd                	and	a3,a3,a5
ffffffc080203238:	0124c7b3          	xor	a5,s1,s2
ffffffc08020323c:	97de                	add	a5,a5,s7

ffffffc08020323e <.Lpcrel_hi359>:
ffffffc08020323e:	00004597          	auipc	a1,0x4
ffffffc080203242:	dfa5b583          	ld	a1,-518(a1) # ffffffc080207038 <.LCPI68_0>
ffffffc080203246:	fff4c493          	not	s1,s1
ffffffc08020324a:	8fe5                	and	a5,a5,s1
ffffffc08020324c:	8edd                	or	a3,a3,a5
ffffffc08020324e:	8df5                	and	a1,a1,a3
ffffffc080203250:	e589                	bnez	a1,ffffffc08020325a <.Lpcrel_hi359+0x1c>
ffffffc080203252:	0641                	addi	a2,a2,16
ffffffc080203254:	0741                	addi	a4,a4,16
ffffffc080203256:	fcc878e3          	bgeu	a6,a2,ffffffc080203226 <.Lpcrel_hi358+0xaa>
ffffffc08020325a:	06c88c63          	beq	a7,a2,ffffffc0802032d2 <.Lpcrel_hi359+0x94>
ffffffc08020325e:	4681                	li	a3,0
ffffffc080203260:	00c505b3          	add	a1,a0,a2
ffffffc080203264:	40c98733          	sub	a4,s3,a2
ffffffc080203268:	41670733          	sub	a4,a4,s6
ffffffc08020326c:	f7043483          	ld	s1,-144(s0)
ffffffc080203270:	00d587b3          	add	a5,a1,a3
ffffffc080203274:	0007c783          	lbu	a5,0(a5)
ffffffc080203278:	01b78663          	beq	a5,s11,ffffffc080203284 <.Lpcrel_hi359+0x46>
ffffffc08020327c:	0685                	addi	a3,a3,1
ffffffc08020327e:	fed719e3          	bne	a4,a3,ffffffc080203270 <.Lpcrel_hi359+0x32>
ffffffc080203282:	a00d                	j	ffffffc0802032a4 <.Lpcrel_hi359+0x66>
ffffffc080203284:	96b2                	add	a3,a3,a2
ffffffc080203286:	00db05b3          	add	a1,s6,a3
ffffffc08020328a:	00158b13          	addi	s6,a1,1
ffffffc08020328e:	f335fde3          	bgeu	a1,s3,ffffffc0802031c8 <.Lpcrel_hi358+0x4c>
ffffffc080203292:	9536                	add	a0,a0,a3
ffffffc080203294:	00054503          	lbu	a0,0(a0)
ffffffc080203298:	f3b518e3          	bne	a0,s11,ffffffc0802031c8 <.Lpcrel_hi358+0x4c>
ffffffc08020329c:	4a01                	li	s4,0
ffffffc08020329e:	8cda                	mv	s9,s6
ffffffc0802032a0:	8ada                	mv	s5,s6
ffffffc0802032a2:	a039                	j	ffffffc0802032b0 <.Lpcrel_hi359+0x72>
ffffffc0802032a4:	8b4e                	mv	s6,s3
ffffffc0802032a6:	4a05                	li	s4,1
ffffffc0802032a8:	8cea                	mv	s9,s10
ffffffc0802032aa:	8ace                	mv	s5,s3
ffffffc0802032ac:	033d0b63          	beq	s10,s3,ffffffc0802032e2 <.Lpcrel_hi359+0xa4>
ffffffc0802032b0:	000c4503          	lbu	a0,0(s8)
ffffffc0802032b4:	c919                	beqz	a0,ffffffc0802032ca <.Lpcrel_hi359+0x8c>
ffffffc0802032b6:	f8843503          	ld	a0,-120(s0)
ffffffc0802032ba:	6d14                	ld	a3,24(a0)
ffffffc0802032bc:	4611                	li	a2,4
ffffffc0802032be:	f9043503          	ld	a0,-112(s0)
ffffffc0802032c2:	f8043583          	ld	a1,-128(s0)
ffffffc0802032c6:	9682                	jalr	a3
ffffffc0802032c8:	ed19                	bnez	a0,ffffffc0802032e6 <.Lpcrel_hi359+0xa8>
ffffffc0802032ca:	edaa93e3          	bne	s5,s10,ffffffc080203190 <.Lpcrel_hi358+0x14>
ffffffc0802032ce:	4501                	li	a0,0
ffffffc0802032d0:	bdc1                	j	ffffffc0802031a0 <.Lpcrel_hi358+0x24>
ffffffc0802032d2:	8b4e                	mv	s6,s3
ffffffc0802032d4:	f7043483          	ld	s1,-144(s0)
ffffffc0802032d8:	4a05                	li	s4,1
ffffffc0802032da:	8cea                	mv	s9,s10
ffffffc0802032dc:	8ace                	mv	s5,s3
ffffffc0802032de:	fd3d19e3          	bne	s10,s3,ffffffc0802032b0 <.Lpcrel_hi359+0x72>
ffffffc0802032e2:	4501                	li	a0,0
ffffffc0802032e4:	a011                	j	ffffffc0802032e8 <.Lpcrel_hi359+0xaa>
ffffffc0802032e6:	4505                	li	a0,1
ffffffc0802032e8:	60aa                	ld	ra,136(sp)
ffffffc0802032ea:	640a                	ld	s0,128(sp)
ffffffc0802032ec:	74e6                	ld	s1,120(sp)
ffffffc0802032ee:	7946                	ld	s2,112(sp)
ffffffc0802032f0:	79a6                	ld	s3,104(sp)
ffffffc0802032f2:	7a06                	ld	s4,96(sp)
ffffffc0802032f4:	6ae6                	ld	s5,88(sp)
ffffffc0802032f6:	6b46                	ld	s6,80(sp)
ffffffc0802032f8:	6ba6                	ld	s7,72(sp)
ffffffc0802032fa:	6c06                	ld	s8,64(sp)
ffffffc0802032fc:	7ce2                	ld	s9,56(sp)
ffffffc0802032fe:	7d42                	ld	s10,48(sp)
ffffffc080203300:	7da2                	ld	s11,40(sp)
ffffffc080203302:	6149                	addi	sp,sp,144
ffffffc080203304:	8082                	ret

ffffffc080203306 <_ZN68_$LT$core..fmt..builders..PadAdapter$u20$as$u20$core..fmt..Write$GT$10write_char17h101f1c27774d7ea5E>:
ffffffc080203306:	7179                	addi	sp,sp,-48
ffffffc080203308:	f406                	sd	ra,40(sp)
ffffffc08020330a:	f022                	sd	s0,32(sp)
ffffffc08020330c:	ec26                	sd	s1,24(sp)
ffffffc08020330e:	e84a                	sd	s2,16(sp)
ffffffc080203310:	e44e                	sd	s3,8(sp)
ffffffc080203312:	e052                	sd	s4,0(sp)
ffffffc080203314:	1800                	addi	s0,sp,48
ffffffc080203316:	6904                	ld	s1,16(a0)
ffffffc080203318:	0004c603          	lbu	a2,0(s1)
ffffffc08020331c:	00053903          	ld	s2,0(a0)
ffffffc080203320:	00853983          	ld	s3,8(a0)
ffffffc080203324:	c61d                	beqz	a2,ffffffc080203352 <.Lpcrel_hi360+0x28>
ffffffc080203326:	0189b703          	ld	a4,24(s3)

ffffffc08020332a <.Lpcrel_hi360>:
ffffffc08020332a:	00001517          	auipc	a0,0x1
ffffffc08020332e:	d4650693          	addi	a3,a0,-698 # ffffffc080204070 <$d.90+0x8>
ffffffc080203332:	4611                	li	a2,4
ffffffc080203334:	854a                	mv	a0,s2
ffffffc080203336:	8a2e                	mv	s4,a1
ffffffc080203338:	85b6                	mv	a1,a3
ffffffc08020333a:	9702                	jalr	a4
ffffffc08020333c:	85d2                	mv	a1,s4
ffffffc08020333e:	c911                	beqz	a0,ffffffc080203352 <.Lpcrel_hi360+0x28>
ffffffc080203340:	4505                	li	a0,1
ffffffc080203342:	70a2                	ld	ra,40(sp)
ffffffc080203344:	7402                	ld	s0,32(sp)
ffffffc080203346:	64e2                	ld	s1,24(sp)
ffffffc080203348:	6942                	ld	s2,16(sp)
ffffffc08020334a:	69a2                	ld	s3,8(sp)
ffffffc08020334c:	6a02                	ld	s4,0(sp)
ffffffc08020334e:	6145                	addi	sp,sp,48
ffffffc080203350:	8082                	ret
ffffffc080203352:	0005851b          	sext.w	a0,a1
ffffffc080203356:	1559                	addi	a0,a0,-10
ffffffc080203358:	00153513          	seqz	a0,a0
ffffffc08020335c:	00a48023          	sb	a0,0(s1)
ffffffc080203360:	0209b783          	ld	a5,32(s3)
ffffffc080203364:	854a                	mv	a0,s2
ffffffc080203366:	70a2                	ld	ra,40(sp)
ffffffc080203368:	7402                	ld	s0,32(sp)
ffffffc08020336a:	64e2                	ld	s1,24(sp)
ffffffc08020336c:	6942                	ld	s2,16(sp)
ffffffc08020336e:	69a2                	ld	s3,8(sp)
ffffffc080203370:	6a02                	ld	s4,0(sp)
ffffffc080203372:	6145                	addi	sp,sp,48
ffffffc080203374:	8782                	jr	a5

ffffffc080203376 <_ZN4core3fmt5Write9write_fmt17hdf0d7bb2b0497698E>:
ffffffc080203376:	1141                	addi	sp,sp,-16
ffffffc080203378:	e406                	sd	ra,8(sp)
ffffffc08020337a:	e022                	sd	s0,0(sp)
ffffffc08020337c:	0800                	addi	s0,sp,16

ffffffc08020337e <.Lpcrel_hi361>:
ffffffc08020337e:	00002617          	auipc	a2,0x2
ffffffc080203382:	0da60613          	addi	a2,a2,218 # ffffffc080205458 <.Lanon.c308b1a5a0a97bdc8edd9b96ba25ee05.284>
ffffffc080203386:	86ae                	mv	a3,a1
ffffffc080203388:	85b2                	mv	a1,a2
ffffffc08020338a:	8636                	mv	a2,a3
ffffffc08020338c:	60a2                	ld	ra,8(sp)
ffffffc08020338e:	6402                	ld	s0,0(sp)
ffffffc080203390:	0141                	addi	sp,sp,16
ffffffc080203392:	00000317          	auipc	t1,0x0
ffffffc080203396:	a0430067          	jr	-1532(t1) # ffffffc080202d96 <_ZN4core3fmt5write17h49a560cace6c89d2E>

ffffffc08020339a <_ZN4core6result13unwrap_failed17h368883645868569cE>:
ffffffc08020339a:	7119                	addi	sp,sp,-128
ffffffc08020339c:	fc86                	sd	ra,120(sp)
ffffffc08020339e:	f8a2                	sd	s0,112(sp)
ffffffc0802033a0:	0100                	addi	s0,sp,128
ffffffc0802033a2:	f8a43023          	sd	a0,-128(s0)
ffffffc0802033a6:	02b00513          	li	a0,43
ffffffc0802033aa:	f8a43423          	sd	a0,-120(s0)
ffffffc0802033ae:	f8b43823          	sd	a1,-112(s0)
ffffffc0802033b2:	f8c43c23          	sd	a2,-104(s0)
ffffffc0802033b6:	f8040513          	addi	a0,s0,-128
ffffffc0802033ba:	fca43823          	sd	a0,-48(s0)

ffffffc0802033be <.Lpcrel_hi362>:
ffffffc0802033be:	00000517          	auipc	a0,0x0
ffffffc0802033c2:	98450513          	addi	a0,a0,-1660 # ffffffc080202d42 <_ZN44_$LT$$RF$T$u20$as$u20$core..fmt..Display$GT$3fmt17hefe420aa2149ea35E>
ffffffc0802033c6:	fca43c23          	sd	a0,-40(s0)
ffffffc0802033ca:	f9040513          	addi	a0,s0,-112
ffffffc0802033ce:	fea43023          	sd	a0,-32(s0)

ffffffc0802033d2 <.Lpcrel_hi363>:
ffffffc0802033d2:	00000517          	auipc	a0,0x0
ffffffc0802033d6:	98e50513          	addi	a0,a0,-1650 # ffffffc080202d60 <_ZN42_$LT$$RF$T$u20$as$u20$core..fmt..Debug$GT$3fmt17h9537dceab56d2f80E>
ffffffc0802033da:	fea43423          	sd	a0,-24(s0)

ffffffc0802033de <.Lpcrel_hi364>:
ffffffc0802033de:	00002517          	auipc	a0,0x2
ffffffc0802033e2:	05a50513          	addi	a0,a0,90 # ffffffc080205438 <.Lanon.c308b1a5a0a97bdc8edd9b96ba25ee05.283>
ffffffc0802033e6:	faa43023          	sd	a0,-96(s0)
ffffffc0802033ea:	4509                	li	a0,2
ffffffc0802033ec:	faa43423          	sd	a0,-88(s0)
ffffffc0802033f0:	fc043023          	sd	zero,-64(s0)
ffffffc0802033f4:	fd040593          	addi	a1,s0,-48
ffffffc0802033f8:	fab43823          	sd	a1,-80(s0)
ffffffc0802033fc:	faa43c23          	sd	a0,-72(s0)
ffffffc080203400:	fa040513          	addi	a0,s0,-96
ffffffc080203404:	85b6                	mv	a1,a3
ffffffc080203406:	fffff097          	auipc	ra,0xfffff
ffffffc08020340a:	01c080e7          	jalr	28(ra) # ffffffc080202422 <_ZN4core9panicking9panic_fmt17h11ec9af140fca503E>

ffffffc08020340e <_ZN4core3fmt3num3imp51_$LT$impl$u20$core..fmt..Display$u20$for$u20$u8$GT$3fmt17hadfe9ae40f4f8fc6E>:
ffffffc08020340e:	1141                	addi	sp,sp,-16
ffffffc080203410:	e406                	sd	ra,8(sp)
ffffffc080203412:	e022                	sd	s0,0(sp)
ffffffc080203414:	0800                	addi	s0,sp,16
ffffffc080203416:	00054503          	lbu	a0,0(a0)
ffffffc08020341a:	60a2                	ld	ra,8(sp)
ffffffc08020341c:	6402                	ld	s0,0(sp)
ffffffc08020341e:	0141                	addi	sp,sp,16
ffffffc080203420:	fffff317          	auipc	t1,0xfffff
ffffffc080203424:	08c30067          	jr	140(t1) # ffffffc0802024ac <_ZN4core3fmt3num3imp7fmt_u6417h5142f3088252957cE>

ffffffc080203428 <_ZN4core3fmt3num53_$LT$impl$u20$core..fmt..LowerHex$u20$for$u20$i64$GT$3fmt17h32e4bad511e5cf9eE>:
ffffffc080203428:	7175                	addi	sp,sp,-144
ffffffc08020342a:	e506                	sd	ra,136(sp)
ffffffc08020342c:	e122                	sd	s0,128(sp)
ffffffc08020342e:	0900                	addi	s0,sp,144
ffffffc080203430:	6108                	ld	a0,0(a0)
ffffffc080203432:	08100713          	li	a4,129
ffffffc080203436:	fef40613          	addi	a2,s0,-17
ffffffc08020343a:	4829                	li	a6,10
ffffffc08020343c:	a811                	j	ffffffc080203450 <_ZN4core3fmt3num53_$LT$impl$u20$core..fmt..LowerHex$u20$for$u20$i64$GT$3fmt17h32e4bad511e5cf9eE+0x28>
ffffffc08020343e:	05768713          	addi	a4,a3,87
ffffffc080203442:	8111                	srli	a0,a0,0x4
ffffffc080203444:	00e60023          	sb	a4,0(a2)
ffffffc080203448:	167d                	addi	a2,a2,-1
ffffffc08020344a:	fff78713          	addi	a4,a5,-1
ffffffc08020344e:	c909                	beqz	a0,ffffffc080203460 <_ZN4core3fmt3num53_$LT$impl$u20$core..fmt..LowerHex$u20$for$u20$i64$GT$3fmt17h32e4bad511e5cf9eE+0x38>
ffffffc080203450:	00f57693          	andi	a3,a0,15
ffffffc080203454:	87ba                	mv	a5,a4
ffffffc080203456:	ff06f4e3          	bgeu	a3,a6,ffffffc08020343e <_ZN4core3fmt3num53_$LT$impl$u20$core..fmt..LowerHex$u20$for$u20$i64$GT$3fmt17h32e4bad511e5cf9eE+0x16>
ffffffc08020345a:	03068713          	addi	a4,a3,48
ffffffc08020345e:	b7d5                	j	ffffffc080203442 <_ZN4core3fmt3num53_$LT$impl$u20$core..fmt..LowerHex$u20$for$u20$i64$GT$3fmt17h32e4bad511e5cf9eE+0x1a>
ffffffc080203460:	ffe78513          	addi	a0,a5,-2
ffffffc080203464:	08100613          	li	a2,129
ffffffc080203468:	02c57663          	bgeu	a0,a2,ffffffc080203494 <.Lpcrel_hi365>
ffffffc08020346c:	40e60733          	sub	a4,a2,a4
ffffffc080203470:	f7040693          	addi	a3,s0,-144
ffffffc080203474:	96aa                	add	a3,a3,a0

ffffffc080203476 <.Lpcrel_hi366>:
ffffffc080203476:	00002517          	auipc	a0,0x2
ffffffc08020347a:	1c250793          	addi	a5,a0,450 # ffffffc080205638 <.Lanon.3bf094dc287819aacaa24632947359b8.2>
ffffffc08020347e:	4609                	li	a2,2
ffffffc080203480:	852e                	mv	a0,a1
ffffffc080203482:	85be                	mv	a1,a5
ffffffc080203484:	fffff097          	auipc	ra,0xfffff
ffffffc080203488:	16a080e7          	jalr	362(ra) # ffffffc0802025ee <_ZN4core3fmt9Formatter12pad_integral17h8b1ffde32503eca3E>
ffffffc08020348c:	60aa                	ld	ra,136(sp)
ffffffc08020348e:	640a                	ld	s0,128(sp)
ffffffc080203490:	6149                	addi	sp,sp,144
ffffffc080203492:	8082                	ret

ffffffc080203494 <.Lpcrel_hi365>:
ffffffc080203494:	00002597          	auipc	a1,0x2
ffffffc080203498:	02458613          	addi	a2,a1,36 # ffffffc0802054b8 <.Lanon.c308b1a5a0a97bdc8edd9b96ba25ee05.312>
ffffffc08020349c:	08000593          	li	a1,128
ffffffc0802034a0:	fffff097          	auipc	ra,0xfffff
ffffffc0802034a4:	fe4080e7          	jalr	-28(ra) # ffffffc080202484 <_ZN4core5slice5index26slice_start_index_len_fail17h9a8c132d7bd51700E>

ffffffc0802034a8 <_ZN4core3fmt9Formatter26debug_struct_field3_finish17he8039d0e2eabc108E>:
ffffffc0802034a8:	7139                	addi	sp,sp,-64
ffffffc0802034aa:	fc06                	sd	ra,56(sp)
ffffffc0802034ac:	f822                	sd	s0,48(sp)
ffffffc0802034ae:	f426                	sd	s1,40(sp)
ffffffc0802034b0:	f04a                	sd	s2,32(sp)
ffffffc0802034b2:	ec4e                	sd	s3,24(sp)
ffffffc0802034b4:	e852                	sd	s4,16(sp)
ffffffc0802034b6:	0080                	addi	s0,sp,64
ffffffc0802034b8:	84aa                	mv	s1,a0
ffffffc0802034ba:	7518                	ld	a4,40(a0)
ffffffc0802034bc:	7108                	ld	a0,32(a0)
ffffffc0802034be:	6f18                	ld	a4,24(a4)
ffffffc0802034c0:	8936                	mv	s2,a3
ffffffc0802034c2:	89b2                	mv	s3,a2
ffffffc0802034c4:	8a2e                	mv	s4,a1

ffffffc0802034c6 <.Lpcrel_hi367>:
ffffffc0802034c6:	00001597          	auipc	a1,0x1
ffffffc0802034ca:	6ca58593          	addi	a1,a1,1738 # ffffffc080204b90 <.Lanon.c473fb1a9af64a93c76cfe2c383e01f6.75>
ffffffc0802034ce:	4625                	li	a2,9
ffffffc0802034d0:	9702                	jalr	a4
ffffffc0802034d2:	fc943023          	sd	s1,-64(s0)
ffffffc0802034d6:	fca40423          	sb	a0,-56(s0)
ffffffc0802034da:	fc0404a3          	sb	zero,-55(s0)

ffffffc0802034de <.Lpcrel_hi368>:
ffffffc0802034de:	00001517          	auipc	a0,0x1
ffffffc0802034e2:	b6e50593          	addi	a1,a0,-1170 # ffffffc08020404c <.Lanon.fad58de7366495db4650cfefac2fcd61.3+0x14>

ffffffc0802034e6 <.Lpcrel_hi369>:
ffffffc0802034e6:	ffffe517          	auipc	a0,0xffffe
ffffffc0802034ea:	09250713          	addi	a4,a0,146 # ffffffc080201578 <_ZN82_$LT$axhal..arch..riscv..context..GeneralRegisters$u20$as$u20$core..fmt..Debug$GT$3fmt17hb98b6a9ad014a72dE>
ffffffc0802034ee:	fc040513          	addi	a0,s0,-64
ffffffc0802034f2:	4611                	li	a2,4
ffffffc0802034f4:	86d2                	mv	a3,s4
ffffffc0802034f6:	00000097          	auipc	ra,0x0
ffffffc0802034fa:	a7e080e7          	jalr	-1410(ra) # ffffffc080202f74 <_ZN4core3fmt8builders11DebugStruct5field17h6ad11fbdee0221d3E>

ffffffc0802034fe <.Lpcrel_hi370>:
ffffffc0802034fe:	00001517          	auipc	a0,0x1
ffffffc080203502:	b7a50593          	addi	a1,a0,-1158 # ffffffc080204078 <$d.90+0x10>

ffffffc080203506 <.Lpcrel_hi371>:
ffffffc080203506:	ffffe517          	auipc	a0,0xffffe
ffffffc08020350a:	f7a50713          	addi	a4,a0,-134 # ffffffc080201480 <_ZN4core3fmt3num52_$LT$impl$u20$core..fmt..Debug$u20$for$u20$usize$GT$3fmt17h8a12040044249a2bE>
ffffffc08020350e:	fc040513          	addi	a0,s0,-64
ffffffc080203512:	4611                	li	a2,4
ffffffc080203514:	86ce                	mv	a3,s3
ffffffc080203516:	00000097          	auipc	ra,0x0
ffffffc08020351a:	a5e080e7          	jalr	-1442(ra) # ffffffc080202f74 <_ZN4core3fmt8builders11DebugStruct5field17h6ad11fbdee0221d3E>

ffffffc08020351e <.Lpcrel_hi372>:
ffffffc08020351e:	00001517          	auipc	a0,0x1
ffffffc080203522:	67b50593          	addi	a1,a0,1659 # ffffffc080204b99 <.Lanon.c473fb1a9af64a93c76cfe2c383e01f6.79>

ffffffc080203526 <.Lpcrel_hi373>:
ffffffc080203526:	ffffe517          	auipc	a0,0xffffe
ffffffc08020352a:	84c50713          	addi	a4,a0,-1972 # ffffffc080200d72 <_ZN42_$LT$$RF$T$u20$as$u20$core..fmt..Debug$GT$3fmt17hcd6d0c60a1777f17E>
ffffffc08020352e:	fc040513          	addi	a0,s0,-64
ffffffc080203532:	461d                	li	a2,7
ffffffc080203534:	86ca                	mv	a3,s2
ffffffc080203536:	00000097          	auipc	ra,0x0
ffffffc08020353a:	a3e080e7          	jalr	-1474(ra) # ffffffc080202f74 <_ZN4core3fmt8builders11DebugStruct5field17h6ad11fbdee0221d3E>
ffffffc08020353e:	fc944503          	lbu	a0,-55(s0)
ffffffc080203542:	fc844583          	lbu	a1,-56(s0)
ffffffc080203546:	c115                	beqz	a0,ffffffc08020356a <.Lpcrel_hi374+0xc>
ffffffc080203548:	4505                	li	a0,1
ffffffc08020354a:	ed85                	bnez	a1,ffffffc080203582 <.Lpcrel_hi375+0xc>
ffffffc08020354c:	fc043503          	ld	a0,-64(s0)
ffffffc080203550:	03454583          	lbu	a1,52(a0)
ffffffc080203554:	8991                	andi	a1,a1,4
ffffffc080203556:	ed89                	bnez	a1,ffffffc080203570 <.Lpcrel_hi374+0x12>
ffffffc080203558:	750c                	ld	a1,40(a0)
ffffffc08020355a:	7108                	ld	a0,32(a0)
ffffffc08020355c:	6d94                	ld	a3,24(a1)

ffffffc08020355e <.Lpcrel_hi374>:
ffffffc08020355e:	00002597          	auipc	a1,0x2
ffffffc080203562:	f3558593          	addi	a1,a1,-203 # ffffffc080205493 <.Lanon.c308b1a5a0a97bdc8edd9b96ba25ee05.294>
ffffffc080203566:	4609                	li	a2,2
ffffffc080203568:	a821                	j	ffffffc080203580 <.Lpcrel_hi375+0xa>
ffffffc08020356a:	00b03533          	snez	a0,a1
ffffffc08020356e:	a811                	j	ffffffc080203582 <.Lpcrel_hi375+0xc>
ffffffc080203570:	750c                	ld	a1,40(a0)
ffffffc080203572:	7108                	ld	a0,32(a0)
ffffffc080203574:	6d94                	ld	a3,24(a1)

ffffffc080203576 <.Lpcrel_hi375>:
ffffffc080203576:	00002597          	auipc	a1,0x2
ffffffc08020357a:	f1c58593          	addi	a1,a1,-228 # ffffffc080205492 <.Lanon.c308b1a5a0a97bdc8edd9b96ba25ee05.293>
ffffffc08020357e:	4605                	li	a2,1
ffffffc080203580:	9682                	jalr	a3
ffffffc080203582:	70e2                	ld	ra,56(sp)
ffffffc080203584:	7442                	ld	s0,48(sp)
ffffffc080203586:	74a2                	ld	s1,40(sp)
ffffffc080203588:	7902                	ld	s2,32(sp)
ffffffc08020358a:	69e2                	ld	s3,24(sp)
ffffffc08020358c:	6a42                	ld	s4,16(sp)
ffffffc08020358e:	6121                	addi	sp,sp,64
ffffffc080203590:	8082                	ret

ffffffc080203592 <_ZN4core3fmt9Formatter25debug_tuple_field1_finish17h7b601b839df38242E>:
ffffffc080203592:	7171                	addi	sp,sp,-176
ffffffc080203594:	f506                	sd	ra,168(sp)
ffffffc080203596:	f122                	sd	s0,160(sp)
ffffffc080203598:	ed26                	sd	s1,152(sp)
ffffffc08020359a:	e94a                	sd	s2,144(sp)
ffffffc08020359c:	e54e                	sd	s3,136(sp)
ffffffc08020359e:	e152                	sd	s4,128(sp)
ffffffc0802035a0:	fcd6                	sd	s5,120(sp)
ffffffc0802035a2:	f8da                	sd	s6,112(sp)
ffffffc0802035a4:	f4de                	sd	s7,104(sp)
ffffffc0802035a6:	f0e2                	sd	s8,96(sp)
ffffffc0802035a8:	1900                	addi	s0,sp,176
ffffffc0802035aa:	8aaa                	mv	s5,a0
ffffffc0802035ac:	02853b03          	ld	s6,40(a0)
ffffffc0802035b0:	02053b83          	ld	s7,32(a0)
ffffffc0802035b4:	018b3483          	ld	s1,24(s6)
ffffffc0802035b8:	89ba                	mv	s3,a4
ffffffc0802035ba:	8a36                	mv	s4,a3
ffffffc0802035bc:	855e                	mv	a0,s7
ffffffc0802035be:	9482                	jalr	s1
ffffffc0802035c0:	4905                	li	s2,1
ffffffc0802035c2:	cd11                	beqz	a0,ffffffc0802035de <_ZN4core3fmt9Formatter25debug_tuple_field1_finish17h7b601b839df38242E+0x4c>
ffffffc0802035c4:	854a                	mv	a0,s2
ffffffc0802035c6:	70aa                	ld	ra,168(sp)
ffffffc0802035c8:	740a                	ld	s0,160(sp)
ffffffc0802035ca:	64ea                	ld	s1,152(sp)
ffffffc0802035cc:	694a                	ld	s2,144(sp)
ffffffc0802035ce:	69aa                	ld	s3,136(sp)
ffffffc0802035d0:	6a0a                	ld	s4,128(sp)
ffffffc0802035d2:	7ae6                	ld	s5,120(sp)
ffffffc0802035d4:	7b46                	ld	s6,112(sp)
ffffffc0802035d6:	7ba6                	ld	s7,104(sp)
ffffffc0802035d8:	7c06                	ld	s8,96(sp)
ffffffc0802035da:	614d                	addi	sp,sp,176
ffffffc0802035dc:	8082                	ret
ffffffc0802035de:	034aec03          	lwu	s8,52(s5)
ffffffc0802035e2:	004c7513          	andi	a0,s8,4
ffffffc0802035e6:	ed19                	bnez	a0,ffffffc080203604 <.Lpcrel_hi377>

ffffffc0802035e8 <.Lpcrel_hi376>:
ffffffc0802035e8:	00002517          	auipc	a0,0x2
ffffffc0802035ec:	ead50593          	addi	a1,a0,-339 # ffffffc080205495 <.Lanon.c308b1a5a0a97bdc8edd9b96ba25ee05.295>
ffffffc0802035f0:	4605                	li	a2,1
ffffffc0802035f2:	4905                	li	s2,1
ffffffc0802035f4:	855e                	mv	a0,s7
ffffffc0802035f6:	9482                	jalr	s1
ffffffc0802035f8:	f571                	bnez	a0,ffffffc0802035c4 <_ZN4core3fmt9Formatter25debug_tuple_field1_finish17h7b601b839df38242E+0x32>
ffffffc0802035fa:	8552                	mv	a0,s4
ffffffc0802035fc:	85d6                	mv	a1,s5
ffffffc0802035fe:	9982                	jalr	s3
ffffffc080203600:	f171                	bnez	a0,ffffffc0802035c4 <_ZN4core3fmt9Formatter25debug_tuple_field1_finish17h7b601b839df38242E+0x32>
ffffffc080203602:	a849                	j	ffffffc080203694 <.Lpcrel_hi379+0xe>

ffffffc080203604 <.Lpcrel_hi377>:
ffffffc080203604:	00002517          	auipc	a0,0x2
ffffffc080203608:	e9250593          	addi	a1,a0,-366 # ffffffc080205496 <.Lanon.c308b1a5a0a97bdc8edd9b96ba25ee05.296>
ffffffc08020360c:	4609                	li	a2,2
ffffffc08020360e:	855e                	mv	a0,s7
ffffffc080203610:	9482                	jalr	s1
ffffffc080203612:	f94d                	bnez	a0,ffffffc0802035c4 <_ZN4core3fmt9Formatter25debug_tuple_field1_finish17h7b601b839df38242E+0x32>
ffffffc080203614:	4905                	li	s2,1
ffffffc080203616:	f72407a3          	sb	s2,-145(s0)
ffffffc08020361a:	f5743823          	sd	s7,-176(s0)
ffffffc08020361e:	f5643c23          	sd	s6,-168(s0)
ffffffc080203622:	f6f40513          	addi	a0,s0,-145
ffffffc080203626:	f6a43023          	sd	a0,-160(s0)
ffffffc08020362a:	030aa503          	lw	a0,48(s5)
ffffffc08020362e:	038ac583          	lbu	a1,56(s5)
ffffffc080203632:	000ab603          	ld	a2,0(s5)
ffffffc080203636:	008ab683          	ld	a3,8(s5)
ffffffc08020363a:	010ab703          	ld	a4,16(s5)
ffffffc08020363e:	018ab783          	ld	a5,24(s5)
ffffffc080203642:	fb842223          	sw	s8,-92(s0)
ffffffc080203646:	faa42023          	sw	a0,-96(s0)
ffffffc08020364a:	fab40423          	sb	a1,-88(s0)
ffffffc08020364e:	f6c43823          	sd	a2,-144(s0)
ffffffc080203652:	f6d43c23          	sd	a3,-136(s0)
ffffffc080203656:	f8e43023          	sd	a4,-128(s0)
ffffffc08020365a:	f8f43423          	sd	a5,-120(s0)
ffffffc08020365e:	f5040513          	addi	a0,s0,-176
ffffffc080203662:	f8a43823          	sd	a0,-112(s0)

ffffffc080203666 <.Lpcrel_hi378>:
ffffffc080203666:	00002517          	auipc	a0,0x2
ffffffc08020366a:	df250513          	addi	a0,a0,-526 # ffffffc080205458 <.Lanon.c308b1a5a0a97bdc8edd9b96ba25ee05.284>
ffffffc08020366e:	f8a43c23          	sd	a0,-104(s0)
ffffffc080203672:	f7040593          	addi	a1,s0,-144
ffffffc080203676:	8552                	mv	a0,s4
ffffffc080203678:	9982                	jalr	s3
ffffffc08020367a:	f529                	bnez	a0,ffffffc0802035c4 <_ZN4core3fmt9Formatter25debug_tuple_field1_finish17h7b601b839df38242E+0x32>
ffffffc08020367c:	f9843583          	ld	a1,-104(s0)
ffffffc080203680:	f9043503          	ld	a0,-112(s0)
ffffffc080203684:	6d94                	ld	a3,24(a1)

ffffffc080203686 <.Lpcrel_hi379>:
ffffffc080203686:	00002597          	auipc	a1,0x2
ffffffc08020368a:	e0a58593          	addi	a1,a1,-502 # ffffffc080205490 <.Lanon.c308b1a5a0a97bdc8edd9b96ba25ee05.289>
ffffffc08020368e:	4609                	li	a2,2
ffffffc080203690:	9682                	jalr	a3
ffffffc080203692:	f90d                	bnez	a0,ffffffc0802035c4 <_ZN4core3fmt9Formatter25debug_tuple_field1_finish17h7b601b839df38242E+0x32>
ffffffc080203694:	028ab583          	ld	a1,40(s5)
ffffffc080203698:	020ab503          	ld	a0,32(s5)
ffffffc08020369c:	6d94                	ld	a3,24(a1)

ffffffc08020369e <.Lpcrel_hi380>:
ffffffc08020369e:	00002597          	auipc	a1,0x2
ffffffc0802036a2:	c8258593          	addi	a1,a1,-894 # ffffffc080205320 <.Lanon.c308b1a5a0a97bdc8edd9b96ba25ee05.168>
ffffffc0802036a6:	4605                	li	a2,1
ffffffc0802036a8:	9682                	jalr	a3
ffffffc0802036aa:	892a                	mv	s2,a0
ffffffc0802036ac:	bf21                	j	ffffffc0802035c4 <_ZN4core3fmt9Formatter25debug_tuple_field1_finish17h7b601b839df38242E+0x32>

ffffffc0802036ae <_ZN43_$LT$char$u20$as$u20$core..fmt..Display$GT$3fmt17h739ba50f92d3daeeE>:
ffffffc0802036ae:	86ae                	mv	a3,a1
ffffffc0802036b0:	6190                	ld	a2,0(a1)
ffffffc0802036b2:	6998                	ld	a4,16(a1)
ffffffc0802036b4:	410c                	lw	a1,0(a0)
ffffffc0802036b6:	8e59                	or	a2,a2,a4
ffffffc0802036b8:	e609                	bnez	a2,ffffffc0802036c2 <_ZN43_$LT$char$u20$as$u20$core..fmt..Display$GT$3fmt17h739ba50f92d3daeeE+0x14>
ffffffc0802036ba:	7690                	ld	a2,40(a3)
ffffffc0802036bc:	7288                	ld	a0,32(a3)
ffffffc0802036be:	721c                	ld	a5,32(a2)
ffffffc0802036c0:	8782                	jr	a5
ffffffc0802036c2:	1101                	addi	sp,sp,-32
ffffffc0802036c4:	ec06                	sd	ra,24(sp)
ffffffc0802036c6:	e822                	sd	s0,16(sp)
ffffffc0802036c8:	1000                	addi	s0,sp,32
ffffffc0802036ca:	08000513          	li	a0,128
ffffffc0802036ce:	fe042623          	sw	zero,-20(s0)
ffffffc0802036d2:	00a5f663          	bgeu	a1,a0,ffffffc0802036de <_ZN43_$LT$char$u20$as$u20$core..fmt..Display$GT$3fmt17h739ba50f92d3daeeE+0x30>
ffffffc0802036d6:	feb40623          	sb	a1,-20(s0)
ffffffc0802036da:	4605                	li	a2,1
ffffffc0802036dc:	a069                	j	ffffffc080203766 <_ZN43_$LT$char$u20$as$u20$core..fmt..Display$GT$3fmt17h739ba50f92d3daeeE+0xb8>
ffffffc0802036de:	00b5d51b          	srliw	a0,a1,0xb
ffffffc0802036e2:	ed19                	bnez	a0,ffffffc080203700 <_ZN43_$LT$char$u20$as$u20$core..fmt..Display$GT$3fmt17h739ba50f92d3daeeE+0x52>
ffffffc0802036e4:	0065d513          	srli	a0,a1,0x6
ffffffc0802036e8:	0c056513          	ori	a0,a0,192
ffffffc0802036ec:	fea40623          	sb	a0,-20(s0)
ffffffc0802036f0:	03f5f513          	andi	a0,a1,63
ffffffc0802036f4:	08050513          	addi	a0,a0,128
ffffffc0802036f8:	fea406a3          	sb	a0,-19(s0)
ffffffc0802036fc:	4609                	li	a2,2
ffffffc0802036fe:	a0a5                	j	ffffffc080203766 <_ZN43_$LT$char$u20$as$u20$core..fmt..Display$GT$3fmt17h739ba50f92d3daeeE+0xb8>
ffffffc080203700:	0105d51b          	srliw	a0,a1,0x10
ffffffc080203704:	e515                	bnez	a0,ffffffc080203730 <_ZN43_$LT$char$u20$as$u20$core..fmt..Display$GT$3fmt17h739ba50f92d3daeeE+0x82>
ffffffc080203706:	00c5d513          	srli	a0,a1,0xc
ffffffc08020370a:	0e056513          	ori	a0,a0,224
ffffffc08020370e:	fea40623          	sb	a0,-20(s0)
ffffffc080203712:	03459513          	slli	a0,a1,0x34
ffffffc080203716:	9169                	srli	a0,a0,0x3a
ffffffc080203718:	08050513          	addi	a0,a0,128
ffffffc08020371c:	fea406a3          	sb	a0,-19(s0)
ffffffc080203720:	03f5f513          	andi	a0,a1,63
ffffffc080203724:	08050513          	addi	a0,a0,128
ffffffc080203728:	fea40723          	sb	a0,-18(s0)
ffffffc08020372c:	460d                	li	a2,3
ffffffc08020372e:	a825                	j	ffffffc080203766 <_ZN43_$LT$char$u20$as$u20$core..fmt..Display$GT$3fmt17h739ba50f92d3daeeE+0xb8>
ffffffc080203730:	0125d513          	srli	a0,a1,0x12
ffffffc080203734:	0f056513          	ori	a0,a0,240
ffffffc080203738:	fea40623          	sb	a0,-20(s0)
ffffffc08020373c:	02e59513          	slli	a0,a1,0x2e
ffffffc080203740:	9169                	srli	a0,a0,0x3a
ffffffc080203742:	08050513          	addi	a0,a0,128
ffffffc080203746:	fea406a3          	sb	a0,-19(s0)
ffffffc08020374a:	03459513          	slli	a0,a1,0x34
ffffffc08020374e:	9169                	srli	a0,a0,0x3a
ffffffc080203750:	08050513          	addi	a0,a0,128
ffffffc080203754:	fea40723          	sb	a0,-18(s0)
ffffffc080203758:	03f5f513          	andi	a0,a1,63
ffffffc08020375c:	08050513          	addi	a0,a0,128
ffffffc080203760:	fea407a3          	sb	a0,-17(s0)
ffffffc080203764:	4611                	li	a2,4
ffffffc080203766:	fec40593          	addi	a1,s0,-20
ffffffc08020376a:	8536                	mv	a0,a3
ffffffc08020376c:	fffff097          	auipc	ra,0xfffff
ffffffc080203770:	132080e7          	jalr	306(ra) # ffffffc08020289e <_ZN4core3fmt9Formatter3pad17heef45ae07d2799a9E>
ffffffc080203774:	60e2                	ld	ra,24(sp)
ffffffc080203776:	6442                	ld	s0,16(sp)
ffffffc080203778:	6105                	addi	sp,sp,32
ffffffc08020377a:	8082                	ret

ffffffc08020377c <_ZN43_$LT$log..NopLogger$u20$as$u20$log..Log$GT$7enabled17hcb1c979c1136b5b1E>:
ffffffc08020377c:	4501                	li	a0,0
ffffffc08020377e:	8082                	ret

ffffffc080203780 <_ZN43_$LT$log..NopLogger$u20$as$u20$log..Log$GT$3log17h7b1315fd42e962b3E>:
ffffffc080203780:	8082                	ret

ffffffc080203782 <_ZN3log13__private_api8log_impl17h8ff5c7eb18f9ca8bE>:
ffffffc080203782:	7135                	addi	sp,sp,-160
ffffffc080203784:	ed06                	sd	ra,152(sp)
ffffffc080203786:	e922                	sd	s0,144(sp)
ffffffc080203788:	e526                	sd	s1,136(sp)
ffffffc08020378a:	e14a                	sd	s2,128(sp)
ffffffc08020378c:	02863283          	ld	t0,40(a2)
ffffffc080203790:	02063303          	ld	t1,32(a2)
ffffffc080203794:	01863803          	ld	a6,24(a2)
ffffffc080203798:	01063883          	ld	a7,16(a2)
ffffffc08020379c:	00863383          	ld	t2,8(a2)
ffffffc0802037a0:	6210                	ld	a2,0(a2)
ffffffc0802037a2:	00053f83          	ld	t6,0(a0)
ffffffc0802037a6:	651c                	ld	a5,8(a0)
ffffffc0802037a8:	6918                	ld	a4,16(a0)
ffffffc0802037aa:	01853e03          	ld	t3,24(a0)
ffffffc0802037ae:	02053e83          	ld	t4,32(a0)
ffffffc0802037b2:	02853f03          	ld	t5,40(a0)

ffffffc0802037b6 <.Lpcrel_hi381>:
ffffffc0802037b6:	00046517          	auipc	a0,0x46
ffffffc0802037ba:	8d253503          	ld	a0,-1838(a0) # ffffffc080249088 <_ZN3log5STATE17h82db28ebc6c403a6E>
ffffffc0802037be:	4489                	li	s1,2
ffffffc0802037c0:	0230000f          	fence	r,rw
ffffffc0802037c4:	00950e63          	beq	a0,s1,ffffffc0802037e0 <.Lpcrel_hi382>

ffffffc0802037c8 <.Lpcrel_hi383>:
ffffffc0802037c8:	00002417          	auipc	s0,0x2
ffffffc0802037cc:	e2840413          	addi	s0,s0,-472 # ffffffc0802055f0 <.Lanon.f39d08480f7773be82bf088a10543c94.0>
ffffffc0802037d0:	4905                	li	s2,1
ffffffc0802037d2:	00950e63          	beq	a0,s1,ffffffc0802037ee <.Lpcrel_hi382+0xe>

ffffffc0802037d6 <.Lpcrel_hi384>:
ffffffc0802037d6:	00002517          	auipc	a0,0x2
ffffffc0802037da:	e4a50513          	addi	a0,a0,-438 # ffffffc080205620 <.Lanon.3cf6065fb3bc5c8a6dbd7ebdc6e6fed3.2>
ffffffc0802037de:	a809                	j	ffffffc0802037f0 <.Lpcrel_hi382+0x10>

ffffffc0802037e0 <.Lpcrel_hi382>:
ffffffc0802037e0:	00004417          	auipc	s0,0x4
ffffffc0802037e4:	86043403          	ld	s0,-1952(s0) # ffffffc080207040 <_ZN3log6LOGGER17ha416a0c03de1f01fE.1>
ffffffc0802037e8:	4905                	li	s2,1
ffffffc0802037ea:	fe9516e3          	bne	a0,s1,ffffffc0802037d6 <.Lpcrel_hi384>
ffffffc0802037ee:	4505                	li	a0,1
ffffffc0802037f0:	f82e                	sd	a1,48(sp)
ffffffc0802037f2:	fc32                	sd	a2,56(sp)
ffffffc0802037f4:	e09e                	sd	t2,64(sp)
ffffffc0802037f6:	e8fe                	sd	t6,80(sp)
ffffffc0802037f8:	ecbe                	sd	a5,88(sp)
ffffffc0802037fa:	f0ba                	sd	a4,96(sp)
ffffffc0802037fc:	f4f2                	sd	t3,104(sp)
ffffffc0802037fe:	f8f6                	sd	t4,112(sp)
ffffffc080203800:	fcfa                	sd	t5,120(sp)
ffffffc080203802:	e002                	sd	zero,0(sp)
ffffffc080203804:	f01a                	sd	t1,32(sp)
ffffffc080203806:	f416                	sd	t0,40(sp)
ffffffc080203808:	c4ca                	sw	s2,72(sp)
ffffffc08020380a:	c6b6                	sw	a3,76(sp)
ffffffc08020380c:	7010                	ld	a2,32(s0)
ffffffc08020380e:	e446                	sd	a7,8(sp)
ffffffc080203810:	e842                	sd	a6,16(sp)
ffffffc080203812:	ec02                	sd	zero,24(sp)
ffffffc080203814:	858a                	mv	a1,sp
ffffffc080203816:	9602                	jalr	a2
ffffffc080203818:	60ea                	ld	ra,152(sp)
ffffffc08020381a:	644a                	ld	s0,144(sp)
ffffffc08020381c:	64aa                	ld	s1,136(sp)
ffffffc08020381e:	690a                	ld	s2,128(sp)
ffffffc080203820:	610d                	addi	sp,sp,160
ffffffc080203822:	8082                	ret

ffffffc080203824 <_ZN67_$LT$memory_addr..addr..VirtAddr$u20$as$u20$core..fmt..LowerHex$GT$3fmt17he7894eafdcfde86cE>:
ffffffc080203824:	7119                	addi	sp,sp,-128
ffffffc080203826:	fc86                	sd	ra,120(sp)
ffffffc080203828:	f82a                	sd	a0,48(sp)

ffffffc08020382a <.Lpcrel_hi385>:
ffffffc08020382a:	00000517          	auipc	a0,0x0
ffffffc08020382e:	bfe50513          	addi	a0,a0,-1026 # ffffffc080203428 <_ZN4core3fmt3num53_$LT$impl$u20$core..fmt..LowerHex$u20$for$u20$i64$GT$3fmt17h32e4bad511e5cf9eE>
ffffffc080203832:	fc2a                	sd	a0,56(sp)
ffffffc080203834:	4509                	li	a0,2
ffffffc080203836:	e0aa                	sd	a0,64(sp)
ffffffc080203838:	e8aa                	sd	a0,80(sp)
ffffffc08020383a:	f082                	sd	zero,96(sp)
ffffffc08020383c:	4605                	li	a2,1
ffffffc08020383e:	02261513          	slli	a0,a2,0x22
ffffffc080203842:	02050513          	addi	a0,a0,32
ffffffc080203846:	f4aa                	sd	a0,104(sp)
ffffffc080203848:	450d                	li	a0,3
ffffffc08020384a:	06a10823          	sb	a0,112(sp)

ffffffc08020384e <.Lpcrel_hi386>:
ffffffc08020384e:	00002517          	auipc	a0,0x2
ffffffc080203852:	dda50513          	addi	a0,a0,-550 # ffffffc080205628 <.Lanon.3cf6065fb3bc5c8a6dbd7ebdc6e6fed3.3>
ffffffc080203856:	e02a                	sd	a0,0(sp)
ffffffc080203858:	0088                	addi	a0,sp,64
ffffffc08020385a:	f02a                	sd	a0,32(sp)
ffffffc08020385c:	1808                	addi	a0,sp,48
ffffffc08020385e:	e82a                	sd	a0,16(sp)
ffffffc080203860:	7188                	ld	a0,32(a1)
ffffffc080203862:	758c                	ld	a1,40(a1)
ffffffc080203864:	e432                	sd	a2,8(sp)
ffffffc080203866:	f432                	sd	a2,40(sp)
ffffffc080203868:	ec32                	sd	a2,24(sp)
ffffffc08020386a:	860a                	mv	a2,sp
ffffffc08020386c:	fffff097          	auipc	ra,0xfffff
ffffffc080203870:	52a080e7          	jalr	1322(ra) # ffffffc080202d96 <_ZN4core3fmt5write17h49a560cace6c89d2E>
ffffffc080203874:	70e6                	ld	ra,120(sp)
ffffffc080203876:	6109                	addi	sp,sp,128
ffffffc080203878:	8082                	ret

ffffffc08020387a <_ZN45_$LT$$RF$T$u20$as$u20$core..fmt..LowerHex$GT$3fmt17h365bd5f33063d547E>:
ffffffc08020387a:	7175                	addi	sp,sp,-144
ffffffc08020387c:	e506                	sd	ra,136(sp)
ffffffc08020387e:	6108                	ld	a0,0(a0)
ffffffc080203880:	6108                	ld	a0,0(a0)
ffffffc080203882:	08100713          	li	a4,129
ffffffc080203886:	08710613          	addi	a2,sp,135
ffffffc08020388a:	4829                	li	a6,10
ffffffc08020388c:	a811                	j	ffffffc0802038a0 <_ZN45_$LT$$RF$T$u20$as$u20$core..fmt..LowerHex$GT$3fmt17h365bd5f33063d547E+0x26>
ffffffc08020388e:	05768713          	addi	a4,a3,87
ffffffc080203892:	8111                	srli	a0,a0,0x4
ffffffc080203894:	00e60023          	sb	a4,0(a2)
ffffffc080203898:	167d                	addi	a2,a2,-1
ffffffc08020389a:	fff78713          	addi	a4,a5,-1
ffffffc08020389e:	c909                	beqz	a0,ffffffc0802038b0 <_ZN45_$LT$$RF$T$u20$as$u20$core..fmt..LowerHex$GT$3fmt17h365bd5f33063d547E+0x36>
ffffffc0802038a0:	00f57693          	andi	a3,a0,15
ffffffc0802038a4:	87ba                	mv	a5,a4
ffffffc0802038a6:	ff06f4e3          	bgeu	a3,a6,ffffffc08020388e <_ZN45_$LT$$RF$T$u20$as$u20$core..fmt..LowerHex$GT$3fmt17h365bd5f33063d547E+0x14>
ffffffc0802038aa:	03068713          	addi	a4,a3,48
ffffffc0802038ae:	b7d5                	j	ffffffc080203892 <_ZN45_$LT$$RF$T$u20$as$u20$core..fmt..LowerHex$GT$3fmt17h365bd5f33063d547E+0x18>
ffffffc0802038b0:	ffe78513          	addi	a0,a5,-2
ffffffc0802038b4:	08100613          	li	a2,129
ffffffc0802038b8:	02c57463          	bgeu	a0,a2,ffffffc0802038e0 <.Lpcrel_hi387>
ffffffc0802038bc:	40e60733          	sub	a4,a2,a4
ffffffc0802038c0:	0034                	addi	a3,sp,8
ffffffc0802038c2:	96aa                	add	a3,a3,a0

ffffffc0802038c4 <.Lpcrel_hi388>:
ffffffc0802038c4:	00002517          	auipc	a0,0x2
ffffffc0802038c8:	d7450793          	addi	a5,a0,-652 # ffffffc080205638 <.Lanon.3bf094dc287819aacaa24632947359b8.2>
ffffffc0802038cc:	4609                	li	a2,2
ffffffc0802038ce:	852e                	mv	a0,a1
ffffffc0802038d0:	85be                	mv	a1,a5
ffffffc0802038d2:	fffff097          	auipc	ra,0xfffff
ffffffc0802038d6:	d1c080e7          	jalr	-740(ra) # ffffffc0802025ee <_ZN4core3fmt9Formatter12pad_integral17h8b1ffde32503eca3E>
ffffffc0802038da:	60aa                	ld	ra,136(sp)
ffffffc0802038dc:	6149                	addi	sp,sp,144
ffffffc0802038de:	8082                	ret

ffffffc0802038e0 <.Lpcrel_hi387>:
ffffffc0802038e0:	00002597          	auipc	a1,0x2
ffffffc0802038e4:	bd858613          	addi	a2,a1,-1064 # ffffffc0802054b8 <.Lanon.c308b1a5a0a97bdc8edd9b96ba25ee05.312>
ffffffc0802038e8:	08000593          	li	a1,128
ffffffc0802038ec:	fffff097          	auipc	ra,0xfffff
ffffffc0802038f0:	b98080e7          	jalr	-1128(ra) # ffffffc080202484 <_ZN4core5slice5index26slice_start_index_len_fail17h9a8c132d7bd51700E>

ffffffc0802038f4 <_ZN67_$LT$page_table_entry..MappingFlags$u20$as$u20$core..fmt..Debug$GT$3fmt17h1873c2c625567776E>:
ffffffc0802038f4:	7151                	addi	sp,sp,-240
ffffffc0802038f6:	f586                	sd	ra,232(sp)
ffffffc0802038f8:	f1a2                	sd	s0,224(sp)
ffffffc0802038fa:	eda6                	sd	s1,216(sp)
ffffffc0802038fc:	e9ca                	sd	s2,208(sp)
ffffffc0802038fe:	e5ce                	sd	s3,200(sp)
ffffffc080203900:	e1d2                	sd	s4,192(sp)
ffffffc080203902:	fd56                	sd	s5,184(sp)
ffffffc080203904:	f95a                	sd	s6,176(sp)
ffffffc080203906:	f55e                	sd	s7,168(sp)
ffffffc080203908:	f162                	sd	s8,160(sp)
ffffffc08020390a:	ed66                	sd	s9,152(sp)
ffffffc08020390c:	e96a                	sd	s10,144(sp)
ffffffc08020390e:	e56e                	sd	s11,136(sp)
ffffffc080203910:	00053c03          	ld	s8,0(a0)
ffffffc080203914:	040c0163          	beqz	s8,ffffffc080203956 <.Lpcrel_hi397>
ffffffc080203918:	001c7513          	andi	a0,s8,1
ffffffc08020391c:	4a05                	li	s4,1
ffffffc08020391e:	e941                	bnez	a0,ffffffc0802039ae <.Lpcrel_hi399+0x2a>
ffffffc080203920:	002c7613          	andi	a2,s8,2

ffffffc080203924 <.Lpcrel_hi389>:
ffffffc080203924:	00002517          	auipc	a0,0x2
ffffffc080203928:	d2c50513          	addi	a0,a0,-724 # ffffffc080205650 <.Lanon.1e7a60fb590cfffa23d3ab7e970b6ed2.7>
ffffffc08020392c:	ea49                	bnez	a2,ffffffc0802039be <.Lpcrel_hi390+0xc>
ffffffc08020392e:	004c7613          	andi	a2,s8,4
ffffffc080203932:	ea59                	bnez	a2,ffffffc0802039c8 <.Lpcrel_hi390+0x16>
ffffffc080203934:	008c7613          	andi	a2,s8,8
ffffffc080203938:	ee51                	bnez	a2,ffffffc0802039d4 <.Lpcrel_hi390+0x22>
ffffffc08020393a:	010c7613          	andi	a2,s8,16
ffffffc08020393e:	e24d                	bnez	a2,ffffffc0802039e0 <.Lpcrel_hi390+0x2e>
ffffffc080203940:	020c7613          	andi	a2,s8,32
ffffffc080203944:	e645                	bnez	a2,ffffffc0802039ec <.Lpcrel_hi390+0x3a>
ffffffc080203946:	0285b903          	ld	s2,40(a1)
ffffffc08020394a:	0205ba83          	ld	s5,32(a1)
ffffffc08020394e:	01893b83          	ld	s7,24(s2)
ffffffc080203952:	e162                	sd	s8,128(sp)
ffffffc080203954:	aaa9                	j	ffffffc080203aae <.Lpcrel_hi394>

ffffffc080203956 <.Lpcrel_hi397>:
ffffffc080203956:	00002517          	auipc	a0,0x2
ffffffc08020395a:	87a50513          	addi	a0,a0,-1926 # ffffffc0802051d0 <.Lanon.427a789f18ce83ac0f31c2f7c1e7e09c.18+0x12>
ffffffc08020395e:	fc2a                	sd	a0,56(sp)

ffffffc080203960 <.Lpcrel_hi398>:
ffffffc080203960:	00000517          	auipc	a0,0x0
ffffffc080203964:	ac850513          	addi	a0,a0,-1336 # ffffffc080203428 <_ZN4core3fmt3num53_$LT$impl$u20$core..fmt..LowerHex$u20$for$u20$i64$GT$3fmt17h32e4bad511e5cf9eE>
ffffffc080203968:	e0aa                	sd	a0,64(sp)
ffffffc08020396a:	4509                	li	a0,2
ffffffc08020396c:	e4aa                	sd	a0,72(sp)
ffffffc08020396e:	ecaa                	sd	a0,88(sp)
ffffffc080203970:	f482                	sd	zero,104(sp)
ffffffc080203972:	4605                	li	a2,1
ffffffc080203974:	02261513          	slli	a0,a2,0x22
ffffffc080203978:	02050513          	addi	a0,a0,32
ffffffc08020397c:	f8aa                	sd	a0,112(sp)
ffffffc08020397e:	450d                	li	a0,3
ffffffc080203980:	06a10c23          	sb	a0,120(sp)

ffffffc080203984 <.Lpcrel_hi399>:
ffffffc080203984:	00001517          	auipc	a0,0x1
ffffffc080203988:	80c50513          	addi	a0,a0,-2036 # ffffffc080204190 <$d.102+0x10>
ffffffc08020398c:	e42a                	sd	a0,8(sp)
ffffffc08020398e:	00a8                	addi	a0,sp,72
ffffffc080203990:	f42a                	sd	a0,40(sp)
ffffffc080203992:	1828                	addi	a0,sp,56
ffffffc080203994:	ec2a                	sd	a0,24(sp)
ffffffc080203996:	7188                	ld	a0,32(a1)
ffffffc080203998:	758c                	ld	a1,40(a1)
ffffffc08020399a:	e832                	sd	a2,16(sp)
ffffffc08020399c:	f832                	sd	a2,48(sp)
ffffffc08020399e:	f032                	sd	a2,32(sp)
ffffffc0802039a0:	0030                	addi	a2,sp,8
ffffffc0802039a2:	fffff097          	auipc	ra,0xfffff
ffffffc0802039a6:	3f4080e7          	jalr	1012(ra) # ffffffc080202d96 <_ZN4core3fmt5write17h49a560cace6c89d2E>
ffffffc0802039aa:	8a2a                	mv	s4,a0
ffffffc0802039ac:	aa81                	j	ffffffc080203afc <.Lpcrel_hi396+0x2c>
ffffffc0802039ae:	5479                	li	s0,-2
ffffffc0802039b0:	4611                	li	a2,4

ffffffc0802039b2 <.Lpcrel_hi390>:
ffffffc0802039b2:	00002517          	auipc	a0,0x2
ffffffc0802039b6:	c9e50513          	addi	a0,a0,-866 # ffffffc080205650 <.Lanon.1e7a60fb590cfffa23d3ab7e970b6ed2.7>
ffffffc0802039ba:	4485                	li	s1,1
ffffffc0802039bc:	a835                	j	ffffffc0802039f8 <.Lpcrel_hi390+0x46>
ffffffc0802039be:	0561                	addi	a0,a0,24
ffffffc0802039c0:	5475                	li	s0,-3
ffffffc0802039c2:	4615                	li	a2,5
ffffffc0802039c4:	4489                	li	s1,2
ffffffc0802039c6:	a80d                	j	ffffffc0802039f8 <.Lpcrel_hi390+0x46>
ffffffc0802039c8:	03050513          	addi	a0,a0,48
ffffffc0802039cc:	546d                	li	s0,-5
ffffffc0802039ce:	461d                	li	a2,7
ffffffc0802039d0:	448d                	li	s1,3
ffffffc0802039d2:	a01d                	j	ffffffc0802039f8 <.Lpcrel_hi390+0x46>
ffffffc0802039d4:	04850513          	addi	a0,a0,72
ffffffc0802039d8:	545d                	li	s0,-9
ffffffc0802039da:	4491                	li	s1,4
ffffffc0802039dc:	4611                	li	a2,4
ffffffc0802039de:	a829                	j	ffffffc0802039f8 <.Lpcrel_hi390+0x46>
ffffffc0802039e0:	06050513          	addi	a0,a0,96
ffffffc0802039e4:	543d                	li	s0,-17
ffffffc0802039e6:	4619                	li	a2,6
ffffffc0802039e8:	4495                	li	s1,5
ffffffc0802039ea:	a039                	j	ffffffc0802039f8 <.Lpcrel_hi390+0x46>
ffffffc0802039ec:	07850513          	addi	a0,a0,120
ffffffc0802039f0:	fdf00413          	li	s0,-33
ffffffc0802039f4:	4621                	li	a2,8
ffffffc0802039f6:	4499                	li	s1,6
ffffffc0802039f8:	0285b903          	ld	s2,40(a1)
ffffffc0802039fc:	6114                	ld	a3,0(a0)
ffffffc0802039fe:	0205ba83          	ld	s5,32(a1)
ffffffc080203a02:	01893b83          	ld	s7,24(s2)
ffffffc080203a06:	8556                	mv	a0,s5
ffffffc080203a08:	85b6                	mv	a1,a3
ffffffc080203a0a:	9b82                	jalr	s7
ffffffc080203a0c:	e965                	bnez	a0,ffffffc080203afc <.Lpcrel_hi396+0x2c>
ffffffc080203a0e:	008c7cb3          	and	s9,s8,s0
ffffffc080203a12:	4695                	li	a3,5
ffffffc080203a14:	4661                	li	a2,24

ffffffc080203a16 <.Lpcrel_hi391>:
ffffffc080203a16:	00002517          	auipc	a0,0x2
ffffffc080203a1a:	c3a50d93          	addi	s11,a0,-966 # ffffffc080205650 <.Lanon.1e7a60fb590cfffa23d3ab7e970b6ed2.7>
ffffffc080203a1e:	4d19                	li	s10,6

ffffffc080203a20 <.Lpcrel_hi392>:
ffffffc080203a20:	00002517          	auipc	a0,0x2
ffffffc080203a24:	c1a50593          	addi	a1,a0,-998 # ffffffc08020563a <.Lanon.3bf094dc287819aacaa24632947359b8.3>
ffffffc080203a28:	0696e863          	bltu	a3,s1,ffffffc080203a98 <.Lpcrel_hi392+0x78>
ffffffc080203a2c:	0c0c8663          	beqz	s9,ffffffc080203af8 <.Lpcrel_hi396+0x28>
ffffffc080203a30:	02c48733          	mul	a4,s1,a2
ffffffc080203a34:	976e                	add	a4,a4,s11
ffffffc080203a36:	01870513          	addi	a0,a4,24
ffffffc080203a3a:	8626                	mv	a2,s1
ffffffc080203a3c:	a811                	j	ffffffc080203a50 <.Lpcrel_hi392+0x30>
ffffffc080203a3e:	00563613          	sltiu	a2,a2,5
ffffffc080203a42:	40c00733          	neg	a4,a2
ffffffc080203a46:	8f69                	and	a4,a4,a0
ffffffc080203a48:	0561                	addi	a0,a0,24
ffffffc080203a4a:	8626                	mv	a2,s1
ffffffc080203a4c:	05a48663          	beq	s1,s10,ffffffc080203a98 <.Lpcrel_hi392+0x78>
ffffffc080203a50:	6700                	ld	s0,8(a4)
ffffffc080203a52:	00160493          	addi	s1,a2,1
ffffffc080203a56:	d465                	beqz	s0,ffffffc080203a3e <.Lpcrel_hi392+0x1e>
ffffffc080203a58:	01073983          	ld	s3,16(a4)
ffffffc080203a5c:	0199f6b3          	and	a3,s3,s9
ffffffc080203a60:	def9                	beqz	a3,ffffffc080203a3e <.Lpcrel_hi392+0x1e>
ffffffc080203a62:	013c76b3          	and	a3,s8,s3
ffffffc080203a66:	fd369ce3          	bne	a3,s3,ffffffc080203a3e <.Lpcrel_hi392+0x1e>
ffffffc080203a6a:	8a4a                	mv	s4,s2
ffffffc080203a6c:	00073b03          	ld	s6,0(a4)
ffffffc080203a70:	460d                	li	a2,3
ffffffc080203a72:	8556                	mv	a0,s5
ffffffc080203a74:	892e                	mv	s2,a1
ffffffc080203a76:	9b82                	jalr	s7
ffffffc080203a78:	e155                	bnez	a0,ffffffc080203b1c <.Lpcrel_hi396+0x4c>
ffffffc080203a7a:	fff9c513          	not	a0,s3
ffffffc080203a7e:	00acfcb3          	and	s9,s9,a0
ffffffc080203a82:	8556                	mv	a0,s5
ffffffc080203a84:	85da                	mv	a1,s6
ffffffc080203a86:	8622                	mv	a2,s0
ffffffc080203a88:	9b82                	jalr	s7
ffffffc080203a8a:	4695                	li	a3,5
ffffffc080203a8c:	4661                	li	a2,24
ffffffc080203a8e:	85ca                	mv	a1,s2
ffffffc080203a90:	8952                	mv	s2,s4
ffffffc080203a92:	4a05                	li	s4,1
ffffffc080203a94:	d951                	beqz	a0,ffffffc080203a28 <.Lpcrel_hi392+0x8>
ffffffc080203a96:	a09d                	j	ffffffc080203afc <.Lpcrel_hi396+0x2c>
ffffffc080203a98:	e166                	sd	s9,128(sp)
ffffffc080203a9a:	060c8063          	beqz	s9,ffffffc080203afa <.Lpcrel_hi396+0x2a>

ffffffc080203a9e <.Lpcrel_hi393>:
ffffffc080203a9e:	00002517          	auipc	a0,0x2
ffffffc080203aa2:	b9c50593          	addi	a1,a0,-1124 # ffffffc08020563a <.Lanon.3bf094dc287819aacaa24632947359b8.3>
ffffffc080203aa6:	460d                	li	a2,3
ffffffc080203aa8:	8556                	mv	a0,s5
ffffffc080203aaa:	9b82                	jalr	s7
ffffffc080203aac:	e921                	bnez	a0,ffffffc080203afc <.Lpcrel_hi396+0x2c>

ffffffc080203aae <.Lpcrel_hi394>:
ffffffc080203aae:	00002517          	auipc	a0,0x2
ffffffc080203ab2:	b8a50593          	addi	a1,a0,-1142 # ffffffc080205638 <.Lanon.3bf094dc287819aacaa24632947359b8.2>
ffffffc080203ab6:	4609                	li	a2,2
ffffffc080203ab8:	8556                	mv	a0,s5
ffffffc080203aba:	9b82                	jalr	s7
ffffffc080203abc:	e121                	bnez	a0,ffffffc080203afc <.Lpcrel_hi396+0x2c>
ffffffc080203abe:	0108                	addi	a0,sp,128
ffffffc080203ac0:	fc2a                	sd	a0,56(sp)
ffffffc080203ac2:	1828                	addi	a0,sp,56
ffffffc080203ac4:	e42a                	sd	a0,8(sp)

ffffffc080203ac6 <.Lpcrel_hi395>:
ffffffc080203ac6:	00000517          	auipc	a0,0x0
ffffffc080203aca:	db450513          	addi	a0,a0,-588 # ffffffc08020387a <_ZN45_$LT$$RF$T$u20$as$u20$core..fmt..LowerHex$GT$3fmt17h365bd5f33063d547E>
ffffffc080203ace:	e82a                	sd	a0,16(sp)

ffffffc080203ad0 <.Lpcrel_hi396>:
ffffffc080203ad0:	00000517          	auipc	a0,0x0
ffffffc080203ad4:	6c050513          	addi	a0,a0,1728 # ffffffc080204190 <$d.102+0x10>
ffffffc080203ad8:	e4aa                	sd	a0,72(sp)
ffffffc080203ada:	4505                	li	a0,1
ffffffc080203adc:	e8aa                	sd	a0,80(sp)
ffffffc080203ade:	f482                	sd	zero,104(sp)
ffffffc080203ae0:	002c                	addi	a1,sp,8
ffffffc080203ae2:	ecae                	sd	a1,88(sp)
ffffffc080203ae4:	f0aa                	sd	a0,96(sp)
ffffffc080203ae6:	00b0                	addi	a2,sp,72
ffffffc080203ae8:	8556                	mv	a0,s5
ffffffc080203aea:	85ca                	mv	a1,s2
ffffffc080203aec:	fffff097          	auipc	ra,0xfffff
ffffffc080203af0:	2aa080e7          	jalr	682(ra) # ffffffc080202d96 <_ZN4core3fmt5write17h49a560cace6c89d2E>
ffffffc080203af4:	c119                	beqz	a0,ffffffc080203afa <.Lpcrel_hi396+0x2a>
ffffffc080203af6:	a019                	j	ffffffc080203afc <.Lpcrel_hi396+0x2c>
ffffffc080203af8:	e102                	sd	zero,128(sp)
ffffffc080203afa:	4a01                	li	s4,0
ffffffc080203afc:	8552                	mv	a0,s4
ffffffc080203afe:	70ae                	ld	ra,232(sp)
ffffffc080203b00:	740e                	ld	s0,224(sp)
ffffffc080203b02:	64ee                	ld	s1,216(sp)
ffffffc080203b04:	694e                	ld	s2,208(sp)
ffffffc080203b06:	69ae                	ld	s3,200(sp)
ffffffc080203b08:	6a0e                	ld	s4,192(sp)
ffffffc080203b0a:	7aea                	ld	s5,184(sp)
ffffffc080203b0c:	7b4a                	ld	s6,176(sp)
ffffffc080203b0e:	7baa                	ld	s7,168(sp)
ffffffc080203b10:	7c0a                	ld	s8,160(sp)
ffffffc080203b12:	6cea                	ld	s9,152(sp)
ffffffc080203b14:	6d4a                	ld	s10,144(sp)
ffffffc080203b16:	6daa                	ld	s11,136(sp)
ffffffc080203b18:	616d                	addi	sp,sp,240
ffffffc080203b1a:	8082                	ret
ffffffc080203b1c:	4a05                	li	s4,1
ffffffc080203b1e:	bff9                	j	ffffffc080203afc <.Lpcrel_hi396+0x2c>

ffffffc080203b20 <memcpy>:
ffffffc080203b20:	1141                	addi	sp,sp,-16
ffffffc080203b22:	e406                	sd	ra,8(sp)
ffffffc080203b24:	e022                	sd	s0,0(sp)
ffffffc080203b26:	0800                	addi	s0,sp,16
ffffffc080203b28:	60a2                	ld	ra,8(sp)
ffffffc080203b2a:	6402                	ld	s0,0(sp)
ffffffc080203b2c:	0141                	addi	sp,sp,16
ffffffc080203b2e:	00000317          	auipc	t1,0x0
ffffffc080203b32:	00830067          	jr	8(t1) # ffffffc080203b36 <_ZN17compiler_builtins3mem6memcpy17ha62f30a1264ab51cE>

ffffffc080203b36 <_ZN17compiler_builtins3mem6memcpy17ha62f30a1264ab51cE>:
ffffffc080203b36:	1141                	addi	sp,sp,-16
ffffffc080203b38:	e406                	sd	ra,8(sp)
ffffffc080203b3a:	e022                	sd	s0,0(sp)
ffffffc080203b3c:	0800                	addi	s0,sp,16
ffffffc080203b3e:	46c1                	li	a3,16
ffffffc080203b40:	06d66b63          	bltu	a2,a3,ffffffc080203bb6 <_ZN17compiler_builtins3mem6memcpy17ha62f30a1264ab51cE+0x80>
ffffffc080203b44:	40a006bb          	negw	a3,a0
ffffffc080203b48:	0076f813          	andi	a6,a3,7
ffffffc080203b4c:	010503b3          	add	t2,a0,a6
ffffffc080203b50:	00080c63          	beqz	a6,ffffffc080203b68 <_ZN17compiler_builtins3mem6memcpy17ha62f30a1264ab51cE+0x32>
ffffffc080203b54:	87aa                	mv	a5,a0
ffffffc080203b56:	86ae                	mv	a3,a1
ffffffc080203b58:	0006c703          	lbu	a4,0(a3)
ffffffc080203b5c:	00e78023          	sb	a4,0(a5)
ffffffc080203b60:	0785                	addi	a5,a5,1
ffffffc080203b62:	0685                	addi	a3,a3,1
ffffffc080203b64:	fe77eae3          	bltu	a5,t2,ffffffc080203b58 <_ZN17compiler_builtins3mem6memcpy17ha62f30a1264ab51cE+0x22>
ffffffc080203b68:	010588b3          	add	a7,a1,a6
ffffffc080203b6c:	41060833          	sub	a6,a2,a6
ffffffc080203b70:	ff887293          	andi	t0,a6,-8
ffffffc080203b74:	0078f593          	andi	a1,a7,7
ffffffc080203b78:	005386b3          	add	a3,t2,t0
ffffffc080203b7c:	c1a1                	beqz	a1,ffffffc080203bbc <_ZN17compiler_builtins3mem6memcpy17ha62f30a1264ab51cE+0x86>
ffffffc080203b7e:	04505963          	blez	t0,ffffffc080203bd0 <_ZN17compiler_builtins3mem6memcpy17ha62f30a1264ab51cE+0x9a>
ffffffc080203b82:	00389593          	slli	a1,a7,0x3
ffffffc080203b86:	0385f313          	andi	t1,a1,56
ffffffc080203b8a:	ff88f793          	andi	a5,a7,-8
ffffffc080203b8e:	6390                	ld	a2,0(a5)
ffffffc080203b90:	40b005bb          	negw	a1,a1
ffffffc080203b94:	0385fe13          	andi	t3,a1,56
ffffffc080203b98:	07a1                	addi	a5,a5,8
ffffffc080203b9a:	6398                	ld	a4,0(a5)
ffffffc080203b9c:	00665633          	srl	a2,a2,t1
ffffffc080203ba0:	01c715b3          	sll	a1,a4,t3
ffffffc080203ba4:	8dd1                	or	a1,a1,a2
ffffffc080203ba6:	00b3b023          	sd	a1,0(t2) # ffffffffc0801000 <_ebss+0x3f405b7000>
ffffffc080203baa:	03a1                	addi	t2,t2,8
ffffffc080203bac:	07a1                	addi	a5,a5,8
ffffffc080203bae:	863a                	mv	a2,a4
ffffffc080203bb0:	fed3e5e3          	bltu	t2,a3,ffffffc080203b9a <_ZN17compiler_builtins3mem6memcpy17ha62f30a1264ab51cE+0x64>
ffffffc080203bb4:	a831                	j	ffffffc080203bd0 <_ZN17compiler_builtins3mem6memcpy17ha62f30a1264ab51cE+0x9a>
ffffffc080203bb6:	86aa                	mv	a3,a0
ffffffc080203bb8:	e20d                	bnez	a2,ffffffc080203bda <_ZN17compiler_builtins3mem6memcpy17ha62f30a1264ab51cE+0xa4>
ffffffc080203bba:	a80d                	j	ffffffc080203bec <_ZN17compiler_builtins3mem6memcpy17ha62f30a1264ab51cE+0xb6>
ffffffc080203bbc:	00505a63          	blez	t0,ffffffc080203bd0 <_ZN17compiler_builtins3mem6memcpy17ha62f30a1264ab51cE+0x9a>
ffffffc080203bc0:	85c6                	mv	a1,a7
ffffffc080203bc2:	6190                	ld	a2,0(a1)
ffffffc080203bc4:	00c3b023          	sd	a2,0(t2)
ffffffc080203bc8:	03a1                	addi	t2,t2,8
ffffffc080203bca:	05a1                	addi	a1,a1,8
ffffffc080203bcc:	fed3ebe3          	bltu	t2,a3,ffffffc080203bc2 <_ZN17compiler_builtins3mem6memcpy17ha62f30a1264ab51cE+0x8c>
ffffffc080203bd0:	005885b3          	add	a1,a7,t0
ffffffc080203bd4:	00787613          	andi	a2,a6,7
ffffffc080203bd8:	ca11                	beqz	a2,ffffffc080203bec <_ZN17compiler_builtins3mem6memcpy17ha62f30a1264ab51cE+0xb6>
ffffffc080203bda:	9636                	add	a2,a2,a3
ffffffc080203bdc:	0005c703          	lbu	a4,0(a1)
ffffffc080203be0:	00e68023          	sb	a4,0(a3)
ffffffc080203be4:	0685                	addi	a3,a3,1
ffffffc080203be6:	0585                	addi	a1,a1,1
ffffffc080203be8:	fec6eae3          	bltu	a3,a2,ffffffc080203bdc <_ZN17compiler_builtins3mem6memcpy17ha62f30a1264ab51cE+0xa6>
ffffffc080203bec:	60a2                	ld	ra,8(sp)
ffffffc080203bee:	6402                	ld	s0,0(sp)
ffffffc080203bf0:	0141                	addi	sp,sp,16
ffffffc080203bf2:	8082                	ret

ffffffc080203bf4 <_ZN17compiler_builtins3mem6memset17hb3cc3e7988f20252E>:
ffffffc080203bf4:	1141                	addi	sp,sp,-16
ffffffc080203bf6:	e406                	sd	ra,8(sp)
ffffffc080203bf8:	e022                	sd	s0,0(sp)
ffffffc080203bfa:	0800                	addi	s0,sp,16
ffffffc080203bfc:	46c1                	li	a3,16
ffffffc080203bfe:	04d66a63          	bltu	a2,a3,ffffffc080203c52 <_ZN17compiler_builtins3mem6memset17hb3cc3e7988f20252E+0x5e>
ffffffc080203c02:	40a006bb          	negw	a3,a0
ffffffc080203c06:	8a9d                	andi	a3,a3,7
ffffffc080203c08:	00d50733          	add	a4,a0,a3
ffffffc080203c0c:	c699                	beqz	a3,ffffffc080203c1a <_ZN17compiler_builtins3mem6memset17hb3cc3e7988f20252E+0x26>
ffffffc080203c0e:	87aa                	mv	a5,a0
ffffffc080203c10:	00b78023          	sb	a1,0(a5)
ffffffc080203c14:	0785                	addi	a5,a5,1
ffffffc080203c16:	fee7ede3          	bltu	a5,a4,ffffffc080203c10 <_ZN17compiler_builtins3mem6memset17hb3cc3e7988f20252E+0x1c>
ffffffc080203c1a:	40d608b3          	sub	a7,a2,a3
ffffffc080203c1e:	ff88f793          	andi	a5,a7,-8
ffffffc080203c22:	00f706b3          	add	a3,a4,a5
ffffffc080203c26:	02f05263          	blez	a5,ffffffc080203c4a <_ZN17compiler_builtins3mem6memset17hb3cc3e7988f20252E+0x56>
ffffffc080203c2a:	03859813          	slli	a6,a1,0x38
ffffffc080203c2e:	101017b7          	lui	a5,0x10101
ffffffc080203c32:	0792                	slli	a5,a5,0x4
ffffffc080203c34:	10078793          	addi	a5,a5,256 # 10101100 <_percpu_load_end+0x101010f7>
ffffffc080203c38:	02f83633          	mulhu	a2,a6,a5
ffffffc080203c3c:	02061793          	slli	a5,a2,0x20
ffffffc080203c40:	8fd1                	or	a5,a5,a2
ffffffc080203c42:	e31c                	sd	a5,0(a4)
ffffffc080203c44:	0721                	addi	a4,a4,8
ffffffc080203c46:	fed76ee3          	bltu	a4,a3,ffffffc080203c42 <_ZN17compiler_builtins3mem6memset17hb3cc3e7988f20252E+0x4e>
ffffffc080203c4a:	0078f613          	andi	a2,a7,7
ffffffc080203c4e:	e601                	bnez	a2,ffffffc080203c56 <_ZN17compiler_builtins3mem6memset17hb3cc3e7988f20252E+0x62>
ffffffc080203c50:	a809                	j	ffffffc080203c62 <_ZN17compiler_builtins3mem6memset17hb3cc3e7988f20252E+0x6e>
ffffffc080203c52:	86aa                	mv	a3,a0
ffffffc080203c54:	c619                	beqz	a2,ffffffc080203c62 <_ZN17compiler_builtins3mem6memset17hb3cc3e7988f20252E+0x6e>
ffffffc080203c56:	9636                	add	a2,a2,a3
ffffffc080203c58:	00b68023          	sb	a1,0(a3)
ffffffc080203c5c:	0685                	addi	a3,a3,1
ffffffc080203c5e:	fec6ede3          	bltu	a3,a2,ffffffc080203c58 <_ZN17compiler_builtins3mem6memset17hb3cc3e7988f20252E+0x64>
ffffffc080203c62:	60a2                	ld	ra,8(sp)
ffffffc080203c64:	6402                	ld	s0,0(sp)
ffffffc080203c66:	0141                	addi	sp,sp,16
ffffffc080203c68:	8082                	ret

ffffffc080203c6a <memset>:
ffffffc080203c6a:	1141                	addi	sp,sp,-16
ffffffc080203c6c:	e406                	sd	ra,8(sp)
ffffffc080203c6e:	e022                	sd	s0,0(sp)
ffffffc080203c70:	0800                	addi	s0,sp,16
ffffffc080203c72:	60a2                	ld	ra,8(sp)
ffffffc080203c74:	6402                	ld	s0,0(sp)
ffffffc080203c76:	0141                	addi	sp,sp,16
ffffffc080203c78:	00000317          	auipc	t1,0x0
ffffffc080203c7c:	f7c30067          	jr	-132(t1) # ffffffc080203bf4 <_ZN17compiler_builtins3mem6memset17hb3cc3e7988f20252E>
	...
