---
source: xtask/src/main.rs
description: riscv64-linux-musl-gcc (GCC) 11.2.1 20211120
expression: from_utf8(&output.stdout).unwrap()
---
test:     file format elf64-littleriscv
test
architecture: riscv:rv64, flags 0x00000150:
HAS_SYMS, DYNAMIC, D_PAGED
start address 0x00000000000006d0

Program Header:
    PHDR off    0x0000000000000040 vaddr 0x0000000000000040 paddr 0x0000000000000040 align 2**3
         filesz 0x0000000000000188 memsz 0x0000000000000188 flags r--
  INTERP off    0x00000000000001c8 vaddr 0x00000000000001c8 paddr 0x00000000000001c8 align 2**0
         filesz 0x000000000000001a memsz 0x000000000000001a flags r--
    LOAD off    0x0000000000000000 vaddr 0x0000000000000000 paddr 0x0000000000000000 align 2**12
         filesz 0x0000000000003d8c memsz 0x0000000000003d8c flags r-x
    LOAD off    0x0000000000003e30 vaddr 0x0000000000004e30 paddr 0x0000000000004e30 align 2**12
         filesz 0x0000000000000278 memsz 0x0000000000000460 flags rw-
 DYNAMIC off    0x0000000000003e40 vaddr 0x0000000000004e40 paddr 0x0000000000004e40 align 2**3
         filesz 0x00000000000001c0 memsz 0x00000000000001c0 flags rw-
   STACK off    0x0000000000000000 vaddr 0x0000000000000000 paddr 0x0000000000000000 align 2**4
         filesz 0x0000000000000000 memsz 0x0000000000000000 flags rw-
   RELRO off    0x0000000000003e30 vaddr 0x0000000000004e30 paddr 0x0000000000004e30 align 2**0
         filesz 0x00000000000001d0 memsz 0x00000000000001d0 flags r--

Dynamic Section:
  NEEDED               libc.so
  INIT                 0x0000000000000000
  FINI                 0x0000000000000000
  INIT_ARRAY           0x0000000000004e30
  INIT_ARRAYSZ         0x0000000000000008
  FINI_ARRAY           0x0000000000004e38
  FINI_ARRAYSZ         0x0000000000000008
  HASH                 0x00000000000001e8
  GNU_HASH             0x0000000000000238
  STRTAB               0x00000000000003c8
  SYMTAB               0x0000000000000260
  STRSZ                0x00000000000000b8
  SYMENT               0x0000000000000018
  DEBUG                0x0000000000000000
  PLTGOT               0x0000000000005028
  PLTRELSZ             0x0000000000000078
  PLTREL               0x0000000000000007
  JMPREL               0x00000000000005e8
  RELA                 0x0000000000000480
  RELASZ               0x00000000000001e0
  RELAENT              0x0000000000000018
  FLAGS_1              0x0000000008000000
  RELACOUNT            0x0000000000000008

Sections:
Idx Name          Size      VMA               LMA               File off  Algn
  0 .interp       0000001a  00000000000001c8  00000000000001c8  000001c8  2**0
                  CONTENTS, ALLOC, LOAD, READONLY, DATA
  1 .hash         00000050  00000000000001e8  00000000000001e8  000001e8  2**3
                  CONTENTS, ALLOC, LOAD, READONLY, DATA
  2 .gnu.hash     00000024  0000000000000238  0000000000000238  00000238  2**3
                  CONTENTS, ALLOC, LOAD, READONLY, DATA
  3 .dynsym       00000168  0000000000000260  0000000000000260  00000260  2**3
                  CONTENTS, ALLOC, LOAD, READONLY, DATA
  4 .dynstr       000000b8  00000000000003c8  00000000000003c8  000003c8  2**0
                  CONTENTS, ALLOC, LOAD, READONLY, DATA
  5 .rela.dyn     00000168  0000000000000480  0000000000000480  00000480  2**3
                  CONTENTS, ALLOC, LOAD, READONLY, DATA
  6 .rela.plt     00000078  00000000000005e8  00000000000005e8  000005e8  2**3
                  CONTENTS, ALLOC, LOAD, READONLY, DATA
  7 .plt          00000070  0000000000000660  0000000000000660  00000660  2**4
                  CONTENTS, ALLOC, LOAD, READONLY, CODE
  8 .text         00003328  00000000000006d0  00000000000006d0  000006d0  2**1
                  CONTENTS, ALLOC, LOAD, READONLY, CODE
  9 .rodata       00000390  00000000000039f8  00000000000039f8  000039f8  2**3
                  CONTENTS, ALLOC, LOAD, READONLY, DATA
 10 .eh_frame     00000004  0000000000003d88  0000000000003d88  00003d88  2**2
                  CONTENTS, ALLOC, LOAD, READONLY, DATA
 11 .init_array   00000008  0000000000004e30  0000000000004e30  00003e30  2**3
                  CONTENTS, ALLOC, LOAD, DATA
 12 .fini_array   00000008  0000000000004e38  0000000000004e38  00003e38  2**3
                  CONTENTS, ALLOC, LOAD, DATA
 13 .dynamic      000001c0  0000000000004e40  0000000000004e40  00003e40  2**3
                  CONTENTS, ALLOC, LOAD, DATA
 14 .data         00000028  0000000000005000  0000000000005000  00004000  2**3
                  CONTENTS, ALLOC, LOAD, DATA
 15 .got          00000080  0000000000005028  0000000000005028  00004028  2**3
                  CONTENTS, ALLOC, LOAD, DATA
 16 .bss          000001e8  00000000000050a8  00000000000050a8  000040a8  2**3
                  ALLOC
 17 .comment      0000001b  0000000000000000  0000000000000000  000040a8  2**0
                  CONTENTS, READONLY
SYMBOL TABLE:
00000000000001c8 l    d  .interp	0000000000000000 .interp
00000000000001e8 l    d  .hash	0000000000000000 .hash
0000000000000238 l    d  .gnu.hash	0000000000000000 .gnu.hash
0000000000000260 l    d  .dynsym	0000000000000000 .dynsym
00000000000003c8 l    d  .dynstr	0000000000000000 .dynstr
0000000000000480 l    d  .rela.dyn	0000000000000000 .rela.dyn
00000000000005e8 l    d  .rela.plt	0000000000000000 .rela.plt
0000000000000660 l    d  .plt	0000000000000000 .plt
00000000000006d0 l    d  .text	0000000000000000 .text
00000000000039f8 l    d  .rodata	0000000000000000 .rodata
0000000000003d88 l    d  .eh_frame	0000000000000000 .eh_frame
0000000000004e30 l    d  .init_array	0000000000000000 .init_array
0000000000004e38 l    d  .fini_array	0000000000000000 .fini_array
0000000000004e40 l    d  .dynamic	0000000000000000 .dynamic
0000000000005000 l    d  .data	0000000000000000 .data
0000000000005028 l    d  .got	0000000000000000 .got
00000000000050a8 l    d  .bss	0000000000000000 .bss
0000000000000000 l    d  .comment	0000000000000000 .comment
0000000000000000 l    df *ABS*	0000000000000000 Scrt1.c
0000000000000000 l    df *ABS*	0000000000000000 crtstuff.c
000000000000070a l     F .text	0000000000000000 deregister_tm_clones
000000000000072c l     F .text	0000000000000000 register_tm_clones
0000000000000758 l     F .text	0000000000000000 __do_global_dtors_aux
00000000000050a8 l     O .bss	0000000000000001 completed.1
0000000000004e38 l     O .fini_array	0000000000000000 __do_global_dtors_aux_fini_array_entry
00000000000007a6 l     F .text	0000000000000000 frame_dummy
00000000000050b0 l     O .bss	0000000000000030 object.0
0000000000004e30 l     O .init_array	0000000000000000 __frame_dummy_init_array_entry
0000000000000000 l    df *ABS*	0000000000000000 test.c
0000000000000000 l    df *ABS*	0000000000000000 unity.c
00000000000009b0 l     F .text	000000000000001e __FLOAT_BITS
0000000000003ab8 l     O .rodata	0000000000000005 UnityStrNull
0000000000003ac0 l     O .rodata	0000000000000003 UnityStrSpacer
0000000000003ac8 l     O .rodata	000000000000000b UnityStrExpected
0000000000003ad8 l     O .rodata	0000000000000006 UnityStrWas
0000000000003ae0 l     O .rodata	0000000000000015 UnityStrGt
0000000000003af8 l     O .rodata	0000000000000012 UnityStrLt
0000000000003b10 l     O .rodata	000000000000000d UnityStrOrEqual
0000000000003b20 l     O .rodata	0000000000000015 UnityStrNotEqual
0000000000003b38 l     O .rodata	000000000000000a UnityStrElement
0000000000003b48 l     O .rodata	0000000000000007 UnityStrByte
0000000000003b50 l     O .rodata	0000000000000012 UnityStrMemory
0000000000003b68 l     O .rodata	000000000000001a UnityStrDelta
0000000000003b88 l     O .rodata	0000000000000037 UnityStrPointless
0000000000003bc0 l     O .rodata	000000000000001d UnityStrNullPointerForExpected
0000000000003be0 l     O .rodata	0000000000000019 UnityStrNullPointerForActual
0000000000003c00 l     O .rodata	0000000000000005 UnityStrNot
0000000000003c08 l     O .rodata	0000000000000009 UnityStrInf
0000000000003c18 l     O .rodata	0000000000000012 UnityStrNegInf
0000000000003c30 l     O .rodata	0000000000000004 UnityStrNaN
0000000000003c38 l     O .rodata	000000000000000c UnityStrDet
0000000000003c48 l     O .rodata	0000000000000014 UnityStrInvalidFloatTrait
0000000000003ce8 l     O .rodata	0000000000000018 UnityStrBreaker
0000000000003d00 l     O .rodata	0000000000000008 UnityStrResultsTests
0000000000003d08 l     O .rodata	000000000000000b UnityStrResultsFailures
0000000000003d18 l     O .rodata	000000000000000a UnityStrResultsIgnored
0000000000003d28 l     O .rodata	000000000000000a UnityStrDetail1Name
0000000000003d38 l     O .rodata	000000000000000b UnityStrDetail2Name
00000000000009ce l     F .text	00000000000000b0 UnityPrintChar
0000000000000a7e l     F .text	000000000000007a UnityPrintAnsiEscapeString
0000000000003d68 l     O .rodata	0000000000000004 max_scaled.2
0000000000003d6c l     O .rodata	0000000000000004 min_scaled.1
0000000000003d70 l     O .rodata	0000000000000004 sig_digits.0
00000000000014d2 l     F .text	0000000000000054 UnityTestResultsBegin
0000000000001526 l     F .text	000000000000003e UnityTestResultsFailBegin
0000000000001608 l     F .text	000000000000008c UnityAddMsgIfSpecified
0000000000001694 l     F .text	000000000000008a UnityPrintExpectedAndActualStrings
000000000000171e l     F .text	000000000000009c UnityPrintExpectedAndActualStringsLen
00000000000017ba l     F .text	0000000000000080 UnityIsOneArrayNull
0000000000001eac l     F .text	000000000000019e UnityFloatsWithin
0000000000005288 l     O .bss	0000000000000008 UnityQuickCompare
0000000000000000 l    df *ABS*	0000000000000000 crtstuff.c
0000000000003d88 l     O .eh_frame	0000000000000000 __FRAME_END__
0000000000004e40 l     O *ABS*	0000000000000000 _DYNAMIC
0000000000000660 l     O *ABS*	0000000000000000 _PROCEDURE_LINKAGE_TABLE_
0000000000005060 l     O *ABS*	0000000000000000 _GLOBAL_OFFSET_TABLE_
0000000000000000       F *UND*	0000000000000000 longjmp
0000000000000000       F *UND*	0000000000000000 putchar
0000000000000000       F *UND*	0000000000000000 setjmp
0000000000000af8 g     F .text	000000000000007c UnityPrint
0000000000003cc8 g     O .rodata	000000000000001e UnityStrErr64
0000000000005800 g       *ABS*	0000000000000000 .hidden __global_pointer$
000000000000352a g     F .text	00000000000000b6 UnityNumToPtr
0000000000002f58 g     F .text	0000000000000134 UnityAssertEqualStringLen
0000000000002e46 g     F .text	0000000000000112 UnityAssertEqualString
0000000000000ee6 g     F .text	0000000000000080 UnityPrintMask
0000000000000c66 g     F .text	0000000000000114 UnityPrintNumberByStyle
000000000000183a g     F .text	00000000000000c0 UnityAssertBits
0000000000000d7a g     F .text	0000000000000042 UnityPrintNumber
00000000000032c2 g     F .text	0000000000000268 UnityAssertEqualMemory
00000000000050a8 g       .got	0000000000000000 __SDATA_BEGIN__
0000000000002470 g     F .text	0000000000000174 UnityAssertGreaterOrLessFloat
0000000000005028 g     O .got	0000000000000000 .hidden __TMC_END__
0000000000003c88 g     O .rodata	000000000000001e UnityStrErrFloat
0000000000000000  w    F *UND*	0000000000000000 __cxa_finalize
0000000000003a88 g     O .rodata	000000000000000e UnityStrPass
0000000000000000       F *UND*	0000000000000000 malloc
00000000000008b6 g     F .text	00000000000000a6 test_advance
0000000000005000 g     O .data	0000000000000000 .hidden __dso_handle
0000000000003aa8 g     O .rodata	0000000000000010 UnityStrIgnore
00000000000035e0 g     F .text	000000000000002a UnityFloatToPtr
0000000000000dbc g     F .text	000000000000007c UnityPrintNumberUnsigned
000000000000204a g     F .text	00000000000002c2 UnityAssertWithinFloatArray
0000000000000000  w    F *UND*	0000000000000000 _init
0000000000003890 g     F .text	0000000000000020 UnitySetTestFile
0000000000001b62 g     F .text	000000000000034a UnityAssertEqualIntArray
00000000000050e0 g     O .bss	00000000000001a8 Unity
000000000000285e g     F .text	000000000000018e UnityAssertNumbersWithin
0000000000000000  w      *UND*	0000000000000000 __deregister_frame_info
0000000000000000  w      *UND*	0000000000000000 _ITM_registerTMCloneTable
00000000000006d0 g     F .text	0000000000000000 _start
00000000000006e8 g     F .text	0000000000000022 _start_c
000000000000308c g     F .text	0000000000000236 UnityAssertEqualStringArray
00000000000037f2 g     F .text	000000000000009e UnityDefaultTestRun
00000000000019b2 g     F .text	00000000000001b0 UnityAssertGreaterOrLessOrEqualNumber
0000000000005290 g       .bss	0000000000000000 __BSS_END__
000000000000360a g     F .text	00000000000000fc UnityFail
0000000000000000  w      *UND*	0000000000000000 _ITM_deregisterTMCloneTable
00000000000050a8 g       .bss	0000000000000000 __bss_start
000000000000095c g     F .text	0000000000000054 main
0000000000003a78 g     O .rodata	000000000000000c UnityStrOk
00000000000038b0 g     F .text	000000000000008c UnityBegin
00000000000007ea g     F .text	00000000000000cc test_basic
0000000000000b74 g     F .text	00000000000000f2 UnityPrintLen
0000000000000f66 g     F .text	000000000000056c UnityPrintFloat
0000000000000000  w    F *UND*	0000000000000000 _fini
0000000000003c60 g     O .rodata	0000000000000021 UnityStrErrShorthand
000000000000230c g     F .text	00000000000000b2 UnityAssertFloatsWithin
00000000000025e4 g     F .text	000000000000027a UnityAssertFloatSpecial
0000000000005000 g       .data	0000000000000000 __DATA_BEGIN__
00000000000007ce g     F .text	000000000000000e setUp
00000000000050a8 g       .got	0000000000000000 _edata
0000000000005290 g       .bss	0000000000000000 _end
0000000000003794 g     F .text	000000000000005e UnityMessage
00000000000018fa g     F .text	00000000000000b8 UnityAssertEqualNumber
00000000000007dc g     F .text	000000000000000e tearDown
00000000000029ec g     F .text	000000000000045a UnityAssertNumbersArrayWithin
0000000000000000       F *UND*	0000000000000000 __libc_start_main
0000000000000e38 g     F .text	00000000000000ae UnityPrintNumberHex
0000000000003ca8 g     O .rodata	0000000000000020 UnityStrErrDouble
00000000000023be g     F .text	00000000000000b2 UnityAssertFloatsNotWithin
0000000000001564 g     F .text	00000000000000a4 UnityConcludeTest
0000000000003706 g     F .text	000000000000008e UnityIgnore
0000000000003a98 g     O .rodata	000000000000000e UnityStrFail
000000000000393c g     F .text	00000000000000bc UnityEnd
0000000000000000  w      *UND*	0000000000000000 __register_frame_info



Disassembly of section .plt:

0000000000000660 <.plt>:
 660:	00005397          	auipc	t2,0x5
 664:	41c30333          	sub	t1,t1,t3
 668:	9c83be03          	ld	t3,-1592(t2) # 5028 <__TMC_END__>
 66c:	fd430313          	addi	t1,t1,-44
 670:	9c838293          	addi	t0,t2,-1592
 674:	00135313          	srli	t1,t1,0x1
 678:	0082b283          	ld	t0,8(t0)
 67c:	000e0067          	jr	t3

0000000000000680 <longjmp@plt>:
 680:	00005e17          	auipc	t3,0x5
 684:	9b8e3e03          	ld	t3,-1608(t3) # 5038 <longjmp>
 688:	000e0367          	jalr	t1,t3
 68c:	00000013          	nop

0000000000000690 <putchar@plt>:
 690:	00005e17          	auipc	t3,0x5
 694:	9b0e3e03          	ld	t3,-1616(t3) # 5040 <putchar>
 698:	000e0367          	jalr	t1,t3
 69c:	00000013          	nop

00000000000006a0 <setjmp@plt>:
 6a0:	00005e17          	auipc	t3,0x5
 6a4:	9a8e3e03          	ld	t3,-1624(t3) # 5048 <setjmp>
 6a8:	000e0367          	jalr	t1,t3
 6ac:	00000013          	nop

00000000000006b0 <malloc@plt>:
 6b0:	00005e17          	auipc	t3,0x5
 6b4:	9a0e3e03          	ld	t3,-1632(t3) # 5050 <malloc>
 6b8:	000e0367          	jalr	t1,t3
 6bc:	00000013          	nop

00000000000006c0 <__libc_start_main@plt>:
 6c0:	00005e17          	auipc	t3,0x5
 6c4:	998e3e03          	ld	t3,-1640(t3) # 5058 <__libc_start_main>
 6c8:	000e0367          	jalr	t1,t3
 6cc:	00000013          	nop

Disassembly of section .text:

00000000000006d0 <_start>:
     6d0:	00005197          	auipc	gp,0x5
     6d4:	13018193          	addi	gp,gp,304 # 5800 <__global_pointer$>
     6d8:	850a                	mv	a0,sp
     6da:	00004597          	auipc	a1,0x4
     6de:	76658593          	addi	a1,a1,1894 # 4e40 <_DYNAMIC>
     6e2:	ff017113          	andi	sp,sp,-16
     6e6:	a009                	j	6e8 <_start_c>

00000000000006e8 <_start_c>:
     6e8:	410c                	lw	a1,0(a0)
     6ea:	00850613          	addi	a2,a0,8
     6ee:	4781                	li	a5,0
     6f0:	00005717          	auipc	a4,0x5
     6f4:	9a873703          	ld	a4,-1624(a4) # 5098 <_fini>
     6f8:	00005697          	auipc	a3,0x5
     6fc:	9786b683          	ld	a3,-1672(a3) # 5070 <_init>
     700:	00005517          	auipc	a0,0x5
     704:	99053503          	ld	a0,-1648(a0) # 5090 <_GLOBAL_OFFSET_TABLE_+0x30>
     708:	bf65                	j	6c0 <__libc_start_main@plt>

000000000000070a <deregister_tm_clones>:
     70a:	00005517          	auipc	a0,0x5
     70e:	91e50513          	addi	a0,a0,-1762 # 5028 <__TMC_END__>
     712:	00005797          	auipc	a5,0x5
     716:	91678793          	addi	a5,a5,-1770 # 5028 <__TMC_END__>
     71a:	00a78863          	beq	a5,a0,72a <deregister_tm_clones+0x20>
     71e:	00005797          	auipc	a5,0x5
     722:	96a7b783          	ld	a5,-1686(a5) # 5088 <_ITM_deregisterTMCloneTable>
     726:	c391                	beqz	a5,72a <deregister_tm_clones+0x20>
     728:	8782                	jr	a5
     72a:	8082                	ret

000000000000072c <register_tm_clones>:
     72c:	00005517          	auipc	a0,0x5
     730:	8fc50513          	addi	a0,a0,-1796 # 5028 <__TMC_END__>
     734:	00005597          	auipc	a1,0x5
     738:	8f458593          	addi	a1,a1,-1804 # 5028 <__TMC_END__>
     73c:	8d89                	sub	a1,a1,a0
     73e:	4035d793          	srai	a5,a1,0x3
     742:	91fd                	srli	a1,a1,0x3f
     744:	95be                	add	a1,a1,a5
     746:	8585                	srai	a1,a1,0x1
     748:	c599                	beqz	a1,756 <register_tm_clones+0x2a>
     74a:	00005797          	auipc	a5,0x5
     74e:	9367b783          	ld	a5,-1738(a5) # 5080 <_ITM_registerTMCloneTable>
     752:	c391                	beqz	a5,756 <register_tm_clones+0x2a>
     754:	8782                	jr	a5
     756:	8082                	ret

0000000000000758 <__do_global_dtors_aux>:
     758:	1141                	addi	sp,sp,-16
     75a:	e022                	sd	s0,0(sp)
     75c:	00005417          	auipc	s0,0x5
     760:	94c40413          	addi	s0,s0,-1716 # 50a8 <completed.1>
     764:	00044783          	lbu	a5,0(s0)
     768:	e406                	sd	ra,8(sp)
     76a:	eb95                	bnez	a5,79e <__do_global_dtors_aux+0x46>
     76c:	00005797          	auipc	a5,0x5
     770:	8fc7b783          	ld	a5,-1796(a5) # 5068 <__cxa_finalize>
     774:	c791                	beqz	a5,780 <__do_global_dtors_aux+0x28>
     776:	00005517          	auipc	a0,0x5
     77a:	88a53503          	ld	a0,-1910(a0) # 5000 <__dso_handle>
     77e:	9782                	jalr	a5
     780:	f8bff0ef          	jal	ra,70a <deregister_tm_clones>
     784:	00005797          	auipc	a5,0x5
     788:	8f47b783          	ld	a5,-1804(a5) # 5078 <__deregister_frame_info>
     78c:	c791                	beqz	a5,798 <__do_global_dtors_aux+0x40>
     78e:	00003517          	auipc	a0,0x3
     792:	5fa50513          	addi	a0,a0,1530 # 3d88 <__FRAME_END__>
     796:	9782                	jalr	a5
     798:	4785                	li	a5,1
     79a:	00f40023          	sb	a5,0(s0)
     79e:	60a2                	ld	ra,8(sp)
     7a0:	6402                	ld	s0,0(sp)
     7a2:	0141                	addi	sp,sp,16
     7a4:	8082                	ret

00000000000007a6 <frame_dummy>:
     7a6:	00005797          	auipc	a5,0x5
     7aa:	8fa7b783          	ld	a5,-1798(a5) # 50a0 <__register_frame_info>
     7ae:	cf99                	beqz	a5,7cc <frame_dummy+0x26>
     7b0:	1141                	addi	sp,sp,-16
     7b2:	e406                	sd	ra,8(sp)
     7b4:	00005597          	auipc	a1,0x5
     7b8:	8fc58593          	addi	a1,a1,-1796 # 50b0 <object.0>
     7bc:	00003517          	auipc	a0,0x3
     7c0:	5cc50513          	addi	a0,a0,1484 # 3d88 <__FRAME_END__>
     7c4:	9782                	jalr	a5
     7c6:	60a2                	ld	ra,8(sp)
     7c8:	0141                	addi	sp,sp,16
     7ca:	b78d                	j	72c <register_tm_clones>
     7cc:	b785                	j	72c <register_tm_clones>

00000000000007ce <setUp>:
     7ce:	1141                	addi	sp,sp,-16
     7d0:	e422                	sd	s0,8(sp)
     7d2:	0800                	addi	s0,sp,16
     7d4:	0001                	nop
     7d6:	6422                	ld	s0,8(sp)
     7d8:	0141                	addi	sp,sp,16
     7da:	8082                	ret

00000000000007dc <tearDown>:
     7dc:	1141                	addi	sp,sp,-16
     7de:	e422                	sd	s0,8(sp)
     7e0:	0800                	addi	s0,sp,16
     7e2:	0001                	nop
     7e4:	6422                	ld	s0,8(sp)
     7e6:	0141                	addi	sp,sp,16
     7e8:	8082                	ret

00000000000007ea <test_basic>:
     7ea:	7139                	addi	sp,sp,-64
     7ec:	fc06                	sd	ra,56(sp)
     7ee:	f822                	sd	s0,48(sp)
     7f0:	0080                	addi	s0,sp,64
     7f2:	45d5                	li	a1,21
     7f4:	00003517          	auipc	a0,0x3
     7f8:	20450513          	addi	a0,a0,516 # 39f8 <UnityEnd+0xbc>
     7fc:	799020ef          	jal	ra,3794 <UnityMessage>
     800:	4751                	li	a4,20
     802:	46ed                	li	a3,27
     804:	4601                	li	a2,0
     806:	4589                	li	a1,2
     808:	4509                	li	a0,2
     80a:	0f0010ef          	jal	ra,18fa <UnityAssertEqualNumber>
     80e:	00003797          	auipc	a5,0x3
     812:	26278793          	addi	a5,a5,610 # 3a70 <UnityEnd+0x134>
     816:	0007a687          	flw	fa3,0(a5)
     81a:	00003797          	auipc	a5,0x3
     81e:	25678793          	addi	a5,a5,598 # 3a70 <UnityEnd+0x134>
     822:	0007a707          	flw	fa4,0(a5)
     826:	00003797          	auipc	a5,0x3
     82a:	24e78793          	addi	a5,a5,590 # 3a74 <UnityEnd+0x138>
     82e:	0007a787          	flw	fa5,0(a5)
     832:	45f5                	li	a1,29
     834:	4501                	li	a0,0
     836:	20d68653          	fmv.s	fa2,fa3
     83a:	20e705d3          	fmv.s	fa1,fa4
     83e:	20f78553          	fmv.s	fa0,fa5
     842:	2cb010ef          	jal	ra,230c <UnityAssertFloatsWithin>
     846:	00003797          	auipc	a5,0x3
     84a:	1ca78793          	addi	a5,a5,458 # 3a10 <UnityEnd+0xd4>
     84e:	6398                	ld	a4,0(a5)
     850:	fce43c23          	sd	a4,-40(s0)
     854:	6798                	ld	a4,8(a5)
     856:	fee43023          	sd	a4,-32(s0)
     85a:	4b9c                	lw	a5,16(a5)
     85c:	fef42423          	sw	a5,-24(s0)
     860:	00003797          	auipc	a5,0x3
     864:	1b078793          	addi	a5,a5,432 # 3a10 <UnityEnd+0xd4>
     868:	6398                	ld	a4,0(a5)
     86a:	fce43023          	sd	a4,-64(s0)
     86e:	6798                	ld	a4,8(a5)
     870:	fce43423          	sd	a4,-56(s0)
     874:	4b9c                	lw	a5,16(a5)
     876:	fcf42823          	sw	a5,-48(s0)
     87a:	fc040593          	addi	a1,s0,-64
     87e:	fd840513          	addi	a0,s0,-40
     882:	4805                	li	a6,1
     884:	47d1                	li	a5,20
     886:	02100713          	li	a4,33
     88a:	4681                	li	a3,0
     88c:	4615                	li	a2,5
     88e:	2d4010ef          	jal	ra,1b62 <UnityAssertEqualIntArray>
     892:	02300693          	li	a3,35
     896:	4601                	li	a2,0
     898:	00003597          	auipc	a1,0x3
     89c:	17058593          	addi	a1,a1,368 # 3a08 <UnityEnd+0xcc>
     8a0:	00003517          	auipc	a0,0x3
     8a4:	16850513          	addi	a0,a0,360 # 3a08 <UnityEnd+0xcc>
     8a8:	59e020ef          	jal	ra,2e46 <UnityAssertEqualString>
     8ac:	0001                	nop
     8ae:	70e2                	ld	ra,56(sp)
     8b0:	7442                	ld	s0,48(sp)
     8b2:	6121                	addi	sp,sp,64
     8b4:	8082                	ret

00000000000008b6 <test_advance>:
     8b6:	1101                	addi	sp,sp,-32
     8b8:	ec06                	sd	ra,24(sp)
     8ba:	e822                	sd	s0,16(sp)
     8bc:	1000                	addi	s0,sp,32
     8be:	4521                	li	a0,8
     8c0:	df1ff0ef          	jal	ra,6b0 <malloc@plt>
     8c4:	87aa                	mv	a5,a0
     8c6:	fef43423          	sd	a5,-24(s0)
     8ca:	fe843783          	ld	a5,-24(s0)
     8ce:	eb89                	bnez	a5,8e0 <test_advance+0x2a>
     8d0:	02a00593          	li	a1,42
     8d4:	00003517          	auipc	a0,0x3
     8d8:	15450513          	addi	a0,a0,340 # 3a28 <UnityEnd+0xec>
     8dc:	52f020ef          	jal	ra,360a <UnityFail>
     8e0:	fe843783          	ld	a5,-24(s0)
     8e4:	4705                	li	a4,1
     8e6:	c398                	sw	a4,0(a5)
     8e8:	fe843783          	ld	a5,-24(s0)
     8ec:	00003717          	auipc	a4,0x3
     8f0:	18470713          	addi	a4,a4,388 # 3a70 <UnityEnd+0x134>
     8f4:	00072787          	flw	fa5,0(a4)
     8f8:	00f7a227          	fsw	fa5,4(a5)
     8fc:	4521                	li	a0,8
     8fe:	db3ff0ef          	jal	ra,6b0 <malloc@plt>
     902:	87aa                	mv	a5,a0
     904:	fef43023          	sd	a5,-32(s0)
     908:	fe043783          	ld	a5,-32(s0)
     90c:	eb89                	bnez	a5,91e <test_advance+0x68>
     90e:	03000593          	li	a1,48
     912:	00003517          	auipc	a0,0x3
     916:	11650513          	addi	a0,a0,278 # 3a28 <UnityEnd+0xec>
     91a:	4f1020ef          	jal	ra,360a <UnityFail>
     91e:	fe043783          	ld	a5,-32(s0)
     922:	4705                	li	a4,1
     924:	c398                	sw	a4,0(a5)
     926:	fe043783          	ld	a5,-32(s0)
     92a:	00003717          	auipc	a4,0x3
     92e:	14670713          	addi	a4,a4,326 # 3a70 <UnityEnd+0x134>
     932:	00072787          	flw	fa5,0(a4)
     936:	00f7a227          	fsw	fa5,4(a5)
     93a:	4805                	li	a6,1
     93c:	03500793          	li	a5,53
     940:	4701                	li	a4,0
     942:	4685                	li	a3,1
     944:	4621                	li	a2,8
     946:	fe043583          	ld	a1,-32(s0)
     94a:	fe843503          	ld	a0,-24(s0)
     94e:	175020ef          	jal	ra,32c2 <UnityAssertEqualMemory>
     952:	0001                	nop
     954:	60e2                	ld	ra,24(sp)
     956:	6442                	ld	s0,16(sp)
     958:	6105                	addi	sp,sp,32
     95a:	8082                	ret

000000000000095c <main>:
     95c:	1141                	addi	sp,sp,-16
     95e:	e406                	sd	ra,8(sp)
     960:	e022                	sd	s0,0(sp)
     962:	0800                	addi	s0,sp,16
     964:	00003517          	auipc	a0,0x3
     968:	0e450513          	addi	a0,a0,228 # 3a48 <UnityEnd+0x10c>
     96c:	745020ef          	jal	ra,38b0 <UnityBegin>
     970:	03900613          	li	a2,57
     974:	00003597          	auipc	a1,0x3
     978:	0dc58593          	addi	a1,a1,220 # 3a50 <UnityEnd+0x114>
     97c:	00000517          	auipc	a0,0x0
     980:	e6e50513          	addi	a0,a0,-402 # 7ea <test_basic>
     984:	66f020ef          	jal	ra,37f2 <UnityDefaultTestRun>
     988:	03a00613          	li	a2,58
     98c:	00003597          	auipc	a1,0x3
     990:	0d458593          	addi	a1,a1,212 # 3a60 <UnityEnd+0x124>
     994:	00000517          	auipc	a0,0x0
     998:	f2250513          	addi	a0,a0,-222 # 8b6 <test_advance>
     99c:	657020ef          	jal	ra,37f2 <UnityDefaultTestRun>
     9a0:	79d020ef          	jal	ra,393c <UnityEnd>
     9a4:	87aa                	mv	a5,a0
     9a6:	853e                	mv	a0,a5
     9a8:	60a2                	ld	ra,8(sp)
     9aa:	6402                	ld	s0,0(sp)
     9ac:	0141                	addi	sp,sp,16
     9ae:	8082                	ret

00000000000009b0 <__FLOAT_BITS>:
     9b0:	7179                	addi	sp,sp,-48
     9b2:	f422                	sd	s0,40(sp)
     9b4:	1800                	addi	s0,sp,48
     9b6:	fca42e27          	fsw	fa0,-36(s0)
     9ba:	fdc42787          	flw	fa5,-36(s0)
     9be:	fef42427          	fsw	fa5,-24(s0)
     9c2:	fe842783          	lw	a5,-24(s0)
     9c6:	853e                	mv	a0,a5
     9c8:	7422                	ld	s0,40(sp)
     9ca:	6145                	addi	sp,sp,48
     9cc:	8082                	ret

00000000000009ce <UnityPrintChar>:
     9ce:	1101                	addi	sp,sp,-32
     9d0:	ec06                	sd	ra,24(sp)
     9d2:	e822                	sd	s0,16(sp)
     9d4:	1000                	addi	s0,sp,32
     9d6:	fea43423          	sd	a0,-24(s0)
     9da:	fe843783          	ld	a5,-24(s0)
     9de:	0007c783          	lbu	a5,0(a5)
     9e2:	873e                	mv	a4,a5
     9e4:	07e00793          	li	a5,126
     9e8:	02e7e463          	bltu	a5,a4,a10 <UnityPrintChar+0x42>
     9ec:	fe843783          	ld	a5,-24(s0)
     9f0:	0007c783          	lbu	a5,0(a5)
     9f4:	873e                	mv	a4,a5
     9f6:	47fd                	li	a5,31
     9f8:	00e7fc63          	bgeu	a5,a4,a10 <UnityPrintChar+0x42>
     9fc:	fe843783          	ld	a5,-24(s0)
     a00:	0007c783          	lbu	a5,0(a5)
     a04:	2781                	sext.w	a5,a5
     a06:	853e                	mv	a0,a5
     a08:	c89ff0ef          	jal	ra,690 <putchar@plt>
     a0c:	0001                	nop
     a0e:	a09d                	j	a74 <UnityPrintChar+0xa6>
     a10:	fe843783          	ld	a5,-24(s0)
     a14:	0007c783          	lbu	a5,0(a5)
     a18:	873e                	mv	a4,a5
     a1a:	47b5                	li	a5,13
     a1c:	00f71b63          	bne	a4,a5,a32 <UnityPrintChar+0x64>
     a20:	05c00513          	li	a0,92
     a24:	c6dff0ef          	jal	ra,690 <putchar@plt>
     a28:	07200513          	li	a0,114
     a2c:	c65ff0ef          	jal	ra,690 <putchar@plt>
     a30:	a091                	j	a74 <UnityPrintChar+0xa6>
     a32:	fe843783          	ld	a5,-24(s0)
     a36:	0007c783          	lbu	a5,0(a5)
     a3a:	873e                	mv	a4,a5
     a3c:	47a9                	li	a5,10
     a3e:	00f71b63          	bne	a4,a5,a54 <UnityPrintChar+0x86>
     a42:	05c00513          	li	a0,92
     a46:	c4bff0ef          	jal	ra,690 <putchar@plt>
     a4a:	06e00513          	li	a0,110
     a4e:	c43ff0ef          	jal	ra,690 <putchar@plt>
     a52:	a00d                	j	a74 <UnityPrintChar+0xa6>
     a54:	05c00513          	li	a0,92
     a58:	c39ff0ef          	jal	ra,690 <putchar@plt>
     a5c:	07800513          	li	a0,120
     a60:	c31ff0ef          	jal	ra,690 <putchar@plt>
     a64:	fe843783          	ld	a5,-24(s0)
     a68:	0007c783          	lbu	a5,0(a5)
     a6c:	4589                	li	a1,2
     a6e:	853e                	mv	a0,a5
     a70:	3c8000ef          	jal	ra,e38 <UnityPrintNumberHex>
     a74:	0001                	nop
     a76:	60e2                	ld	ra,24(sp)
     a78:	6442                	ld	s0,16(sp)
     a7a:	6105                	addi	sp,sp,32
     a7c:	8082                	ret

0000000000000a7e <UnityPrintAnsiEscapeString>:
     a7e:	7179                	addi	sp,sp,-48
     a80:	f406                	sd	ra,40(sp)
     a82:	f022                	sd	s0,32(sp)
     a84:	1800                	addi	s0,sp,48
     a86:	fca43c23          	sd	a0,-40(s0)
     a8a:	fd843783          	ld	a5,-40(s0)
     a8e:	fef43423          	sd	a5,-24(s0)
     a92:	fe043023          	sd	zero,-32(s0)
     a96:	a01d                	j	abc <UnityPrintAnsiEscapeString+0x3e>
     a98:	fe843783          	ld	a5,-24(s0)
     a9c:	0007c783          	lbu	a5,0(a5)
     aa0:	2781                	sext.w	a5,a5
     aa2:	853e                	mv	a0,a5
     aa4:	bedff0ef          	jal	ra,690 <putchar@plt>
     aa8:	fe843783          	ld	a5,-24(s0)
     aac:	0785                	addi	a5,a5,1
     aae:	fef43423          	sd	a5,-24(s0)
     ab2:	fe043783          	ld	a5,-32(s0)
     ab6:	0785                	addi	a5,a5,1
     ab8:	fef43023          	sd	a5,-32(s0)
     abc:	fe843783          	ld	a5,-24(s0)
     ac0:	0007c783          	lbu	a5,0(a5)
     ac4:	cb91                	beqz	a5,ad8 <UnityPrintAnsiEscapeString+0x5a>
     ac6:	fe843783          	ld	a5,-24(s0)
     aca:	0007c783          	lbu	a5,0(a5)
     ace:	873e                	mv	a4,a5
     ad0:	06d00793          	li	a5,109
     ad4:	fcf712e3          	bne	a4,a5,a98 <UnityPrintAnsiEscapeString+0x1a>
     ad8:	06d00513          	li	a0,109
     adc:	bb5ff0ef          	jal	ra,690 <putchar@plt>
     ae0:	fe043783          	ld	a5,-32(s0)
     ae4:	0785                	addi	a5,a5,1
     ae6:	fef43023          	sd	a5,-32(s0)
     aea:	fe043783          	ld	a5,-32(s0)
     aee:	853e                	mv	a0,a5
     af0:	70a2                	ld	ra,40(sp)
     af2:	7402                	ld	s0,32(sp)
     af4:	6145                	addi	sp,sp,48
     af6:	8082                	ret

0000000000000af8 <UnityPrint>:
     af8:	7179                	addi	sp,sp,-48
     afa:	f406                	sd	ra,40(sp)
     afc:	f022                	sd	s0,32(sp)
     afe:	1800                	addi	s0,sp,48
     b00:	fca43c23          	sd	a0,-40(s0)
     b04:	fd843783          	ld	a5,-40(s0)
     b08:	fef43423          	sd	a5,-24(s0)
     b0c:	fe843783          	ld	a5,-24(s0)
     b10:	cfa9                	beqz	a5,b6a <UnityPrint+0x72>
     b12:	a0b9                	j	b60 <UnityPrint+0x68>
     b14:	fe843783          	ld	a5,-24(s0)
     b18:	0007c783          	lbu	a5,0(a5)
     b1c:	873e                	mv	a4,a5
     b1e:	47ed                	li	a5,27
     b20:	02f71763          	bne	a4,a5,b4e <UnityPrint+0x56>
     b24:	fe843783          	ld	a5,-24(s0)
     b28:	0785                	addi	a5,a5,1
     b2a:	0007c783          	lbu	a5,0(a5)
     b2e:	873e                	mv	a4,a5
     b30:	05b00793          	li	a5,91
     b34:	00f71d63          	bne	a4,a5,b4e <UnityPrint+0x56>
     b38:	fe843503          	ld	a0,-24(s0)
     b3c:	f43ff0ef          	jal	ra,a7e <UnityPrintAnsiEscapeString>
     b40:	872a                	mv	a4,a0
     b42:	fe843783          	ld	a5,-24(s0)
     b46:	97ba                	add	a5,a5,a4
     b48:	fef43423          	sd	a5,-24(s0)
     b4c:	a811                	j	b60 <UnityPrint+0x68>
     b4e:	fe843503          	ld	a0,-24(s0)
     b52:	e7dff0ef          	jal	ra,9ce <UnityPrintChar>
     b56:	fe843783          	ld	a5,-24(s0)
     b5a:	0785                	addi	a5,a5,1
     b5c:	fef43423          	sd	a5,-24(s0)
     b60:	fe843783          	ld	a5,-24(s0)
     b64:	0007c783          	lbu	a5,0(a5)
     b68:	f7d5                	bnez	a5,b14 <UnityPrint+0x1c>
     b6a:	0001                	nop
     b6c:	70a2                	ld	ra,40(sp)
     b6e:	7402                	ld	s0,32(sp)
     b70:	6145                	addi	sp,sp,48
     b72:	8082                	ret

0000000000000b74 <UnityPrintLen>:
     b74:	7179                	addi	sp,sp,-48
     b76:	f406                	sd	ra,40(sp)
     b78:	f022                	sd	s0,32(sp)
     b7a:	1800                	addi	s0,sp,48
     b7c:	fca43c23          	sd	a0,-40(s0)
     b80:	87ae                	mv	a5,a1
     b82:	fcf42a23          	sw	a5,-44(s0)
     b86:	fd843783          	ld	a5,-40(s0)
     b8a:	fef43423          	sd	a5,-24(s0)
     b8e:	fe843783          	ld	a5,-24(s0)
     b92:	c7e9                	beqz	a5,c5c <UnityPrintLen+0xe8>
     b94:	a055                	j	c38 <UnityPrintLen+0xc4>
     b96:	fe843783          	ld	a5,-24(s0)
     b9a:	0007c783          	lbu	a5,0(a5)
     b9e:	873e                	mv	a4,a5
     ba0:	07e00793          	li	a5,126
     ba4:	02e7e363          	bltu	a5,a4,bca <UnityPrintLen+0x56>
     ba8:	fe843783          	ld	a5,-24(s0)
     bac:	0007c783          	lbu	a5,0(a5)
     bb0:	873e                	mv	a4,a5
     bb2:	47fd                	li	a5,31
     bb4:	00e7fb63          	bgeu	a5,a4,bca <UnityPrintLen+0x56>
     bb8:	fe843783          	ld	a5,-24(s0)
     bbc:	0007c783          	lbu	a5,0(a5)
     bc0:	2781                	sext.w	a5,a5
     bc2:	853e                	mv	a0,a5
     bc4:	acdff0ef          	jal	ra,690 <putchar@plt>
     bc8:	a09d                	j	c2e <UnityPrintLen+0xba>
     bca:	fe843783          	ld	a5,-24(s0)
     bce:	0007c783          	lbu	a5,0(a5)
     bd2:	873e                	mv	a4,a5
     bd4:	47b5                	li	a5,13
     bd6:	00f71b63          	bne	a4,a5,bec <UnityPrintLen+0x78>
     bda:	05c00513          	li	a0,92
     bde:	ab3ff0ef          	jal	ra,690 <putchar@plt>
     be2:	07200513          	li	a0,114
     be6:	aabff0ef          	jal	ra,690 <putchar@plt>
     bea:	a091                	j	c2e <UnityPrintLen+0xba>
     bec:	fe843783          	ld	a5,-24(s0)
     bf0:	0007c783          	lbu	a5,0(a5)
     bf4:	873e                	mv	a4,a5
     bf6:	47a9                	li	a5,10
     bf8:	00f71b63          	bne	a4,a5,c0e <UnityPrintLen+0x9a>
     bfc:	05c00513          	li	a0,92
     c00:	a91ff0ef          	jal	ra,690 <putchar@plt>
     c04:	06e00513          	li	a0,110
     c08:	a89ff0ef          	jal	ra,690 <putchar@plt>
     c0c:	a00d                	j	c2e <UnityPrintLen+0xba>
     c0e:	05c00513          	li	a0,92
     c12:	a7fff0ef          	jal	ra,690 <putchar@plt>
     c16:	07800513          	li	a0,120
     c1a:	a77ff0ef          	jal	ra,690 <putchar@plt>
     c1e:	fe843783          	ld	a5,-24(s0)
     c22:	0007c783          	lbu	a5,0(a5)
     c26:	4589                	li	a1,2
     c28:	853e                	mv	a0,a5
     c2a:	20e000ef          	jal	ra,e38 <UnityPrintNumberHex>
     c2e:	fe843783          	ld	a5,-24(s0)
     c32:	0785                	addi	a5,a5,1
     c34:	fef43423          	sd	a5,-24(s0)
     c38:	fe843783          	ld	a5,-24(s0)
     c3c:	0007c783          	lbu	a5,0(a5)
     c40:	cf91                	beqz	a5,c5c <UnityPrintLen+0xe8>
     c42:	fe843703          	ld	a4,-24(s0)
     c46:	fd843783          	ld	a5,-40(s0)
     c4a:	40f707b3          	sub	a5,a4,a5
     c4e:	0007871b          	sext.w	a4,a5
     c52:	fd442783          	lw	a5,-44(s0)
     c56:	2781                	sext.w	a5,a5
     c58:	f2f76fe3          	bltu	a4,a5,b96 <UnityPrintLen+0x22>
     c5c:	0001                	nop
     c5e:	70a2                	ld	ra,40(sp)
     c60:	7402                	ld	s0,32(sp)
     c62:	6145                	addi	sp,sp,48
     c64:	8082                	ret

0000000000000c66 <UnityPrintNumberByStyle>:
     c66:	1101                	addi	sp,sp,-32
     c68:	ec06                	sd	ra,24(sp)
     c6a:	e822                	sd	s0,16(sp)
     c6c:	1000                	addi	s0,sp,32
     c6e:	fea43423          	sd	a0,-24(s0)
     c72:	87ae                	mv	a5,a1
     c74:	fef42223          	sw	a5,-28(s0)
     c78:	fe442783          	lw	a5,-28(s0)
     c7c:	8bc1                	andi	a5,a5,16
     c7e:	2781                	sext.w	a5,a5
     c80:	c3dd                	beqz	a5,d26 <UnityPrintNumberByStyle+0xc0>
     c82:	fe442783          	lw	a5,-28(s0)
     c86:	0007871b          	sext.w	a4,a5
     c8a:	09100793          	li	a5,145
     c8e:	08f71763          	bne	a4,a5,d1c <UnityPrintNumberByStyle+0xb6>
     c92:	02700513          	li	a0,39
     c96:	9fbff0ef          	jal	ra,690 <putchar@plt>
     c9a:	fe843703          	ld	a4,-24(s0)
     c9e:	07e00793          	li	a5,126
     ca2:	00e7ce63          	blt	a5,a4,cbe <UnityPrintNumberByStyle+0x58>
     ca6:	fe843703          	ld	a4,-24(s0)
     caa:	47fd                	li	a5,31
     cac:	00e7d963          	bge	a5,a4,cbe <UnityPrintNumberByStyle+0x58>
     cb0:	fe843783          	ld	a5,-24(s0)
     cb4:	2781                	sext.w	a5,a5
     cb6:	853e                	mv	a0,a5
     cb8:	9d9ff0ef          	jal	ra,690 <putchar@plt>
     cbc:	a899                	j	d12 <UnityPrintNumberByStyle+0xac>
     cbe:	fe843703          	ld	a4,-24(s0)
     cc2:	47b5                	li	a5,13
     cc4:	00f71b63          	bne	a4,a5,cda <UnityPrintNumberByStyle+0x74>
     cc8:	05c00513          	li	a0,92
     ccc:	9c5ff0ef          	jal	ra,690 <putchar@plt>
     cd0:	07200513          	li	a0,114
     cd4:	9bdff0ef          	jal	ra,690 <putchar@plt>
     cd8:	a82d                	j	d12 <UnityPrintNumberByStyle+0xac>
     cda:	fe843703          	ld	a4,-24(s0)
     cde:	47a9                	li	a5,10
     ce0:	00f71b63          	bne	a4,a5,cf6 <UnityPrintNumberByStyle+0x90>
     ce4:	05c00513          	li	a0,92
     ce8:	9a9ff0ef          	jal	ra,690 <putchar@plt>
     cec:	06e00513          	li	a0,110
     cf0:	9a1ff0ef          	jal	ra,690 <putchar@plt>
     cf4:	a839                	j	d12 <UnityPrintNumberByStyle+0xac>
     cf6:	05c00513          	li	a0,92
     cfa:	997ff0ef          	jal	ra,690 <putchar@plt>
     cfe:	07800513          	li	a0,120
     d02:	98fff0ef          	jal	ra,690 <putchar@plt>
     d06:	fe843783          	ld	a5,-24(s0)
     d0a:	4589                	li	a1,2
     d0c:	853e                	mv	a0,a5
     d0e:	12a000ef          	jal	ra,e38 <UnityPrintNumberHex>
     d12:	02700513          	li	a0,39
     d16:	97bff0ef          	jal	ra,690 <putchar@plt>
     d1a:	a899                	j	d70 <UnityPrintNumberByStyle+0x10a>
     d1c:	fe843503          	ld	a0,-24(s0)
     d20:	05a000ef          	jal	ra,d7a <UnityPrintNumber>
     d24:	a0b1                	j	d70 <UnityPrintNumberByStyle+0x10a>
     d26:	fe442783          	lw	a5,-28(s0)
     d2a:	0207f793          	andi	a5,a5,32
     d2e:	2781                	sext.w	a5,a5
     d30:	c799                	beqz	a5,d3e <UnityPrintNumberByStyle+0xd8>
     d32:	fe843783          	ld	a5,-24(s0)
     d36:	853e                	mv	a0,a5
     d38:	084000ef          	jal	ra,dbc <UnityPrintNumberUnsigned>
     d3c:	a815                	j	d70 <UnityPrintNumberByStyle+0x10a>
     d3e:	03000513          	li	a0,48
     d42:	94fff0ef          	jal	ra,690 <putchar@plt>
     d46:	07800513          	li	a0,120
     d4a:	947ff0ef          	jal	ra,690 <putchar@plt>
     d4e:	fe843703          	ld	a4,-24(s0)
     d52:	fe442783          	lw	a5,-28(s0)
     d56:	0ff7f793          	zext.b	a5,a5
     d5a:	8bbd                	andi	a5,a5,15
     d5c:	0ff7f793          	zext.b	a5,a5
     d60:	0017979b          	slliw	a5,a5,0x1
     d64:	0ff7f793          	zext.b	a5,a5
     d68:	85be                	mv	a1,a5
     d6a:	853a                	mv	a0,a4
     d6c:	0cc000ef          	jal	ra,e38 <UnityPrintNumberHex>
     d70:	0001                	nop
     d72:	60e2                	ld	ra,24(sp)
     d74:	6442                	ld	s0,16(sp)
     d76:	6105                	addi	sp,sp,32
     d78:	8082                	ret

0000000000000d7a <UnityPrintNumber>:
     d7a:	7179                	addi	sp,sp,-48
     d7c:	f406                	sd	ra,40(sp)
     d7e:	f022                	sd	s0,32(sp)
     d80:	1800                	addi	s0,sp,48
     d82:	fca43c23          	sd	a0,-40(s0)
     d86:	fd843783          	ld	a5,-40(s0)
     d8a:	fef43423          	sd	a5,-24(s0)
     d8e:	fd843783          	ld	a5,-40(s0)
     d92:	0007dc63          	bgez	a5,daa <UnityPrintNumber+0x30>
     d96:	02d00513          	li	a0,45
     d9a:	8f7ff0ef          	jal	ra,690 <putchar@plt>
     d9e:	fe843783          	ld	a5,-24(s0)
     da2:	40f007b3          	neg	a5,a5
     da6:	fef43423          	sd	a5,-24(s0)
     daa:	fe843503          	ld	a0,-24(s0)
     dae:	00e000ef          	jal	ra,dbc <UnityPrintNumberUnsigned>
     db2:	0001                	nop
     db4:	70a2                	ld	ra,40(sp)
     db6:	7402                	ld	s0,32(sp)
     db8:	6145                	addi	sp,sp,48
     dba:	8082                	ret

0000000000000dbc <UnityPrintNumberUnsigned>:
     dbc:	7179                	addi	sp,sp,-48
     dbe:	f406                	sd	ra,40(sp)
     dc0:	f022                	sd	s0,32(sp)
     dc2:	1800                	addi	s0,sp,48
     dc4:	fca43c23          	sd	a0,-40(s0)
     dc8:	4785                	li	a5,1
     dca:	fef43423          	sd	a5,-24(s0)
     dce:	a809                	j	de0 <UnityPrintNumberUnsigned+0x24>
     dd0:	fe843703          	ld	a4,-24(s0)
     dd4:	87ba                	mv	a5,a4
     dd6:	078a                	slli	a5,a5,0x2
     dd8:	97ba                	add	a5,a5,a4
     dda:	0786                	slli	a5,a5,0x1
     ddc:	fef43423          	sd	a5,-24(s0)
     de0:	fd843703          	ld	a4,-40(s0)
     de4:	fe843783          	ld	a5,-24(s0)
     de8:	02f75733          	divu	a4,a4,a5
     dec:	47a5                	li	a5,9
     dee:	fee7e1e3          	bltu	a5,a4,dd0 <UnityPrintNumberUnsigned+0x14>
     df2:	fd843703          	ld	a4,-40(s0)
     df6:	fe843783          	ld	a5,-24(s0)
     dfa:	02f75733          	divu	a4,a4,a5
     dfe:	47a9                	li	a5,10
     e00:	02f777b3          	remu	a5,a4,a5
     e04:	0ff7f793          	zext.b	a5,a5
     e08:	0307879b          	addiw	a5,a5,48
     e0c:	0ff7f793          	zext.b	a5,a5
     e10:	2781                	sext.w	a5,a5
     e12:	853e                	mv	a0,a5
     e14:	87dff0ef          	jal	ra,690 <putchar@plt>
     e18:	fe843703          	ld	a4,-24(s0)
     e1c:	47a9                	li	a5,10
     e1e:	02f757b3          	divu	a5,a4,a5
     e22:	fef43423          	sd	a5,-24(s0)
     e26:	fe843783          	ld	a5,-24(s0)
     e2a:	f7e1                	bnez	a5,df2 <UnityPrintNumberUnsigned+0x36>
     e2c:	0001                	nop
     e2e:	0001                	nop
     e30:	70a2                	ld	ra,40(sp)
     e32:	7402                	ld	s0,32(sp)
     e34:	6145                	addi	sp,sp,48
     e36:	8082                	ret

0000000000000e38 <UnityPrintNumberHex>:
     e38:	7179                	addi	sp,sp,-48
     e3a:	f406                	sd	ra,40(sp)
     e3c:	f022                	sd	s0,32(sp)
     e3e:	1800                	addi	s0,sp,48
     e40:	fca43c23          	sd	a0,-40(s0)
     e44:	87ae                	mv	a5,a1
     e46:	fcf40ba3          	sb	a5,-41(s0)
     e4a:	fd744783          	lbu	a5,-41(s0)
     e4e:	fef407a3          	sb	a5,-17(s0)
     e52:	fef44783          	lbu	a5,-17(s0)
     e56:	0ff7f713          	zext.b	a4,a5
     e5a:	47c1                	li	a5,16
     e5c:	06e7fa63          	bgeu	a5,a4,ed0 <UnityPrintNumberHex+0x98>
     e60:	47c1                	li	a5,16
     e62:	fef407a3          	sb	a5,-17(s0)
     e66:	a0ad                	j	ed0 <UnityPrintNumberHex+0x98>
     e68:	fef44783          	lbu	a5,-17(s0)
     e6c:	37fd                	addiw	a5,a5,-1
     e6e:	fef407a3          	sb	a5,-17(s0)
     e72:	fef44783          	lbu	a5,-17(s0)
     e76:	2781                	sext.w	a5,a5
     e78:	0027979b          	slliw	a5,a5,0x2
     e7c:	2781                	sext.w	a5,a5
     e7e:	873e                	mv	a4,a5
     e80:	fd843783          	ld	a5,-40(s0)
     e84:	00e7d7b3          	srl	a5,a5,a4
     e88:	2781                	sext.w	a5,a5
     e8a:	8bbd                	andi	a5,a5,15
     e8c:	fef42423          	sw	a5,-24(s0)
     e90:	fe842783          	lw	a5,-24(s0)
     e94:	0007871b          	sext.w	a4,a5
     e98:	47a5                	li	a5,9
     e9a:	00e7cf63          	blt	a5,a4,eb8 <UnityPrintNumberHex+0x80>
     e9e:	fe842783          	lw	a5,-24(s0)
     ea2:	0ff7f793          	zext.b	a5,a5
     ea6:	0307879b          	addiw	a5,a5,48
     eaa:	0ff7f793          	zext.b	a5,a5
     eae:	2781                	sext.w	a5,a5
     eb0:	853e                	mv	a0,a5
     eb2:	fdeff0ef          	jal	ra,690 <putchar@plt>
     eb6:	a829                	j	ed0 <UnityPrintNumberHex+0x98>
     eb8:	fe842783          	lw	a5,-24(s0)
     ebc:	0ff7f793          	zext.b	a5,a5
     ec0:	0377879b          	addiw	a5,a5,55
     ec4:	0ff7f793          	zext.b	a5,a5
     ec8:	2781                	sext.w	a5,a5
     eca:	853e                	mv	a0,a5
     ecc:	fc4ff0ef          	jal	ra,690 <putchar@plt>
     ed0:	fef44783          	lbu	a5,-17(s0)
     ed4:	0ff7f793          	zext.b	a5,a5
     ed8:	fbc1                	bnez	a5,e68 <UnityPrintNumberHex+0x30>
     eda:	0001                	nop
     edc:	0001                	nop
     ede:	70a2                	ld	ra,40(sp)
     ee0:	7402                	ld	s0,32(sp)
     ee2:	6145                	addi	sp,sp,48
     ee4:	8082                	ret

0000000000000ee6 <UnityPrintMask>:
     ee6:	7179                	addi	sp,sp,-48
     ee8:	f406                	sd	ra,40(sp)
     eea:	f022                	sd	s0,32(sp)
     eec:	1800                	addi	s0,sp,48
     eee:	fca43c23          	sd	a0,-40(s0)
     ef2:	fcb43823          	sd	a1,-48(s0)
     ef6:	4785                	li	a5,1
     ef8:	07fe                	slli	a5,a5,0x1f
     efa:	fef43423          	sd	a5,-24(s0)
     efe:	fe042223          	sw	zero,-28(s0)
     f02:	a0a9                	j	f4c <UnityPrintMask+0x66>
     f04:	fe843703          	ld	a4,-24(s0)
     f08:	fd843783          	ld	a5,-40(s0)
     f0c:	8ff9                	and	a5,a5,a4
     f0e:	c38d                	beqz	a5,f30 <UnityPrintMask+0x4a>
     f10:	fe843703          	ld	a4,-24(s0)
     f14:	fd043783          	ld	a5,-48(s0)
     f18:	8ff9                	and	a5,a5,a4
     f1a:	c791                	beqz	a5,f26 <UnityPrintMask+0x40>
     f1c:	03100513          	li	a0,49
     f20:	f70ff0ef          	jal	ra,690 <putchar@plt>
     f24:	a811                	j	f38 <UnityPrintMask+0x52>
     f26:	03000513          	li	a0,48
     f2a:	f66ff0ef          	jal	ra,690 <putchar@plt>
     f2e:	a029                	j	f38 <UnityPrintMask+0x52>
     f30:	05800513          	li	a0,88
     f34:	f5cff0ef          	jal	ra,690 <putchar@plt>
     f38:	fe843783          	ld	a5,-24(s0)
     f3c:	8385                	srli	a5,a5,0x1
     f3e:	fef43423          	sd	a5,-24(s0)
     f42:	fe442783          	lw	a5,-28(s0)
     f46:	2785                	addiw	a5,a5,1
     f48:	fef42223          	sw	a5,-28(s0)
     f4c:	fe442783          	lw	a5,-28(s0)
     f50:	0007871b          	sext.w	a4,a5
     f54:	47fd                	li	a5,31
     f56:	fae7d7e3          	bge	a5,a4,f04 <UnityPrintMask+0x1e>
     f5a:	0001                	nop
     f5c:	0001                	nop
     f5e:	70a2                	ld	ra,40(sp)
     f60:	7402                	ld	s0,32(sp)
     f62:	6145                	addi	sp,sp,48
     f64:	8082                	ret

0000000000000f66 <UnityPrintFloat>:
     f66:	711d                	addi	sp,sp,-96
     f68:	ec86                	sd	ra,88(sp)
     f6a:	e8a2                	sd	s0,80(sp)
     f6c:	1080                	addi	s0,sp,96
     f6e:	faa42627          	fsw	fa0,-84(s0)
     f72:	fac42787          	flw	fa5,-84(s0)
     f76:	fef42627          	fsw	fa5,-20(s0)
     f7a:	fec42787          	flw	fa5,-20(s0)
     f7e:	f0000753          	fmv.w.x	fa4,zero
     f82:	a0e797d3          	flt.s	a5,fa5,fa4
     f86:	cb99                	beqz	a5,f9c <UnityPrintFloat+0x36>
     f88:	02d00513          	li	a0,45
     f8c:	f04ff0ef          	jal	ra,690 <putchar@plt>
     f90:	fec42787          	flw	fa5,-20(s0)
     f94:	20f797d3          	fneg.s	fa5,fa5
     f98:	fef42627          	fsw	fa5,-20(s0)
     f9c:	fec42787          	flw	fa5,-20(s0)
     fa0:	f0000753          	fmv.w.x	fa4,zero
     fa4:	a0e7a7d3          	feq.s	a5,fa5,fa4
     fa8:	cb81                	beqz	a5,fb8 <UnityPrintFloat+0x52>
     faa:	00003517          	auipc	a0,0x3
     fae:	d9e50513          	addi	a0,a0,-610 # 3d48 <UnityStrDetail2Name+0x10>
     fb2:	b47ff0ef          	jal	ra,af8 <UnityPrint>
     fb6:	ab09                	j	14c8 <UnityPrintFloat+0x562>
     fb8:	fec42507          	flw	fa0,-20(s0)
     fbc:	9f5ff0ef          	jal	ra,9b0 <__FLOAT_BITS>
     fc0:	87aa                	mv	a5,a0
     fc2:	2781                	sext.w	a5,a5
     fc4:	873e                	mv	a4,a5
     fc6:	800007b7          	lui	a5,0x80000
     fca:	fff7c793          	not	a5,a5
     fce:	8ff9                	and	a5,a5,a4
     fd0:	2781                	sext.w	a5,a5
     fd2:	873e                	mv	a4,a5
     fd4:	7f8007b7          	lui	a5,0x7f800
     fd8:	00e7f963          	bgeu	a5,a4,fea <UnityPrintFloat+0x84>
     fdc:	00003517          	auipc	a0,0x3
     fe0:	d7450513          	addi	a0,a0,-652 # 3d50 <UnityStrDetail2Name+0x18>
     fe4:	b15ff0ef          	jal	ra,af8 <UnityPrint>
     fe8:	a1c5                	j	14c8 <UnityPrintFloat+0x562>
     fea:	fec42507          	flw	fa0,-20(s0)
     fee:	9c3ff0ef          	jal	ra,9b0 <__FLOAT_BITS>
     ff2:	87aa                	mv	a5,a0
     ff4:	2781                	sext.w	a5,a5
     ff6:	873e                	mv	a4,a5
     ff8:	800007b7          	lui	a5,0x80000
     ffc:	fff7c793          	not	a5,a5
    1000:	8ff9                	and	a5,a5,a4
    1002:	2781                	sext.w	a5,a5
    1004:	873e                	mv	a4,a5
    1006:	7f8007b7          	lui	a5,0x7f800
    100a:	00f71963          	bne	a4,a5,101c <UnityPrintFloat+0xb6>
    100e:	00003517          	auipc	a0,0x3
    1012:	d4a50513          	addi	a0,a0,-694 # 3d58 <UnityStrDetail2Name+0x20>
    1016:	ae3ff0ef          	jal	ra,af8 <UnityPrint>
    101a:	a17d                	j	14c8 <UnityPrintFloat+0x562>
    101c:	fe042423          	sw	zero,-24(s0)
    1020:	fe042023          	sw	zero,-32(s0)
    1024:	fa043c23          	sd	zero,-72(s0)
    1028:	fc043023          	sd	zero,-64(s0)
    102c:	fec42707          	flw	fa4,-20(s0)
    1030:	00003797          	auipc	a5,0x3
    1034:	d4478793          	addi	a5,a5,-700 # 3d74 <sig_digits.0+0x4>
    1038:	0007a787          	flw	fa5,0(a5)
    103c:	a0f717d3          	flt.s	a5,fa4,fa5
    1040:	cbd5                	beqz	a5,10f4 <UnityPrintFloat+0x18e>
    1042:	00003797          	auipc	a5,0x3
    1046:	d3278793          	addi	a5,a5,-718 # 3d74 <sig_digits.0+0x4>
    104a:	0007a787          	flw	fa5,0(a5)
    104e:	fcf42a27          	fsw	fa5,-44(s0)
    1052:	a015                	j	1076 <UnityPrintFloat+0x110>
    1054:	fec42707          	flw	fa4,-20(s0)
    1058:	00003797          	auipc	a5,0x3
    105c:	d2078793          	addi	a5,a5,-736 # 3d78 <sig_digits.0+0x8>
    1060:	0007a787          	flw	fa5,0(a5)
    1064:	10f777d3          	fmul.s	fa5,fa4,fa5
    1068:	fef42627          	fsw	fa5,-20(s0)
    106c:	fe042783          	lw	a5,-32(s0)
    1070:	37d9                	addiw	a5,a5,-10
    1072:	fef42023          	sw	a5,-32(s0)
    1076:	00003797          	auipc	a5,0x3
    107a:	cf278793          	addi	a5,a5,-782 # 3d68 <max_scaled.2>
    107e:	439c                	lw	a5,0(a5)
    1080:	d007f753          	fcvt.s.w	fa4,a5
    1084:	00003797          	auipc	a5,0x3
    1088:	cf478793          	addi	a5,a5,-780 # 3d78 <sig_digits.0+0x8>
    108c:	0007a787          	flw	fa5,0(a5)
    1090:	18f777d3          	fdiv.s	fa5,fa4,fa5
    1094:	fec42707          	flw	fa4,-20(s0)
    1098:	a0f717d3          	flt.s	a5,fa4,fa5
    109c:	ffc5                	bnez	a5,1054 <UnityPrintFloat+0xee>
    109e:	a015                	j	10c2 <UnityPrintFloat+0x15c>
    10a0:	fd442707          	flw	fa4,-44(s0)
    10a4:	00003797          	auipc	a5,0x3
    10a8:	cd878793          	addi	a5,a5,-808 # 3d7c <sig_digits.0+0xc>
    10ac:	0007a787          	flw	fa5,0(a5)
    10b0:	10f777d3          	fmul.s	fa5,fa4,fa5
    10b4:	fcf42a27          	fsw	fa5,-44(s0)
    10b8:	fe042783          	lw	a5,-32(s0)
    10bc:	37fd                	addiw	a5,a5,-1
    10be:	fef42023          	sw	a5,-32(s0)
    10c2:	fec42707          	flw	fa4,-20(s0)
    10c6:	fd442787          	flw	fa5,-44(s0)
    10ca:	10f77753          	fmul.s	fa4,fa4,fa5
    10ce:	00003797          	auipc	a5,0x3
    10d2:	c9e78793          	addi	a5,a5,-866 # 3d6c <min_scaled.1>
    10d6:	439c                	lw	a5,0(a5)
    10d8:	d007f7d3          	fcvt.s.w	fa5,a5
    10dc:	a0f717d3          	flt.s	a5,fa4,fa5
    10e0:	f3e1                	bnez	a5,10a0 <UnityPrintFloat+0x13a>
    10e2:	fec42707          	flw	fa4,-20(s0)
    10e6:	fd442787          	flw	fa5,-44(s0)
    10ea:	10f777d3          	fmul.s	fa5,fa4,fa5
    10ee:	fef42627          	fsw	fa5,-20(s0)
    10f2:	aaa9                	j	124c <UnityPrintFloat+0x2e6>
    10f4:	00003797          	auipc	a5,0x3
    10f8:	c7478793          	addi	a5,a5,-908 # 3d68 <max_scaled.2>
    10fc:	439c                	lw	a5,0(a5)
    10fe:	d007f7d3          	fcvt.s.w	fa5,a5
    1102:	fec42707          	flw	fa4,-20(s0)
    1106:	a0e797d3          	flt.s	a5,fa5,fa4
    110a:	cbd5                	beqz	a5,11be <UnityPrintFloat+0x258>
    110c:	00003797          	auipc	a5,0x3
    1110:	c6878793          	addi	a5,a5,-920 # 3d74 <sig_digits.0+0x4>
    1114:	0007a787          	flw	fa5,0(a5)
    1118:	fcf42827          	fsw	fa5,-48(s0)
    111c:	a015                	j	1140 <UnityPrintFloat+0x1da>
    111e:	fec42707          	flw	fa4,-20(s0)
    1122:	00003797          	auipc	a5,0x3
    1126:	c5678793          	addi	a5,a5,-938 # 3d78 <sig_digits.0+0x8>
    112a:	0007a787          	flw	fa5,0(a5)
    112e:	18f777d3          	fdiv.s	fa5,fa4,fa5
    1132:	fef42627          	fsw	fa5,-20(s0)
    1136:	fe042783          	lw	a5,-32(s0)
    113a:	27a9                	addiw	a5,a5,10
    113c:	fef42023          	sw	a5,-32(s0)
    1140:	00003797          	auipc	a5,0x3
    1144:	c2c78793          	addi	a5,a5,-980 # 3d6c <min_scaled.1>
    1148:	439c                	lw	a5,0(a5)
    114a:	d007f753          	fcvt.s.w	fa4,a5
    114e:	00003797          	auipc	a5,0x3
    1152:	c2a78793          	addi	a5,a5,-982 # 3d78 <sig_digits.0+0x8>
    1156:	0007a787          	flw	fa5,0(a5)
    115a:	10f777d3          	fmul.s	fa5,fa4,fa5
    115e:	fec42707          	flw	fa4,-20(s0)
    1162:	a0e797d3          	flt.s	a5,fa5,fa4
    1166:	ffc5                	bnez	a5,111e <UnityPrintFloat+0x1b8>
    1168:	a015                	j	118c <UnityPrintFloat+0x226>
    116a:	fd042707          	flw	fa4,-48(s0)
    116e:	00003797          	auipc	a5,0x3
    1172:	c0e78793          	addi	a5,a5,-1010 # 3d7c <sig_digits.0+0xc>
    1176:	0007a787          	flw	fa5,0(a5)
    117a:	10f777d3          	fmul.s	fa5,fa4,fa5
    117e:	fcf42827          	fsw	fa5,-48(s0)
    1182:	fe042783          	lw	a5,-32(s0)
    1186:	2785                	addiw	a5,a5,1
    1188:	fef42023          	sw	a5,-32(s0)
    118c:	fec42707          	flw	fa4,-20(s0)
    1190:	fd042787          	flw	fa5,-48(s0)
    1194:	18f77753          	fdiv.s	fa4,fa4,fa5
    1198:	00003797          	auipc	a5,0x3
    119c:	bd078793          	addi	a5,a5,-1072 # 3d68 <max_scaled.2>
    11a0:	439c                	lw	a5,0(a5)
    11a2:	d007f7d3          	fcvt.s.w	fa5,a5
    11a6:	a0e797d3          	flt.s	a5,fa5,fa4
    11aa:	f3e1                	bnez	a5,116a <UnityPrintFloat+0x204>
    11ac:	fec42707          	flw	fa4,-20(s0)
    11b0:	fd042787          	flw	fa5,-48(s0)
    11b4:	18f777d3          	fdiv.s	fa5,fa4,fa5
    11b8:	fef42627          	fsw	fa5,-20(s0)
    11bc:	a841                	j	124c <UnityPrintFloat+0x2e6>
    11be:	00003797          	auipc	a5,0x3
    11c2:	bb678793          	addi	a5,a5,-1098 # 3d74 <sig_digits.0+0x4>
    11c6:	0007a787          	flw	fa5,0(a5)
    11ca:	fcf42627          	fsw	fa5,-52(s0)
    11ce:	fec42787          	flw	fa5,-20(s0)
    11d2:	c00797d3          	fcvt.w.s	a5,fa5,rtz
    11d6:	fef42423          	sw	a5,-24(s0)
    11da:	fe842783          	lw	a5,-24(s0)
    11de:	d007f7d3          	fcvt.s.w	fa5,a5
    11e2:	fec42707          	flw	fa4,-20(s0)
    11e6:	08f777d3          	fsub.s	fa5,fa4,fa5
    11ea:	fef42627          	fsw	fa5,-20(s0)
    11ee:	a82d                	j	1228 <UnityPrintFloat+0x2c2>
    11f0:	fe842783          	lw	a5,-24(s0)
    11f4:	873e                	mv	a4,a5
    11f6:	87ba                	mv	a5,a4
    11f8:	0027979b          	slliw	a5,a5,0x2
    11fc:	9fb9                	addw	a5,a5,a4
    11fe:	0017979b          	slliw	a5,a5,0x1
    1202:	fef42423          	sw	a5,-24(s0)
    1206:	fcc42707          	flw	fa4,-52(s0)
    120a:	00003797          	auipc	a5,0x3
    120e:	b7278793          	addi	a5,a5,-1166 # 3d7c <sig_digits.0+0xc>
    1212:	0007a787          	flw	fa5,0(a5)
    1216:	10f777d3          	fmul.s	fa5,fa4,fa5
    121a:	fcf42627          	fsw	fa5,-52(s0)
    121e:	fe042783          	lw	a5,-32(s0)
    1222:	37fd                	addiw	a5,a5,-1
    1224:	fef42023          	sw	a5,-32(s0)
    1228:	00003797          	auipc	a5,0x3
    122c:	b4478793          	addi	a5,a5,-1212 # 3d6c <min_scaled.1>
    1230:	4398                	lw	a4,0(a5)
    1232:	fe842783          	lw	a5,-24(s0)
    1236:	2781                	sext.w	a5,a5
    1238:	fae7cce3          	blt	a5,a4,11f0 <UnityPrintFloat+0x28a>
    123c:	fec42707          	flw	fa4,-20(s0)
    1240:	fcc42787          	flw	fa5,-52(s0)
    1244:	10f777d3          	fmul.s	fa5,fa4,fa5
    1248:	fef42627          	fsw	fa5,-20(s0)
    124c:	fec42787          	flw	fa5,-20(s0)
    1250:	00f7f7d3          	fadd.s	fa5,fa5,fa5
    1254:	c00797d3          	fcvt.w.s	a5,fa5,rtz
    1258:	2781                	sext.w	a5,a5
    125a:	2785                	addiw	a5,a5,1
    125c:	2781                	sext.w	a5,a5
    125e:	01f7d71b          	srliw	a4,a5,0x1f
    1262:	9fb9                	addw	a5,a5,a4
    1264:	4017d79b          	sraiw	a5,a5,0x1
    1268:	fef42223          	sw	a5,-28(s0)
    126c:	fe442783          	lw	a5,-28(s0)
    1270:	8b85                	andi	a5,a5,1
    1272:	2781                	sext.w	a5,a5
    1274:	c79d                	beqz	a5,12a2 <UnityPrintFloat+0x33c>
    1276:	fe442783          	lw	a5,-28(s0)
    127a:	d007f753          	fcvt.s.w	fa4,a5
    127e:	fec42787          	flw	fa5,-20(s0)
    1282:	08f77753          	fsub.s	fa4,fa4,fa5
    1286:	00003797          	auipc	a5,0x3
    128a:	afa78793          	addi	a5,a5,-1286 # 3d80 <sig_digits.0+0x10>
    128e:	0007a787          	flw	fa5,0(a5)
    1292:	a0f727d3          	feq.s	a5,fa4,fa5
    1296:	c791                	beqz	a5,12a2 <UnityPrintFloat+0x33c>
    1298:	fe442783          	lw	a5,-28(s0)
    129c:	37fd                	addiw	a5,a5,-1
    129e:	fef42223          	sw	a5,-28(s0)
    12a2:	fe442783          	lw	a5,-28(s0)
    12a6:	873e                	mv	a4,a5
    12a8:	fe842783          	lw	a5,-24(s0)
    12ac:	9fb9                	addw	a5,a5,a4
    12ae:	fef42223          	sw	a5,-28(s0)
    12b2:	00003797          	auipc	a5,0x3
    12b6:	ab678793          	addi	a5,a5,-1354 # 3d68 <max_scaled.2>
    12ba:	4398                	lw	a4,0(a5)
    12bc:	fe442783          	lw	a5,-28(s0)
    12c0:	2781                	sext.w	a5,a5
    12c2:	00e7ce63          	blt	a5,a4,12de <UnityPrintFloat+0x378>
    12c6:	00003797          	auipc	a5,0x3
    12ca:	aa678793          	addi	a5,a5,-1370 # 3d6c <min_scaled.1>
    12ce:	439c                	lw	a5,0(a5)
    12d0:	fef42223          	sw	a5,-28(s0)
    12d4:	fe042783          	lw	a5,-32(s0)
    12d8:	2785                	addiw	a5,a5,1
    12da:	fef42023          	sw	a5,-32(s0)
    12de:	fe042783          	lw	a5,-32(s0)
    12e2:	2781                	sext.w	a5,a5
    12e4:	02f04763          	bgtz	a5,1312 <UnityPrintFloat+0x3ac>
    12e8:	00003797          	auipc	a5,0x3
    12ec:	a8878793          	addi	a5,a5,-1400 # 3d70 <sig_digits.0>
    12f0:	439c                	lw	a5,0(a5)
    12f2:	5775                	li	a4,-3
    12f4:	40f707bb          	subw	a5,a4,a5
    12f8:	0007871b          	sext.w	a4,a5
    12fc:	fe042783          	lw	a5,-32(s0)
    1300:	2781                	sext.w	a5,a5
    1302:	00e7c863          	blt	a5,a4,1312 <UnityPrintFloat+0x3ac>
    1306:	fe042783          	lw	a5,-32(s0)
    130a:	40f007bb          	negw	a5,a5
    130e:	2781                	sext.w	a5,a5
    1310:	a801                	j	1320 <UnityPrintFloat+0x3ba>
    1312:	00003797          	auipc	a5,0x3
    1316:	a5e78793          	addi	a5,a5,-1442 # 3d70 <sig_digits.0>
    131a:	439c                	lw	a5,0(a5)
    131c:	37fd                	addiw	a5,a5,-1
    131e:	2781                	sext.w	a5,a5
    1320:	fcf42e23          	sw	a5,-36(s0)
    1324:	fe042783          	lw	a5,-32(s0)
    1328:	873e                	mv	a4,a5
    132a:	fdc42783          	lw	a5,-36(s0)
    132e:	9fb9                	addw	a5,a5,a4
    1330:	fef42023          	sw	a5,-32(s0)
    1334:	a831                	j	1350 <UnityPrintFloat+0x3ea>
    1336:	fe442783          	lw	a5,-28(s0)
    133a:	873e                	mv	a4,a5
    133c:	47a9                	li	a5,10
    133e:	02f747bb          	divw	a5,a4,a5
    1342:	fef42223          	sw	a5,-28(s0)
    1346:	fdc42783          	lw	a5,-36(s0)
    134a:	37fd                	addiw	a5,a5,-1
    134c:	fcf42e23          	sw	a5,-36(s0)
    1350:	fdc42783          	lw	a5,-36(s0)
    1354:	2781                	sext.w	a5,a5
    1356:	00f05a63          	blez	a5,136a <UnityPrintFloat+0x404>
    135a:	fe442783          	lw	a5,-28(s0)
    135e:	873e                	mv	a4,a5
    1360:	47a9                	li	a5,10
    1362:	02f767bb          	remw	a5,a4,a5
    1366:	2781                	sext.w	a5,a5
    1368:	d7f9                	beqz	a5,1336 <UnityPrintFloat+0x3d0>
    136a:	fc042c23          	sw	zero,-40(s0)
    136e:	a081                	j	13ae <UnityPrintFloat+0x448>
    1370:	fe442783          	lw	a5,-28(s0)
    1374:	873e                	mv	a4,a5
    1376:	47a9                	li	a5,10
    1378:	02f767bb          	remw	a5,a4,a5
    137c:	2781                	sext.w	a5,a5
    137e:	0ff7f713          	zext.b	a4,a5
    1382:	fd842783          	lw	a5,-40(s0)
    1386:	0017869b          	addiw	a3,a5,1
    138a:	fcd42c23          	sw	a3,-40(s0)
    138e:	0307071b          	addiw	a4,a4,48
    1392:	0ff77713          	zext.b	a4,a4
    1396:	17c1                	addi	a5,a5,-16
    1398:	97a2                	add	a5,a5,s0
    139a:	fce78423          	sb	a4,-56(a5)
    139e:	fe442783          	lw	a5,-28(s0)
    13a2:	873e                	mv	a4,a5
    13a4:	47a9                	li	a5,10
    13a6:	02f747bb          	divw	a5,a4,a5
    13aa:	fef42223          	sw	a5,-28(s0)
    13ae:	fe442783          	lw	a5,-28(s0)
    13b2:	2781                	sext.w	a5,a5
    13b4:	ffd5                	bnez	a5,1370 <UnityPrintFloat+0x40a>
    13b6:	fd842783          	lw	a5,-40(s0)
    13ba:	873e                	mv	a4,a5
    13bc:	fdc42783          	lw	a5,-36(s0)
    13c0:	2701                	sext.w	a4,a4
    13c2:	2781                	sext.w	a5,a5
    13c4:	fae7d6e3          	bge	a5,a4,1370 <UnityPrintFloat+0x40a>
    13c8:	a82d                	j	1402 <UnityPrintFloat+0x49c>
    13ca:	fd842783          	lw	a5,-40(s0)
    13ce:	873e                	mv	a4,a5
    13d0:	fdc42783          	lw	a5,-36(s0)
    13d4:	2701                	sext.w	a4,a4
    13d6:	2781                	sext.w	a5,a5
    13d8:	00f71663          	bne	a4,a5,13e4 <UnityPrintFloat+0x47e>
    13dc:	02e00513          	li	a0,46
    13e0:	ab0ff0ef          	jal	ra,690 <putchar@plt>
    13e4:	fd842783          	lw	a5,-40(s0)
    13e8:	37fd                	addiw	a5,a5,-1
    13ea:	fcf42c23          	sw	a5,-40(s0)
    13ee:	fd842783          	lw	a5,-40(s0)
    13f2:	17c1                	addi	a5,a5,-16
    13f4:	97a2                	add	a5,a5,s0
    13f6:	fc87c783          	lbu	a5,-56(a5)
    13fa:	2781                	sext.w	a5,a5
    13fc:	853e                	mv	a0,a5
    13fe:	a92ff0ef          	jal	ra,690 <putchar@plt>
    1402:	fd842783          	lw	a5,-40(s0)
    1406:	2781                	sext.w	a5,a5
    1408:	fcf041e3          	bgtz	a5,13ca <UnityPrintFloat+0x464>
    140c:	fe042783          	lw	a5,-32(s0)
    1410:	2781                	sext.w	a5,a5
    1412:	cbdd                	beqz	a5,14c8 <UnityPrintFloat+0x562>
    1414:	06500513          	li	a0,101
    1418:	a78ff0ef          	jal	ra,690 <putchar@plt>
    141c:	fe042783          	lw	a5,-32(s0)
    1420:	2781                	sext.w	a5,a5
    1422:	0007dd63          	bgez	a5,143c <UnityPrintFloat+0x4d6>
    1426:	02d00513          	li	a0,45
    142a:	a66ff0ef          	jal	ra,690 <putchar@plt>
    142e:	fe042783          	lw	a5,-32(s0)
    1432:	40f007bb          	negw	a5,a5
    1436:	fef42023          	sw	a5,-32(s0)
    143a:	a029                	j	1444 <UnityPrintFloat+0x4de>
    143c:	02b00513          	li	a0,43
    1440:	a50ff0ef          	jal	ra,690 <putchar@plt>
    1444:	fc042c23          	sw	zero,-40(s0)
    1448:	a081                	j	1488 <UnityPrintFloat+0x522>
    144a:	fe042783          	lw	a5,-32(s0)
    144e:	873e                	mv	a4,a5
    1450:	47a9                	li	a5,10
    1452:	02f767bb          	remw	a5,a4,a5
    1456:	2781                	sext.w	a5,a5
    1458:	0ff7f713          	zext.b	a4,a5
    145c:	fd842783          	lw	a5,-40(s0)
    1460:	0017869b          	addiw	a3,a5,1
    1464:	fcd42c23          	sw	a3,-40(s0)
    1468:	0307071b          	addiw	a4,a4,48
    146c:	0ff77713          	zext.b	a4,a4
    1470:	17c1                	addi	a5,a5,-16
    1472:	97a2                	add	a5,a5,s0
    1474:	fce78423          	sb	a4,-56(a5)
    1478:	fe042783          	lw	a5,-32(s0)
    147c:	873e                	mv	a4,a5
    147e:	47a9                	li	a5,10
    1480:	02f747bb          	divw	a5,a4,a5
    1484:	fef42023          	sw	a5,-32(s0)
    1488:	fe042783          	lw	a5,-32(s0)
    148c:	2781                	sext.w	a5,a5
    148e:	ffd5                	bnez	a5,144a <UnityPrintFloat+0x4e4>
    1490:	fd842783          	lw	a5,-40(s0)
    1494:	0007871b          	sext.w	a4,a5
    1498:	4785                	li	a5,1
    149a:	fae7d8e3          	bge	a5,a4,144a <UnityPrintFloat+0x4e4>
    149e:	a005                	j	14be <UnityPrintFloat+0x558>
    14a0:	fd842783          	lw	a5,-40(s0)
    14a4:	37fd                	addiw	a5,a5,-1
    14a6:	fcf42c23          	sw	a5,-40(s0)
    14aa:	fd842783          	lw	a5,-40(s0)
    14ae:	17c1                	addi	a5,a5,-16
    14b0:	97a2                	add	a5,a5,s0
    14b2:	fc87c783          	lbu	a5,-56(a5)
    14b6:	2781                	sext.w	a5,a5
    14b8:	853e                	mv	a0,a5
    14ba:	9d6ff0ef          	jal	ra,690 <putchar@plt>
    14be:	fd842783          	lw	a5,-40(s0)
    14c2:	2781                	sext.w	a5,a5
    14c4:	fcf04ee3          	bgtz	a5,14a0 <UnityPrintFloat+0x53a>
    14c8:	0001                	nop
    14ca:	60e6                	ld	ra,88(sp)
    14cc:	6446                	ld	s0,80(sp)
    14ce:	6125                	addi	sp,sp,96
    14d0:	8082                	ret

00000000000014d2 <UnityTestResultsBegin>:
    14d2:	1101                	addi	sp,sp,-32
    14d4:	ec06                	sd	ra,24(sp)
    14d6:	e822                	sd	s0,16(sp)
    14d8:	1000                	addi	s0,sp,32
    14da:	fea43423          	sd	a0,-24(s0)
    14de:	feb43023          	sd	a1,-32(s0)
    14e2:	fe843503          	ld	a0,-24(s0)
    14e6:	e12ff0ef          	jal	ra,af8 <UnityPrint>
    14ea:	03a00513          	li	a0,58
    14ee:	9a2ff0ef          	jal	ra,690 <putchar@plt>
    14f2:	fe043783          	ld	a5,-32(s0)
    14f6:	853e                	mv	a0,a5
    14f8:	883ff0ef          	jal	ra,d7a <UnityPrintNumber>
    14fc:	03a00513          	li	a0,58
    1500:	990ff0ef          	jal	ra,690 <putchar@plt>
    1504:	00004797          	auipc	a5,0x4
    1508:	bdc78793          	addi	a5,a5,-1060 # 50e0 <Unity>
    150c:	679c                	ld	a5,8(a5)
    150e:	853e                	mv	a0,a5
    1510:	de8ff0ef          	jal	ra,af8 <UnityPrint>
    1514:	03a00513          	li	a0,58
    1518:	978ff0ef          	jal	ra,690 <putchar@plt>
    151c:	0001                	nop
    151e:	60e2                	ld	ra,24(sp)
    1520:	6442                	ld	s0,16(sp)
    1522:	6105                	addi	sp,sp,32
    1524:	8082                	ret

0000000000001526 <UnityTestResultsFailBegin>:
    1526:	1101                	addi	sp,sp,-32
    1528:	ec06                	sd	ra,24(sp)
    152a:	e822                	sd	s0,16(sp)
    152c:	1000                	addi	s0,sp,32
    152e:	fea43423          	sd	a0,-24(s0)
    1532:	00004797          	auipc	a5,0x4
    1536:	bae78793          	addi	a5,a5,-1106 # 50e0 <Unity>
    153a:	639c                	ld	a5,0(a5)
    153c:	fe843583          	ld	a1,-24(s0)
    1540:	853e                	mv	a0,a5
    1542:	f91ff0ef          	jal	ra,14d2 <UnityTestResultsBegin>
    1546:	00002517          	auipc	a0,0x2
    154a:	55250513          	addi	a0,a0,1362 # 3a98 <UnityStrFail>
    154e:	daaff0ef          	jal	ra,af8 <UnityPrint>
    1552:	03a00513          	li	a0,58
    1556:	93aff0ef          	jal	ra,690 <putchar@plt>
    155a:	0001                	nop
    155c:	60e2                	ld	ra,24(sp)
    155e:	6442                	ld	s0,16(sp)
    1560:	6105                	addi	sp,sp,32
    1562:	8082                	ret

0000000000001564 <UnityConcludeTest>:
    1564:	1141                	addi	sp,sp,-16
    1566:	e406                	sd	ra,8(sp)
    1568:	e022                	sd	s0,0(sp)
    156a:	0800                	addi	s0,sp,16
    156c:	00004797          	auipc	a5,0x4
    1570:	b7478793          	addi	a5,a5,-1164 # 50e0 <Unity>
    1574:	67bc                	ld	a5,72(a5)
    1576:	cf91                	beqz	a5,1592 <UnityConcludeTest+0x2e>
    1578:	00004797          	auipc	a5,0x4
    157c:	b6878793          	addi	a5,a5,-1176 # 50e0 <Unity>
    1580:	7f9c                	ld	a5,56(a5)
    1582:	00178713          	addi	a4,a5,1
    1586:	00004797          	auipc	a5,0x4
    158a:	b5a78793          	addi	a5,a5,-1190 # 50e0 <Unity>
    158e:	ff98                	sd	a4,56(a5)
    1590:	a881                	j	15e0 <UnityConcludeTest+0x7c>
    1592:	00004797          	auipc	a5,0x4
    1596:	b4e78793          	addi	a5,a5,-1202 # 50e0 <Unity>
    159a:	63bc                	ld	a5,64(a5)
    159c:	e795                	bnez	a5,15c8 <UnityConcludeTest+0x64>
    159e:	00004797          	auipc	a5,0x4
    15a2:	b4278793          	addi	a5,a5,-1214 # 50e0 <Unity>
    15a6:	6398                	ld	a4,0(a5)
    15a8:	00004797          	auipc	a5,0x4
    15ac:	b3878793          	addi	a5,a5,-1224 # 50e0 <Unity>
    15b0:	739c                	ld	a5,32(a5)
    15b2:	85be                	mv	a1,a5
    15b4:	853a                	mv	a0,a4
    15b6:	f1dff0ef          	jal	ra,14d2 <UnityTestResultsBegin>
    15ba:	00002517          	auipc	a0,0x2
    15be:	4ce50513          	addi	a0,a0,1230 # 3a88 <UnityStrPass>
    15c2:	d36ff0ef          	jal	ra,af8 <UnityPrint>
    15c6:	a829                	j	15e0 <UnityConcludeTest+0x7c>
    15c8:	00004797          	auipc	a5,0x4
    15cc:	b1878793          	addi	a5,a5,-1256 # 50e0 <Unity>
    15d0:	7b9c                	ld	a5,48(a5)
    15d2:	00178713          	addi	a4,a5,1
    15d6:	00004797          	auipc	a5,0x4
    15da:	b0a78793          	addi	a5,a5,-1270 # 50e0 <Unity>
    15de:	fb98                	sd	a4,48(a5)
    15e0:	00004797          	auipc	a5,0x4
    15e4:	b0078793          	addi	a5,a5,-1280 # 50e0 <Unity>
    15e8:	0407b023          	sd	zero,64(a5)
    15ec:	00004797          	auipc	a5,0x4
    15f0:	af478793          	addi	a5,a5,-1292 # 50e0 <Unity>
    15f4:	0407b423          	sd	zero,72(a5)
    15f8:	4529                	li	a0,10
    15fa:	896ff0ef          	jal	ra,690 <putchar@plt>
    15fe:	0001                	nop
    1600:	60a2                	ld	ra,8(sp)
    1602:	6402                	ld	s0,0(sp)
    1604:	0141                	addi	sp,sp,16
    1606:	8082                	ret

0000000000001608 <UnityAddMsgIfSpecified>:
    1608:	1101                	addi	sp,sp,-32
    160a:	ec06                	sd	ra,24(sp)
    160c:	e822                	sd	s0,16(sp)
    160e:	1000                	addi	s0,sp,32
    1610:	fea43423          	sd	a0,-24(s0)
    1614:	00004797          	auipc	a5,0x4
    1618:	acc78793          	addi	a5,a5,-1332 # 50e0 <Unity>
    161c:	6b9c                	ld	a5,16(a5)
    161e:	cba9                	beqz	a5,1670 <UnityAddMsgIfSpecified+0x68>
    1620:	00002517          	auipc	a0,0x2
    1624:	4a050513          	addi	a0,a0,1184 # 3ac0 <UnityStrSpacer>
    1628:	cd0ff0ef          	jal	ra,af8 <UnityPrint>
    162c:	00002517          	auipc	a0,0x2
    1630:	6fc50513          	addi	a0,a0,1788 # 3d28 <UnityStrDetail1Name>
    1634:	cc4ff0ef          	jal	ra,af8 <UnityPrint>
    1638:	00004797          	auipc	a5,0x4
    163c:	aa878793          	addi	a5,a5,-1368 # 50e0 <Unity>
    1640:	6b9c                	ld	a5,16(a5)
    1642:	853e                	mv	a0,a5
    1644:	cb4ff0ef          	jal	ra,af8 <UnityPrint>
    1648:	00004797          	auipc	a5,0x4
    164c:	a9878793          	addi	a5,a5,-1384 # 50e0 <Unity>
    1650:	6f9c                	ld	a5,24(a5)
    1652:	cf99                	beqz	a5,1670 <UnityAddMsgIfSpecified+0x68>
    1654:	00002517          	auipc	a0,0x2
    1658:	6e450513          	addi	a0,a0,1764 # 3d38 <UnityStrDetail2Name>
    165c:	c9cff0ef          	jal	ra,af8 <UnityPrint>
    1660:	00004797          	auipc	a5,0x4
    1664:	a8078793          	addi	a5,a5,-1408 # 50e0 <Unity>
    1668:	6f9c                	ld	a5,24(a5)
    166a:	853e                	mv	a0,a5
    166c:	c8cff0ef          	jal	ra,af8 <UnityPrint>
    1670:	fe843783          	ld	a5,-24(s0)
    1674:	cb99                	beqz	a5,168a <UnityAddMsgIfSpecified+0x82>
    1676:	00002517          	auipc	a0,0x2
    167a:	44a50513          	addi	a0,a0,1098 # 3ac0 <UnityStrSpacer>
    167e:	c7aff0ef          	jal	ra,af8 <UnityPrint>
    1682:	fe843503          	ld	a0,-24(s0)
    1686:	c72ff0ef          	jal	ra,af8 <UnityPrint>
    168a:	0001                	nop
    168c:	60e2                	ld	ra,24(sp)
    168e:	6442                	ld	s0,16(sp)
    1690:	6105                	addi	sp,sp,32
    1692:	8082                	ret

0000000000001694 <UnityPrintExpectedAndActualStrings>:
    1694:	1101                	addi	sp,sp,-32
    1696:	ec06                	sd	ra,24(sp)
    1698:	e822                	sd	s0,16(sp)
    169a:	1000                	addi	s0,sp,32
    169c:	fea43423          	sd	a0,-24(s0)
    16a0:	feb43023          	sd	a1,-32(s0)
    16a4:	00002517          	auipc	a0,0x2
    16a8:	42450513          	addi	a0,a0,1060 # 3ac8 <UnityStrExpected>
    16ac:	c4cff0ef          	jal	ra,af8 <UnityPrint>
    16b0:	fe843783          	ld	a5,-24(s0)
    16b4:	cf91                	beqz	a5,16d0 <UnityPrintExpectedAndActualStrings+0x3c>
    16b6:	02700513          	li	a0,39
    16ba:	fd7fe0ef          	jal	ra,690 <putchar@plt>
    16be:	fe843503          	ld	a0,-24(s0)
    16c2:	c36ff0ef          	jal	ra,af8 <UnityPrint>
    16c6:	02700513          	li	a0,39
    16ca:	fc7fe0ef          	jal	ra,690 <putchar@plt>
    16ce:	a039                	j	16dc <UnityPrintExpectedAndActualStrings+0x48>
    16d0:	00002517          	auipc	a0,0x2
    16d4:	3e850513          	addi	a0,a0,1000 # 3ab8 <UnityStrNull>
    16d8:	c20ff0ef          	jal	ra,af8 <UnityPrint>
    16dc:	00002517          	auipc	a0,0x2
    16e0:	3fc50513          	addi	a0,a0,1020 # 3ad8 <UnityStrWas>
    16e4:	c14ff0ef          	jal	ra,af8 <UnityPrint>
    16e8:	fe043783          	ld	a5,-32(s0)
    16ec:	cf91                	beqz	a5,1708 <UnityPrintExpectedAndActualStrings+0x74>
    16ee:	02700513          	li	a0,39
    16f2:	f9ffe0ef          	jal	ra,690 <putchar@plt>
    16f6:	fe043503          	ld	a0,-32(s0)
    16fa:	bfeff0ef          	jal	ra,af8 <UnityPrint>
    16fe:	02700513          	li	a0,39
    1702:	f8ffe0ef          	jal	ra,690 <putchar@plt>
    1706:	a039                	j	1714 <UnityPrintExpectedAndActualStrings+0x80>
    1708:	00002517          	auipc	a0,0x2
    170c:	3b050513          	addi	a0,a0,944 # 3ab8 <UnityStrNull>
    1710:	be8ff0ef          	jal	ra,af8 <UnityPrint>
    1714:	0001                	nop
    1716:	60e2                	ld	ra,24(sp)
    1718:	6442                	ld	s0,16(sp)
    171a:	6105                	addi	sp,sp,32
    171c:	8082                	ret

000000000000171e <UnityPrintExpectedAndActualStringsLen>:
    171e:	7179                	addi	sp,sp,-48
    1720:	f406                	sd	ra,40(sp)
    1722:	f022                	sd	s0,32(sp)
    1724:	1800                	addi	s0,sp,48
    1726:	fea43423          	sd	a0,-24(s0)
    172a:	feb43023          	sd	a1,-32(s0)
    172e:	87b2                	mv	a5,a2
    1730:	fcf42e23          	sw	a5,-36(s0)
    1734:	00002517          	auipc	a0,0x2
    1738:	39450513          	addi	a0,a0,916 # 3ac8 <UnityStrExpected>
    173c:	bbcff0ef          	jal	ra,af8 <UnityPrint>
    1740:	fe843783          	ld	a5,-24(s0)
    1744:	c38d                	beqz	a5,1766 <UnityPrintExpectedAndActualStringsLen+0x48>
    1746:	02700513          	li	a0,39
    174a:	f47fe0ef          	jal	ra,690 <putchar@plt>
    174e:	fdc42783          	lw	a5,-36(s0)
    1752:	85be                	mv	a1,a5
    1754:	fe843503          	ld	a0,-24(s0)
    1758:	c1cff0ef          	jal	ra,b74 <UnityPrintLen>
    175c:	02700513          	li	a0,39
    1760:	f31fe0ef          	jal	ra,690 <putchar@plt>
    1764:	a039                	j	1772 <UnityPrintExpectedAndActualStringsLen+0x54>
    1766:	00002517          	auipc	a0,0x2
    176a:	35250513          	addi	a0,a0,850 # 3ab8 <UnityStrNull>
    176e:	b8aff0ef          	jal	ra,af8 <UnityPrint>
    1772:	00002517          	auipc	a0,0x2
    1776:	36650513          	addi	a0,a0,870 # 3ad8 <UnityStrWas>
    177a:	b7eff0ef          	jal	ra,af8 <UnityPrint>
    177e:	fe043783          	ld	a5,-32(s0)
    1782:	c38d                	beqz	a5,17a4 <UnityPrintExpectedAndActualStringsLen+0x86>
    1784:	02700513          	li	a0,39
    1788:	f09fe0ef          	jal	ra,690 <putchar@plt>
    178c:	fdc42783          	lw	a5,-36(s0)
    1790:	85be                	mv	a1,a5
    1792:	fe043503          	ld	a0,-32(s0)
    1796:	bdeff0ef          	jal	ra,b74 <UnityPrintLen>
    179a:	02700513          	li	a0,39
    179e:	ef3fe0ef          	jal	ra,690 <putchar@plt>
    17a2:	a039                	j	17b0 <UnityPrintExpectedAndActualStringsLen+0x92>
    17a4:	00002517          	auipc	a0,0x2
    17a8:	31450513          	addi	a0,a0,788 # 3ab8 <UnityStrNull>
    17ac:	b4cff0ef          	jal	ra,af8 <UnityPrint>
    17b0:	0001                	nop
    17b2:	70a2                	ld	ra,40(sp)
    17b4:	7402                	ld	s0,32(sp)
    17b6:	6145                	addi	sp,sp,48
    17b8:	8082                	ret

00000000000017ba <UnityIsOneArrayNull>:
    17ba:	7179                	addi	sp,sp,-48
    17bc:	f406                	sd	ra,40(sp)
    17be:	f022                	sd	s0,32(sp)
    17c0:	1800                	addi	s0,sp,48
    17c2:	fea43423          	sd	a0,-24(s0)
    17c6:	feb43023          	sd	a1,-32(s0)
    17ca:	fcc43c23          	sd	a2,-40(s0)
    17ce:	fcd43823          	sd	a3,-48(s0)
    17d2:	fe843703          	ld	a4,-24(s0)
    17d6:	fe043783          	ld	a5,-32(s0)
    17da:	00f71463          	bne	a4,a5,17e2 <UnityIsOneArrayNull+0x28>
    17de:	4781                	li	a5,0
    17e0:	a881                	j	1830 <UnityIsOneArrayNull+0x76>
    17e2:	fe843783          	ld	a5,-24(s0)
    17e6:	e38d                	bnez	a5,1808 <UnityIsOneArrayNull+0x4e>
    17e8:	fd843503          	ld	a0,-40(s0)
    17ec:	d3bff0ef          	jal	ra,1526 <UnityTestResultsFailBegin>
    17f0:	00002517          	auipc	a0,0x2
    17f4:	3d050513          	addi	a0,a0,976 # 3bc0 <UnityStrNullPointerForExpected>
    17f8:	b00ff0ef          	jal	ra,af8 <UnityPrint>
    17fc:	fd043503          	ld	a0,-48(s0)
    1800:	e09ff0ef          	jal	ra,1608 <UnityAddMsgIfSpecified>
    1804:	4785                	li	a5,1
    1806:	a02d                	j	1830 <UnityIsOneArrayNull+0x76>
    1808:	fe043783          	ld	a5,-32(s0)
    180c:	e38d                	bnez	a5,182e <UnityIsOneArrayNull+0x74>
    180e:	fd843503          	ld	a0,-40(s0)
    1812:	d15ff0ef          	jal	ra,1526 <UnityTestResultsFailBegin>
    1816:	00002517          	auipc	a0,0x2
    181a:	3ca50513          	addi	a0,a0,970 # 3be0 <UnityStrNullPointerForActual>
    181e:	adaff0ef          	jal	ra,af8 <UnityPrint>
    1822:	fd043503          	ld	a0,-48(s0)
    1826:	de3ff0ef          	jal	ra,1608 <UnityAddMsgIfSpecified>
    182a:	4785                	li	a5,1
    182c:	a011                	j	1830 <UnityIsOneArrayNull+0x76>
    182e:	4781                	li	a5,0
    1830:	853e                	mv	a0,a5
    1832:	70a2                	ld	ra,40(sp)
    1834:	7402                	ld	s0,32(sp)
    1836:	6145                	addi	sp,sp,48
    1838:	8082                	ret

000000000000183a <UnityAssertBits>:
    183a:	7139                	addi	sp,sp,-64
    183c:	fc06                	sd	ra,56(sp)
    183e:	f822                	sd	s0,48(sp)
    1840:	0080                	addi	s0,sp,64
    1842:	fea43423          	sd	a0,-24(s0)
    1846:	feb43023          	sd	a1,-32(s0)
    184a:	fcc43c23          	sd	a2,-40(s0)
    184e:	fcd43823          	sd	a3,-48(s0)
    1852:	fce43423          	sd	a4,-56(s0)
    1856:	00004797          	auipc	a5,0x4
    185a:	88a78793          	addi	a5,a5,-1910 # 50e0 <Unity>
    185e:	63bc                	ld	a5,64(a5)
    1860:	e799                	bnez	a5,186e <UnityAssertBits+0x34>
    1862:	00004797          	auipc	a5,0x4
    1866:	87e78793          	addi	a5,a5,-1922 # 50e0 <Unity>
    186a:	67bc                	ld	a5,72(a5)
    186c:	cb81                	beqz	a5,187c <UnityAssertBits+0x42>
    186e:	4585                	li	a1,1
    1870:	00004517          	auipc	a0,0x4
    1874:	8c050513          	addi	a0,a0,-1856 # 5130 <Unity+0x50>
    1878:	e09fe0ef          	jal	ra,680 <longjmp@plt>
    187c:	fe043703          	ld	a4,-32(s0)
    1880:	fd843783          	ld	a5,-40(s0)
    1884:	8f3d                	xor	a4,a4,a5
    1886:	fe843783          	ld	a5,-24(s0)
    188a:	8ff9                	and	a5,a5,a4
    188c:	c3b5                	beqz	a5,18f0 <UnityAssertBits+0xb6>
    188e:	fc843503          	ld	a0,-56(s0)
    1892:	c95ff0ef          	jal	ra,1526 <UnityTestResultsFailBegin>
    1896:	00002517          	auipc	a0,0x2
    189a:	23250513          	addi	a0,a0,562 # 3ac8 <UnityStrExpected>
    189e:	a5aff0ef          	jal	ra,af8 <UnityPrint>
    18a2:	fe843783          	ld	a5,-24(s0)
    18a6:	fe043703          	ld	a4,-32(s0)
    18aa:	85ba                	mv	a1,a4
    18ac:	853e                	mv	a0,a5
    18ae:	e38ff0ef          	jal	ra,ee6 <UnityPrintMask>
    18b2:	00002517          	auipc	a0,0x2
    18b6:	22650513          	addi	a0,a0,550 # 3ad8 <UnityStrWas>
    18ba:	a3eff0ef          	jal	ra,af8 <UnityPrint>
    18be:	fe843783          	ld	a5,-24(s0)
    18c2:	fd843703          	ld	a4,-40(s0)
    18c6:	85ba                	mv	a1,a4
    18c8:	853e                	mv	a0,a5
    18ca:	e1cff0ef          	jal	ra,ee6 <UnityPrintMask>
    18ce:	fd043503          	ld	a0,-48(s0)
    18d2:	d37ff0ef          	jal	ra,1608 <UnityAddMsgIfSpecified>
    18d6:	00004797          	auipc	a5,0x4
    18da:	80a78793          	addi	a5,a5,-2038 # 50e0 <Unity>
    18de:	4705                	li	a4,1
    18e0:	e3b8                	sd	a4,64(a5)
    18e2:	4585                	li	a1,1
    18e4:	00004517          	auipc	a0,0x4
    18e8:	84c50513          	addi	a0,a0,-1972 # 5130 <Unity+0x50>
    18ec:	d95fe0ef          	jal	ra,680 <longjmp@plt>
    18f0:	0001                	nop
    18f2:	70e2                	ld	ra,56(sp)
    18f4:	7442                	ld	s0,48(sp)
    18f6:	6121                	addi	sp,sp,64
    18f8:	8082                	ret

00000000000018fa <UnityAssertEqualNumber>:
    18fa:	7139                	addi	sp,sp,-64
    18fc:	fc06                	sd	ra,56(sp)
    18fe:	f822                	sd	s0,48(sp)
    1900:	0080                	addi	s0,sp,64
    1902:	fea43423          	sd	a0,-24(s0)
    1906:	feb43023          	sd	a1,-32(s0)
    190a:	fcc43c23          	sd	a2,-40(s0)
    190e:	fcd43823          	sd	a3,-48(s0)
    1912:	87ba                	mv	a5,a4
    1914:	fcf42623          	sw	a5,-52(s0)
    1918:	00003797          	auipc	a5,0x3
    191c:	7c878793          	addi	a5,a5,1992 # 50e0 <Unity>
    1920:	63bc                	ld	a5,64(a5)
    1922:	e799                	bnez	a5,1930 <UnityAssertEqualNumber+0x36>
    1924:	00003797          	auipc	a5,0x3
    1928:	7bc78793          	addi	a5,a5,1980 # 50e0 <Unity>
    192c:	67bc                	ld	a5,72(a5)
    192e:	cb81                	beqz	a5,193e <UnityAssertEqualNumber+0x44>
    1930:	4585                	li	a1,1
    1932:	00003517          	auipc	a0,0x3
    1936:	7fe50513          	addi	a0,a0,2046 # 5130 <Unity+0x50>
    193a:	d47fe0ef          	jal	ra,680 <longjmp@plt>
    193e:	fe843703          	ld	a4,-24(s0)
    1942:	fe043783          	ld	a5,-32(s0)
    1946:	06f70163          	beq	a4,a5,19a8 <UnityAssertEqualNumber+0xae>
    194a:	fd043503          	ld	a0,-48(s0)
    194e:	bd9ff0ef          	jal	ra,1526 <UnityTestResultsFailBegin>
    1952:	00002517          	auipc	a0,0x2
    1956:	17650513          	addi	a0,a0,374 # 3ac8 <UnityStrExpected>
    195a:	99eff0ef          	jal	ra,af8 <UnityPrint>
    195e:	fcc42783          	lw	a5,-52(s0)
    1962:	85be                	mv	a1,a5
    1964:	fe843503          	ld	a0,-24(s0)
    1968:	afeff0ef          	jal	ra,c66 <UnityPrintNumberByStyle>
    196c:	00002517          	auipc	a0,0x2
    1970:	16c50513          	addi	a0,a0,364 # 3ad8 <UnityStrWas>
    1974:	984ff0ef          	jal	ra,af8 <UnityPrint>
    1978:	fcc42783          	lw	a5,-52(s0)
    197c:	85be                	mv	a1,a5
    197e:	fe043503          	ld	a0,-32(s0)
    1982:	ae4ff0ef          	jal	ra,c66 <UnityPrintNumberByStyle>
    1986:	fd843503          	ld	a0,-40(s0)
    198a:	c7fff0ef          	jal	ra,1608 <UnityAddMsgIfSpecified>
    198e:	00003797          	auipc	a5,0x3
    1992:	75278793          	addi	a5,a5,1874 # 50e0 <Unity>
    1996:	4705                	li	a4,1
    1998:	e3b8                	sd	a4,64(a5)
    199a:	4585                	li	a1,1
    199c:	00003517          	auipc	a0,0x3
    19a0:	79450513          	addi	a0,a0,1940 # 5130 <Unity+0x50>
    19a4:	cddfe0ef          	jal	ra,680 <longjmp@plt>
    19a8:	0001                	nop
    19aa:	70e2                	ld	ra,56(sp)
    19ac:	7442                	ld	s0,48(sp)
    19ae:	6121                	addi	sp,sp,64
    19b0:	8082                	ret

00000000000019b2 <UnityAssertGreaterOrLessOrEqualNumber>:
    19b2:	715d                	addi	sp,sp,-80
    19b4:	e486                	sd	ra,72(sp)
    19b6:	e0a2                	sd	s0,64(sp)
    19b8:	0880                	addi	s0,sp,80
    19ba:	fca43c23          	sd	a0,-40(s0)
    19be:	fcb43823          	sd	a1,-48(s0)
    19c2:	fcd43023          	sd	a3,-64(s0)
    19c6:	fae43c23          	sd	a4,-72(s0)
    19ca:	873e                	mv	a4,a5
    19cc:	87b2                	mv	a5,a2
    19ce:	fcf42623          	sw	a5,-52(s0)
    19d2:	87ba                	mv	a5,a4
    19d4:	fcf42423          	sw	a5,-56(s0)
    19d8:	fe042623          	sw	zero,-20(s0)
    19dc:	00003797          	auipc	a5,0x3
    19e0:	70478793          	addi	a5,a5,1796 # 50e0 <Unity>
    19e4:	63bc                	ld	a5,64(a5)
    19e6:	e799                	bnez	a5,19f4 <UnityAssertGreaterOrLessOrEqualNumber+0x42>
    19e8:	00003797          	auipc	a5,0x3
    19ec:	6f878793          	addi	a5,a5,1784 # 50e0 <Unity>
    19f0:	67bc                	ld	a5,72(a5)
    19f2:	cb81                	beqz	a5,1a02 <UnityAssertGreaterOrLessOrEqualNumber+0x50>
    19f4:	4585                	li	a1,1
    19f6:	00003517          	auipc	a0,0x3
    19fa:	73a50513          	addi	a0,a0,1850 # 5130 <Unity+0x50>
    19fe:	c83fe0ef          	jal	ra,680 <longjmp@plt>
    1a02:	fd843703          	ld	a4,-40(s0)
    1a06:	fd043783          	ld	a5,-48(s0)
    1a0a:	00f71863          	bne	a4,a5,1a1a <UnityAssertGreaterOrLessOrEqualNumber+0x68>
    1a0e:	fcc42783          	lw	a5,-52(s0)
    1a12:	8b85                	andi	a5,a5,1
    1a14:	2781                	sext.w	a5,a5
    1a16:	14079163          	bnez	a5,1b58 <UnityAssertGreaterOrLessOrEqualNumber+0x1a6>
    1a1a:	fd843703          	ld	a4,-40(s0)
    1a1e:	fd043783          	ld	a5,-48(s0)
    1a22:	00f71563          	bne	a4,a5,1a2c <UnityAssertGreaterOrLessOrEqualNumber+0x7a>
    1a26:	4785                	li	a5,1
    1a28:	fef42623          	sw	a5,-20(s0)
    1a2c:	fc842783          	lw	a5,-56(s0)
    1a30:	8bc1                	andi	a5,a5,16
    1a32:	2781                	sext.w	a5,a5
    1a34:	cf95                	beqz	a5,1a70 <UnityAssertGreaterOrLessOrEqualNumber+0xbe>
    1a36:	fd043703          	ld	a4,-48(s0)
    1a3a:	fd843783          	ld	a5,-40(s0)
    1a3e:	00e7da63          	bge	a5,a4,1a52 <UnityAssertGreaterOrLessOrEqualNumber+0xa0>
    1a42:	fcc42783          	lw	a5,-52(s0)
    1a46:	8b91                	andi	a5,a5,4
    1a48:	2781                	sext.w	a5,a5
    1a4a:	c781                	beqz	a5,1a52 <UnityAssertGreaterOrLessOrEqualNumber+0xa0>
    1a4c:	4785                	li	a5,1
    1a4e:	fef42623          	sw	a5,-20(s0)
    1a52:	fd043703          	ld	a4,-48(s0)
    1a56:	fd843783          	ld	a5,-40(s0)
    1a5a:	04f75763          	bge	a4,a5,1aa8 <UnityAssertGreaterOrLessOrEqualNumber+0xf6>
    1a5e:	fcc42783          	lw	a5,-52(s0)
    1a62:	8b89                	andi	a5,a5,2
    1a64:	2781                	sext.w	a5,a5
    1a66:	c3a9                	beqz	a5,1aa8 <UnityAssertGreaterOrLessOrEqualNumber+0xf6>
    1a68:	4785                	li	a5,1
    1a6a:	fef42623          	sw	a5,-20(s0)
    1a6e:	a82d                	j	1aa8 <UnityAssertGreaterOrLessOrEqualNumber+0xf6>
    1a70:	fd043703          	ld	a4,-48(s0)
    1a74:	fd843783          	ld	a5,-40(s0)
    1a78:	00e7fa63          	bgeu	a5,a4,1a8c <UnityAssertGreaterOrLessOrEqualNumber+0xda>
    1a7c:	fcc42783          	lw	a5,-52(s0)
    1a80:	8b91                	andi	a5,a5,4
    1a82:	2781                	sext.w	a5,a5
    1a84:	c781                	beqz	a5,1a8c <UnityAssertGreaterOrLessOrEqualNumber+0xda>
    1a86:	4785                	li	a5,1
    1a88:	fef42623          	sw	a5,-20(s0)
    1a8c:	fd043703          	ld	a4,-48(s0)
    1a90:	fd843783          	ld	a5,-40(s0)
    1a94:	00f77a63          	bgeu	a4,a5,1aa8 <UnityAssertGreaterOrLessOrEqualNumber+0xf6>
    1a98:	fcc42783          	lw	a5,-52(s0)
    1a9c:	8b89                	andi	a5,a5,2
    1a9e:	2781                	sext.w	a5,a5
    1aa0:	c781                	beqz	a5,1aa8 <UnityAssertGreaterOrLessOrEqualNumber+0xf6>
    1aa2:	4785                	li	a5,1
    1aa4:	fef42623          	sw	a5,-20(s0)
    1aa8:	fec42783          	lw	a5,-20(s0)
    1aac:	2781                	sext.w	a5,a5
    1aae:	c7d5                	beqz	a5,1b5a <UnityAssertGreaterOrLessOrEqualNumber+0x1a8>
    1ab0:	fb843503          	ld	a0,-72(s0)
    1ab4:	a73ff0ef          	jal	ra,1526 <UnityTestResultsFailBegin>
    1ab8:	00002517          	auipc	a0,0x2
    1abc:	01050513          	addi	a0,a0,16 # 3ac8 <UnityStrExpected>
    1ac0:	838ff0ef          	jal	ra,af8 <UnityPrint>
    1ac4:	fc842783          	lw	a5,-56(s0)
    1ac8:	85be                	mv	a1,a5
    1aca:	fd043503          	ld	a0,-48(s0)
    1ace:	998ff0ef          	jal	ra,c66 <UnityPrintNumberByStyle>
    1ad2:	fcc42783          	lw	a5,-52(s0)
    1ad6:	8b89                	andi	a5,a5,2
    1ad8:	2781                	sext.w	a5,a5
    1ada:	c799                	beqz	a5,1ae8 <UnityAssertGreaterOrLessOrEqualNumber+0x136>
    1adc:	00002517          	auipc	a0,0x2
    1ae0:	00450513          	addi	a0,a0,4 # 3ae0 <UnityStrGt>
    1ae4:	814ff0ef          	jal	ra,af8 <UnityPrint>
    1ae8:	fcc42783          	lw	a5,-52(s0)
    1aec:	8b91                	andi	a5,a5,4
    1aee:	2781                	sext.w	a5,a5
    1af0:	c799                	beqz	a5,1afe <UnityAssertGreaterOrLessOrEqualNumber+0x14c>
    1af2:	00002517          	auipc	a0,0x2
    1af6:	00650513          	addi	a0,a0,6 # 3af8 <UnityStrLt>
    1afa:	ffffe0ef          	jal	ra,af8 <UnityPrint>
    1afe:	fcc42783          	lw	a5,-52(s0)
    1b02:	8b85                	andi	a5,a5,1
    1b04:	2781                	sext.w	a5,a5
    1b06:	c799                	beqz	a5,1b14 <UnityAssertGreaterOrLessOrEqualNumber+0x162>
    1b08:	00002517          	auipc	a0,0x2
    1b0c:	00850513          	addi	a0,a0,8 # 3b10 <UnityStrOrEqual>
    1b10:	fe9fe0ef          	jal	ra,af8 <UnityPrint>
    1b14:	fcc42783          	lw	a5,-52(s0)
    1b18:	2781                	sext.w	a5,a5
    1b1a:	e799                	bnez	a5,1b28 <UnityAssertGreaterOrLessOrEqualNumber+0x176>
    1b1c:	00002517          	auipc	a0,0x2
    1b20:	00450513          	addi	a0,a0,4 # 3b20 <UnityStrNotEqual>
    1b24:	fd5fe0ef          	jal	ra,af8 <UnityPrint>
    1b28:	fc842783          	lw	a5,-56(s0)
    1b2c:	85be                	mv	a1,a5
    1b2e:	fd843503          	ld	a0,-40(s0)
    1b32:	934ff0ef          	jal	ra,c66 <UnityPrintNumberByStyle>
    1b36:	fc043503          	ld	a0,-64(s0)
    1b3a:	acfff0ef          	jal	ra,1608 <UnityAddMsgIfSpecified>
    1b3e:	00003797          	auipc	a5,0x3
    1b42:	5a278793          	addi	a5,a5,1442 # 50e0 <Unity>
    1b46:	4705                	li	a4,1
    1b48:	e3b8                	sd	a4,64(a5)
    1b4a:	4585                	li	a1,1
    1b4c:	00003517          	auipc	a0,0x3
    1b50:	5e450513          	addi	a0,a0,1508 # 5130 <Unity+0x50>
    1b54:	b2dfe0ef          	jal	ra,680 <longjmp@plt>
    1b58:	0001                	nop
    1b5a:	60a6                	ld	ra,72(sp)
    1b5c:	6406                	ld	s0,64(sp)
    1b5e:	6161                	addi	sp,sp,80
    1b60:	8082                	ret

0000000000001b62 <UnityAssertEqualIntArray>:
    1b62:	7159                	addi	sp,sp,-112
    1b64:	f486                	sd	ra,104(sp)
    1b66:	f0a2                	sd	s0,96(sp)
    1b68:	1880                	addi	s0,sp,112
    1b6a:	faa43c23          	sd	a0,-72(s0)
    1b6e:	fab43823          	sd	a1,-80(s0)
    1b72:	fad43023          	sd	a3,-96(s0)
    1b76:	f8e43c23          	sd	a4,-104(s0)
    1b7a:	86be                	mv	a3,a5
    1b7c:	8742                	mv	a4,a6
    1b7e:	87b2                	mv	a5,a2
    1b80:	faf42623          	sw	a5,-84(s0)
    1b84:	87b6                	mv	a5,a3
    1b86:	faf42423          	sw	a5,-88(s0)
    1b8a:	87ba                	mv	a5,a4
    1b8c:	f8f42a23          	sw	a5,-108(s0)
    1b90:	fac42783          	lw	a5,-84(s0)
    1b94:	fef42623          	sw	a5,-20(s0)
    1b98:	fa842783          	lw	a5,-88(s0)
    1b9c:	8bbd                	andi	a5,a5,15
    1b9e:	fef42423          	sw	a5,-24(s0)
    1ba2:	fe042223          	sw	zero,-28(s0)
    1ba6:	00003797          	auipc	a5,0x3
    1baa:	53a78793          	addi	a5,a5,1338 # 50e0 <Unity>
    1bae:	63bc                	ld	a5,64(a5)
    1bb0:	e799                	bnez	a5,1bbe <UnityAssertEqualIntArray+0x5c>
    1bb2:	00003797          	auipc	a5,0x3
    1bb6:	52e78793          	addi	a5,a5,1326 # 50e0 <Unity>
    1bba:	67bc                	ld	a5,72(a5)
    1bbc:	cb81                	beqz	a5,1bcc <UnityAssertEqualIntArray+0x6a>
    1bbe:	4585                	li	a1,1
    1bc0:	00003517          	auipc	a0,0x3
    1bc4:	57050513          	addi	a0,a0,1392 # 5130 <Unity+0x50>
    1bc8:	ab9fe0ef          	jal	ra,680 <longjmp@plt>
    1bcc:	fac42783          	lw	a5,-84(s0)
    1bd0:	2781                	sext.w	a5,a5
    1bd2:	ef85                	bnez	a5,1c0a <UnityAssertEqualIntArray+0xa8>
    1bd4:	f9843503          	ld	a0,-104(s0)
    1bd8:	94fff0ef          	jal	ra,1526 <UnityTestResultsFailBegin>
    1bdc:	00002517          	auipc	a0,0x2
    1be0:	fac50513          	addi	a0,a0,-84 # 3b88 <UnityStrPointless>
    1be4:	f15fe0ef          	jal	ra,af8 <UnityPrint>
    1be8:	fa043503          	ld	a0,-96(s0)
    1bec:	a1dff0ef          	jal	ra,1608 <UnityAddMsgIfSpecified>
    1bf0:	00003797          	auipc	a5,0x3
    1bf4:	4f078793          	addi	a5,a5,1264 # 50e0 <Unity>
    1bf8:	4705                	li	a4,1
    1bfa:	e3b8                	sd	a4,64(a5)
    1bfc:	4585                	li	a1,1
    1bfe:	00003517          	auipc	a0,0x3
    1c02:	53250513          	addi	a0,a0,1330 # 5130 <Unity+0x50>
    1c06:	a7bfe0ef          	jal	ra,680 <longjmp@plt>
    1c0a:	fb843703          	ld	a4,-72(s0)
    1c0e:	fb043783          	ld	a5,-80(s0)
    1c12:	28f70863          	beq	a4,a5,1ea2 <UnityAssertEqualIntArray+0x340>
    1c16:	fa043683          	ld	a3,-96(s0)
    1c1a:	f9843603          	ld	a2,-104(s0)
    1c1e:	fb043583          	ld	a1,-80(s0)
    1c22:	fb843503          	ld	a0,-72(s0)
    1c26:	b95ff0ef          	jal	ra,17ba <UnityIsOneArrayNull>
    1c2a:	87aa                	mv	a5,a0
    1c2c:	24078e63          	beqz	a5,1e88 <UnityAssertEqualIntArray+0x326>
    1c30:	00003797          	auipc	a5,0x3
    1c34:	4b078793          	addi	a5,a5,1200 # 50e0 <Unity>
    1c38:	4705                	li	a4,1
    1c3a:	e3b8                	sd	a4,64(a5)
    1c3c:	4585                	li	a1,1
    1c3e:	00003517          	auipc	a0,0x3
    1c42:	4f250513          	addi	a0,a0,1266 # 5130 <Unity+0x50>
    1c46:	a3bfe0ef          	jal	ra,680 <longjmp@plt>
    1c4a:	fe842783          	lw	a5,-24(s0)
    1c4e:	0007871b          	sext.w	a4,a5
    1c52:	47a1                	li	a5,8
    1c54:	0af70e63          	beq	a4,a5,1d10 <UnityAssertEqualIntArray+0x1ae>
    1c58:	fe842783          	lw	a5,-24(s0)
    1c5c:	0007871b          	sext.w	a4,a5
    1c60:	47a1                	li	a5,8
    1c62:	0ce7e563          	bltu	a5,a4,1d2c <UnityAssertEqualIntArray+0x1ca>
    1c66:	fe842783          	lw	a5,-24(s0)
    1c6a:	0007871b          	sext.w	a4,a5
    1c6e:	4785                	li	a5,1
    1c70:	00f70a63          	beq	a4,a5,1c84 <UnityAssertEqualIntArray+0x122>
    1c74:	fe842783          	lw	a5,-24(s0)
    1c78:	0007871b          	sext.w	a4,a5
    1c7c:	4789                	li	a5,2
    1c7e:	04f70563          	beq	a4,a5,1cc8 <UnityAssertEqualIntArray+0x166>
    1c82:	a06d                	j	1d2c <UnityAssertEqualIntArray+0x1ca>
    1c84:	fb843783          	ld	a5,-72(s0)
    1c88:	00078783          	lb	a5,0(a5)
    1c8c:	fcf43c23          	sd	a5,-40(s0)
    1c90:	fb043783          	ld	a5,-80(s0)
    1c94:	00078783          	lb	a5,0(a5)
    1c98:	fcf43823          	sd	a5,-48(s0)
    1c9c:	fa842783          	lw	a5,-88(s0)
    1ca0:	0607f793          	andi	a5,a5,96
    1ca4:	2781                	sext.w	a5,a5
    1ca6:	cf89                	beqz	a5,1cc0 <UnityAssertEqualIntArray+0x15e>
    1ca8:	fd843783          	ld	a5,-40(s0)
    1cac:	0ff7f793          	zext.b	a5,a5
    1cb0:	fcf43c23          	sd	a5,-40(s0)
    1cb4:	fd043783          	ld	a5,-48(s0)
    1cb8:	0ff7f793          	zext.b	a5,a5
    1cbc:	fcf43823          	sd	a5,-48(s0)
    1cc0:	4785                	li	a5,1
    1cc2:	fef42223          	sw	a5,-28(s0)
    1cc6:	a845                	j	1d76 <UnityAssertEqualIntArray+0x214>
    1cc8:	fb843783          	ld	a5,-72(s0)
    1ccc:	00079783          	lh	a5,0(a5)
    1cd0:	fcf43c23          	sd	a5,-40(s0)
    1cd4:	fb043783          	ld	a5,-80(s0)
    1cd8:	00079783          	lh	a5,0(a5)
    1cdc:	fcf43823          	sd	a5,-48(s0)
    1ce0:	fa842783          	lw	a5,-88(s0)
    1ce4:	0607f793          	andi	a5,a5,96
    1ce8:	2781                	sext.w	a5,a5
    1cea:	cf99                	beqz	a5,1d08 <UnityAssertEqualIntArray+0x1a6>
    1cec:	fd843703          	ld	a4,-40(s0)
    1cf0:	67c1                	lui	a5,0x10
    1cf2:	17fd                	addi	a5,a5,-1
    1cf4:	8ff9                	and	a5,a5,a4
    1cf6:	fcf43c23          	sd	a5,-40(s0)
    1cfa:	fd043703          	ld	a4,-48(s0)
    1cfe:	67c1                	lui	a5,0x10
    1d00:	17fd                	addi	a5,a5,-1
    1d02:	8ff9                	and	a5,a5,a4
    1d04:	fcf43823          	sd	a5,-48(s0)
    1d08:	4789                	li	a5,2
    1d0a:	fef42223          	sw	a5,-28(s0)
    1d0e:	a0a5                	j	1d76 <UnityAssertEqualIntArray+0x214>
    1d10:	fb843783          	ld	a5,-72(s0)
    1d14:	639c                	ld	a5,0(a5)
    1d16:	fcf43c23          	sd	a5,-40(s0)
    1d1a:	fb043783          	ld	a5,-80(s0)
    1d1e:	639c                	ld	a5,0(a5)
    1d20:	fcf43823          	sd	a5,-48(s0)
    1d24:	47a1                	li	a5,8
    1d26:	fef42223          	sw	a5,-28(s0)
    1d2a:	a0b1                	j	1d76 <UnityAssertEqualIntArray+0x214>
    1d2c:	fb843783          	ld	a5,-72(s0)
    1d30:	439c                	lw	a5,0(a5)
    1d32:	fcf43c23          	sd	a5,-40(s0)
    1d36:	fb043783          	ld	a5,-80(s0)
    1d3a:	439c                	lw	a5,0(a5)
    1d3c:	fcf43823          	sd	a5,-48(s0)
    1d40:	fa842783          	lw	a5,-88(s0)
    1d44:	0607f793          	andi	a5,a5,96
    1d48:	2781                	sext.w	a5,a5
    1d4a:	cf99                	beqz	a5,1d68 <UnityAssertEqualIntArray+0x206>
    1d4c:	fd843703          	ld	a4,-40(s0)
    1d50:	57fd                	li	a5,-1
    1d52:	9381                	srli	a5,a5,0x20
    1d54:	8ff9                	and	a5,a5,a4
    1d56:	fcf43c23          	sd	a5,-40(s0)
    1d5a:	fd043703          	ld	a4,-48(s0)
    1d5e:	57fd                	li	a5,-1
    1d60:	9381                	srli	a5,a5,0x20
    1d62:	8ff9                	and	a5,a5,a4
    1d64:	fcf43823          	sd	a5,-48(s0)
    1d68:	4791                	li	a5,4
    1d6a:	fef42223          	sw	a5,-28(s0)
    1d6e:	4791                	li	a5,4
    1d70:	fef42423          	sw	a5,-24(s0)
    1d74:	0001                	nop
    1d76:	fd843703          	ld	a4,-40(s0)
    1d7a:	fd043783          	ld	a5,-48(s0)
    1d7e:	0ef70063          	beq	a4,a5,1e5e <UnityAssertEqualIntArray+0x2fc>
    1d82:	fa842783          	lw	a5,-88(s0)
    1d86:	0207f793          	andi	a5,a5,32
    1d8a:	2781                	sext.w	a5,a5
    1d8c:	c7a9                	beqz	a5,1dd6 <UnityAssertEqualIntArray+0x274>
    1d8e:	fe842783          	lw	a5,-24(s0)
    1d92:	0007871b          	sext.w	a4,a5
    1d96:	478d                	li	a5,3
    1d98:	02e7ef63          	bltu	a5,a4,1dd6 <UnityAssertEqualIntArray+0x274>
    1d9c:	4785                	li	a5,1
    1d9e:	fcf43423          	sd	a5,-56(s0)
    1da2:	fe842783          	lw	a5,-24(s0)
    1da6:	0037979b          	slliw	a5,a5,0x3
    1daa:	2781                	sext.w	a5,a5
    1dac:	fc843703          	ld	a4,-56(s0)
    1db0:	00f717b3          	sll	a5,a4,a5
    1db4:	17fd                	addi	a5,a5,-1
    1db6:	fcf43423          	sd	a5,-56(s0)
    1dba:	fd843703          	ld	a4,-40(s0)
    1dbe:	fc843783          	ld	a5,-56(s0)
    1dc2:	8ff9                	and	a5,a5,a4
    1dc4:	fcf43c23          	sd	a5,-40(s0)
    1dc8:	fd043703          	ld	a4,-48(s0)
    1dcc:	fc843783          	ld	a5,-56(s0)
    1dd0:	8ff9                	and	a5,a5,a4
    1dd2:	fcf43823          	sd	a5,-48(s0)
    1dd6:	f9843503          	ld	a0,-104(s0)
    1dda:	f4cff0ef          	jal	ra,1526 <UnityTestResultsFailBegin>
    1dde:	00002517          	auipc	a0,0x2
    1de2:	d5a50513          	addi	a0,a0,-678 # 3b38 <UnityStrElement>
    1de6:	d13fe0ef          	jal	ra,af8 <UnityPrint>
    1dea:	fac42783          	lw	a5,-84(s0)
    1dee:	873e                	mv	a4,a5
    1df0:	fec42783          	lw	a5,-20(s0)
    1df4:	40f707bb          	subw	a5,a4,a5
    1df8:	2781                	sext.w	a5,a5
    1dfa:	37fd                	addiw	a5,a5,-1
    1dfc:	2781                	sext.w	a5,a5
    1dfe:	1782                	slli	a5,a5,0x20
    1e00:	9381                	srli	a5,a5,0x20
    1e02:	853e                	mv	a0,a5
    1e04:	fb9fe0ef          	jal	ra,dbc <UnityPrintNumberUnsigned>
    1e08:	00002517          	auipc	a0,0x2
    1e0c:	cc050513          	addi	a0,a0,-832 # 3ac8 <UnityStrExpected>
    1e10:	ce9fe0ef          	jal	ra,af8 <UnityPrint>
    1e14:	fa842783          	lw	a5,-88(s0)
    1e18:	85be                	mv	a1,a5
    1e1a:	fd843503          	ld	a0,-40(s0)
    1e1e:	e49fe0ef          	jal	ra,c66 <UnityPrintNumberByStyle>
    1e22:	00002517          	auipc	a0,0x2
    1e26:	cb650513          	addi	a0,a0,-842 # 3ad8 <UnityStrWas>
    1e2a:	ccffe0ef          	jal	ra,af8 <UnityPrint>
    1e2e:	fa842783          	lw	a5,-88(s0)
    1e32:	85be                	mv	a1,a5
    1e34:	fd043503          	ld	a0,-48(s0)
    1e38:	e2ffe0ef          	jal	ra,c66 <UnityPrintNumberByStyle>
    1e3c:	fa043503          	ld	a0,-96(s0)
    1e40:	fc8ff0ef          	jal	ra,1608 <UnityAddMsgIfSpecified>
    1e44:	00003797          	auipc	a5,0x3
    1e48:	29c78793          	addi	a5,a5,668 # 50e0 <Unity>
    1e4c:	4705                	li	a4,1
    1e4e:	e3b8                	sd	a4,64(a5)
    1e50:	4585                	li	a1,1
    1e52:	00003517          	auipc	a0,0x3
    1e56:	2de50513          	addi	a0,a0,734 # 5130 <Unity+0x50>
    1e5a:	827fe0ef          	jal	ra,680 <longjmp@plt>
    1e5e:	f9442783          	lw	a5,-108(s0)
    1e62:	0007871b          	sext.w	a4,a5
    1e66:	4785                	li	a5,1
    1e68:	00f71963          	bne	a4,a5,1e7a <UnityAssertEqualIntArray+0x318>
    1e6c:	fe446783          	lwu	a5,-28(s0)
    1e70:	fb843703          	ld	a4,-72(s0)
    1e74:	97ba                	add	a5,a5,a4
    1e76:	faf43c23          	sd	a5,-72(s0)
    1e7a:	fe446783          	lwu	a5,-28(s0)
    1e7e:	fb043703          	ld	a4,-80(s0)
    1e82:	97ba                	add	a5,a5,a4
    1e84:	faf43823          	sd	a5,-80(s0)
    1e88:	fec42783          	lw	a5,-20(s0)
    1e8c:	2781                	sext.w	a5,a5
    1e8e:	cb99                	beqz	a5,1ea4 <UnityAssertEqualIntArray+0x342>
    1e90:	fec42783          	lw	a5,-20(s0)
    1e94:	fff7871b          	addiw	a4,a5,-1
    1e98:	fee42623          	sw	a4,-20(s0)
    1e9c:	da0797e3          	bnez	a5,1c4a <UnityAssertEqualIntArray+0xe8>
    1ea0:	a011                	j	1ea4 <UnityAssertEqualIntArray+0x342>
    1ea2:	0001                	nop
    1ea4:	70a6                	ld	ra,104(sp)
    1ea6:	7406                	ld	s0,96(sp)
    1ea8:	6165                	addi	sp,sp,112
    1eaa:	8082                	ret

0000000000001eac <UnityFloatsWithin>:
    1eac:	7179                	addi	sp,sp,-48
    1eae:	f406                	sd	ra,40(sp)
    1eb0:	f022                	sd	s0,32(sp)
    1eb2:	1800                	addi	s0,sp,48
    1eb4:	fca42e27          	fsw	fa0,-36(s0)
    1eb8:	fcb42c27          	fsw	fa1,-40(s0)
    1ebc:	fcc42a27          	fsw	fa2,-44(s0)
    1ec0:	fd842507          	flw	fa0,-40(s0)
    1ec4:	aedfe0ef          	jal	ra,9b0 <__FLOAT_BITS>
    1ec8:	87aa                	mv	a5,a0
    1eca:	2781                	sext.w	a5,a5
    1ecc:	873e                	mv	a4,a5
    1ece:	800007b7          	lui	a5,0x80000
    1ed2:	fff7c793          	not	a5,a5
    1ed6:	8ff9                	and	a5,a5,a4
    1ed8:	2781                	sext.w	a5,a5
    1eda:	873e                	mv	a4,a5
    1edc:	7f8007b7          	lui	a5,0x7f800
    1ee0:	06f71263          	bne	a4,a5,1f44 <UnityFloatsWithin+0x98>
    1ee4:	fd442507          	flw	fa0,-44(s0)
    1ee8:	ac9fe0ef          	jal	ra,9b0 <__FLOAT_BITS>
    1eec:	87aa                	mv	a5,a0
    1eee:	2781                	sext.w	a5,a5
    1ef0:	873e                	mv	a4,a5
    1ef2:	800007b7          	lui	a5,0x80000
    1ef6:	fff7c793          	not	a5,a5
    1efa:	8ff9                	and	a5,a5,a4
    1efc:	2781                	sext.w	a5,a5
    1efe:	873e                	mv	a4,a5
    1f00:	7f8007b7          	lui	a5,0x7f800
    1f04:	04f71063          	bne	a4,a5,1f44 <UnityFloatsWithin+0x98>
    1f08:	fd842787          	flw	fa5,-40(s0)
    1f0c:	f0000753          	fmv.w.x	fa4,zero
    1f10:	a0e797d3          	flt.s	a5,fa5,fa4
    1f14:	00f037b3          	snez	a5,a5
    1f18:	0ff7f793          	zext.b	a5,a5
    1f1c:	0017c793          	xori	a5,a5,1
    1f20:	0ff7f713          	zext.b	a4,a5
    1f24:	fd442787          	flw	fa5,-44(s0)
    1f28:	f0000753          	fmv.w.x	fa4,zero
    1f2c:	a0e797d3          	flt.s	a5,fa5,fa4
    1f30:	00f037b3          	snez	a5,a5
    1f34:	0ff7f793          	zext.b	a5,a5
    1f38:	8fb9                	xor	a5,a5,a4
    1f3a:	0ff7f793          	zext.b	a5,a5
    1f3e:	c399                	beqz	a5,1f44 <UnityFloatsWithin+0x98>
    1f40:	4785                	li	a5,1
    1f42:	a8fd                	j	2040 <UnityFloatsWithin+0x194>
    1f44:	fd842507          	flw	fa0,-40(s0)
    1f48:	a69fe0ef          	jal	ra,9b0 <__FLOAT_BITS>
    1f4c:	87aa                	mv	a5,a0
    1f4e:	2781                	sext.w	a5,a5
    1f50:	873e                	mv	a4,a5
    1f52:	800007b7          	lui	a5,0x80000
    1f56:	fff7c793          	not	a5,a5
    1f5a:	8ff9                	and	a5,a5,a4
    1f5c:	2781                	sext.w	a5,a5
    1f5e:	873e                	mv	a4,a5
    1f60:	7f8007b7          	lui	a5,0x7f800
    1f64:	02e7f663          	bgeu	a5,a4,1f90 <UnityFloatsWithin+0xe4>
    1f68:	fd442507          	flw	fa0,-44(s0)
    1f6c:	a45fe0ef          	jal	ra,9b0 <__FLOAT_BITS>
    1f70:	87aa                	mv	a5,a0
    1f72:	2781                	sext.w	a5,a5
    1f74:	873e                	mv	a4,a5
    1f76:	800007b7          	lui	a5,0x80000
    1f7a:	fff7c793          	not	a5,a5
    1f7e:	8ff9                	and	a5,a5,a4
    1f80:	2781                	sext.w	a5,a5
    1f82:	873e                	mv	a4,a5
    1f84:	7f8007b7          	lui	a5,0x7f800
    1f88:	00e7f463          	bgeu	a5,a4,1f90 <UnityFloatsWithin+0xe4>
    1f8c:	4785                	li	a5,1
    1f8e:	a84d                	j	2040 <UnityFloatsWithin+0x194>
    1f90:	fd442707          	flw	fa4,-44(s0)
    1f94:	fd842787          	flw	fa5,-40(s0)
    1f98:	08f777d3          	fsub.s	fa5,fa4,fa5
    1f9c:	fef42627          	fsw	fa5,-20(s0)
    1fa0:	fec42787          	flw	fa5,-20(s0)
    1fa4:	f0000753          	fmv.w.x	fa4,zero
    1fa8:	a0e797d3          	flt.s	a5,fa5,fa4
    1fac:	c799                	beqz	a5,1fba <UnityFloatsWithin+0x10e>
    1fae:	fec42787          	flw	fa5,-20(s0)
    1fb2:	20f797d3          	fneg.s	fa5,fa5
    1fb6:	fef42627          	fsw	fa5,-20(s0)
    1fba:	fdc42787          	flw	fa5,-36(s0)
    1fbe:	f0000753          	fmv.w.x	fa4,zero
    1fc2:	a0e797d3          	flt.s	a5,fa5,fa4
    1fc6:	c799                	beqz	a5,1fd4 <UnityFloatsWithin+0x128>
    1fc8:	fdc42787          	flw	fa5,-36(s0)
    1fcc:	20f797d3          	fneg.s	fa5,fa5
    1fd0:	fcf42e27          	fsw	fa5,-36(s0)
    1fd4:	fec42507          	flw	fa0,-20(s0)
    1fd8:	9d9fe0ef          	jal	ra,9b0 <__FLOAT_BITS>
    1fdc:	87aa                	mv	a5,a0
    1fde:	2781                	sext.w	a5,a5
    1fe0:	873e                	mv	a4,a5
    1fe2:	800007b7          	lui	a5,0x80000
    1fe6:	fff7c793          	not	a5,a5
    1fea:	8ff9                	and	a5,a5,a4
    1fec:	2781                	sext.w	a5,a5
    1fee:	873e                	mv	a4,a5
    1ff0:	7f8007b7          	lui	a5,0x7f800
    1ff4:	04e7e563          	bltu	a5,a4,203e <UnityFloatsWithin+0x192>
    1ff8:	fec42507          	flw	fa0,-20(s0)
    1ffc:	9b5fe0ef          	jal	ra,9b0 <__FLOAT_BITS>
    2000:	87aa                	mv	a5,a0
    2002:	2781                	sext.w	a5,a5
    2004:	873e                	mv	a4,a5
    2006:	800007b7          	lui	a5,0x80000
    200a:	fff7c793          	not	a5,a5
    200e:	8ff9                	and	a5,a5,a4
    2010:	2781                	sext.w	a5,a5
    2012:	873e                	mv	a4,a5
    2014:	7f8007b7          	lui	a5,0x7f800
    2018:	02f70363          	beq	a4,a5,203e <UnityFloatsWithin+0x192>
    201c:	fec42707          	flw	fa4,-20(s0)
    2020:	fdc42787          	flw	fa5,-36(s0)
    2024:	a0e797d3          	flt.s	a5,fa5,fa4
    2028:	00f037b3          	snez	a5,a5
    202c:	0ff7f793          	zext.b	a5,a5
    2030:	0017c793          	xori	a5,a5,1
    2034:	0ff7f793          	zext.b	a5,a5
    2038:	c399                	beqz	a5,203e <UnityFloatsWithin+0x192>
    203a:	4785                	li	a5,1
    203c:	a011                	j	2040 <UnityFloatsWithin+0x194>
    203e:	4781                	li	a5,0
    2040:	853e                	mv	a0,a5
    2042:	70a2                	ld	ra,40(sp)
    2044:	7402                	ld	s0,32(sp)
    2046:	6145                	addi	sp,sp,48
    2048:	8082                	ret

000000000000204a <UnityAssertWithinFloatArray>:
    204a:	711d                	addi	sp,sp,-96
    204c:	ec86                	sd	ra,88(sp)
    204e:	e8a2                	sd	s0,80(sp)
    2050:	1080                	addi	s0,sp,96
    2052:	fca42627          	fsw	fa0,-52(s0)
    2056:	fca43023          	sd	a0,-64(s0)
    205a:	fab43c23          	sd	a1,-72(s0)
    205e:	fad43823          	sd	a3,-80(s0)
    2062:	fae43423          	sd	a4,-88(s0)
    2066:	873e                	mv	a4,a5
    2068:	87b2                	mv	a5,a2
    206a:	fcf42423          	sw	a5,-56(s0)
    206e:	87ba                	mv	a5,a4
    2070:	faf42223          	sw	a5,-92(s0)
    2074:	fc842783          	lw	a5,-56(s0)
    2078:	fef42623          	sw	a5,-20(s0)
    207c:	fc043783          	ld	a5,-64(s0)
    2080:	fef43023          	sd	a5,-32(s0)
    2084:	fb843783          	ld	a5,-72(s0)
    2088:	fcf43c23          	sd	a5,-40(s0)
    208c:	fcc42787          	flw	fa5,-52(s0)
    2090:	fcf42a27          	fsw	fa5,-44(s0)
    2094:	fcc42787          	flw	fa5,-52(s0)
    2098:	fcf42827          	fsw	fa5,-48(s0)
    209c:	00003797          	auipc	a5,0x3
    20a0:	04478793          	addi	a5,a5,68 # 50e0 <Unity>
    20a4:	63bc                	ld	a5,64(a5)
    20a6:	e799                	bnez	a5,20b4 <UnityAssertWithinFloatArray+0x6a>
    20a8:	00003797          	auipc	a5,0x3
    20ac:	03878793          	addi	a5,a5,56 # 50e0 <Unity>
    20b0:	67bc                	ld	a5,72(a5)
    20b2:	cb81                	beqz	a5,20c2 <UnityAssertWithinFloatArray+0x78>
    20b4:	4585                	li	a1,1
    20b6:	00003517          	auipc	a0,0x3
    20ba:	07a50513          	addi	a0,a0,122 # 5130 <Unity+0x50>
    20be:	dc2fe0ef          	jal	ra,680 <longjmp@plt>
    20c2:	fec42783          	lw	a5,-20(s0)
    20c6:	2781                	sext.w	a5,a5
    20c8:	ef85                	bnez	a5,2100 <UnityAssertWithinFloatArray+0xb6>
    20ca:	fa843503          	ld	a0,-88(s0)
    20ce:	c58ff0ef          	jal	ra,1526 <UnityTestResultsFailBegin>
    20d2:	00002517          	auipc	a0,0x2
    20d6:	ab650513          	addi	a0,a0,-1354 # 3b88 <UnityStrPointless>
    20da:	a1ffe0ef          	jal	ra,af8 <UnityPrint>
    20de:	fb043503          	ld	a0,-80(s0)
    20e2:	d26ff0ef          	jal	ra,1608 <UnityAddMsgIfSpecified>
    20e6:	00003797          	auipc	a5,0x3
    20ea:	ffa78793          	addi	a5,a5,-6 # 50e0 <Unity>
    20ee:	4705                	li	a4,1
    20f0:	e3b8                	sd	a4,64(a5)
    20f2:	4585                	li	a1,1
    20f4:	00003517          	auipc	a0,0x3
    20f8:	03c50513          	addi	a0,a0,60 # 5130 <Unity+0x50>
    20fc:	d84fe0ef          	jal	ra,680 <longjmp@plt>
    2100:	fd442507          	flw	fa0,-44(s0)
    2104:	8adfe0ef          	jal	ra,9b0 <__FLOAT_BITS>
    2108:	87aa                	mv	a5,a0
    210a:	2781                	sext.w	a5,a5
    210c:	873e                	mv	a4,a5
    210e:	800007b7          	lui	a5,0x80000
    2112:	fff7c793          	not	a5,a5
    2116:	8ff9                	and	a5,a5,a4
    2118:	2781                	sext.w	a5,a5
    211a:	873e                	mv	a4,a5
    211c:	7f8007b7          	lui	a5,0x7f800
    2120:	1cf70f63          	beq	a4,a5,22fe <UnityAssertWithinFloatArray+0x2b4>
    2124:	fd442507          	flw	fa0,-44(s0)
    2128:	889fe0ef          	jal	ra,9b0 <__FLOAT_BITS>
    212c:	87aa                	mv	a5,a0
    212e:	2781                	sext.w	a5,a5
    2130:	873e                	mv	a4,a5
    2132:	800007b7          	lui	a5,0x80000
    2136:	fff7c793          	not	a5,a5
    213a:	8ff9                	and	a5,a5,a4
    213c:	2781                	sext.w	a5,a5
    213e:	873e                	mv	a4,a5
    2140:	7f8007b7          	lui	a5,0x7f800
    2144:	02e7fd63          	bgeu	a5,a4,217e <UnityAssertWithinFloatArray+0x134>
    2148:	fa843503          	ld	a0,-88(s0)
    214c:	bdaff0ef          	jal	ra,1526 <UnityTestResultsFailBegin>
    2150:	00002517          	auipc	a0,0x2
    2154:	a3850513          	addi	a0,a0,-1480 # 3b88 <UnityStrPointless>
    2158:	9a1fe0ef          	jal	ra,af8 <UnityPrint>
    215c:	fb043503          	ld	a0,-80(s0)
    2160:	ca8ff0ef          	jal	ra,1608 <UnityAddMsgIfSpecified>
    2164:	00003797          	auipc	a5,0x3
    2168:	f7c78793          	addi	a5,a5,-132 # 50e0 <Unity>
    216c:	4705                	li	a4,1
    216e:	e3b8                	sd	a4,64(a5)
    2170:	4585                	li	a1,1
    2172:	00003517          	auipc	a0,0x3
    2176:	fbe50513          	addi	a0,a0,-66 # 5130 <Unity+0x50>
    217a:	d06fe0ef          	jal	ra,680 <longjmp@plt>
    217e:	fc043703          	ld	a4,-64(s0)
    2182:	fb843783          	ld	a5,-72(s0)
    2186:	16f70e63          	beq	a4,a5,2302 <UnityAssertWithinFloatArray+0x2b8>
    218a:	fb043683          	ld	a3,-80(s0)
    218e:	fa843603          	ld	a2,-88(s0)
    2192:	fb843583          	ld	a1,-72(s0)
    2196:	fc043503          	ld	a0,-64(s0)
    219a:	e20ff0ef          	jal	ra,17ba <UnityIsOneArrayNull>
    219e:	87aa                	mv	a5,a0
    21a0:	cf91                	beqz	a5,21bc <UnityAssertWithinFloatArray+0x172>
    21a2:	00003797          	auipc	a5,0x3
    21a6:	f3e78793          	addi	a5,a5,-194 # 50e0 <Unity>
    21aa:	4705                	li	a4,1
    21ac:	e3b8                	sd	a4,64(a5)
    21ae:	4585                	li	a1,1
    21b0:	00003517          	auipc	a0,0x3
    21b4:	f8050513          	addi	a0,a0,-128 # 5130 <Unity+0x50>
    21b8:	cc8fe0ef          	jal	ra,680 <longjmp@plt>
    21bc:	fd442787          	flw	fa5,-44(s0)
    21c0:	f0000753          	fmv.w.x	fa4,zero
    21c4:	a0e797d3          	flt.s	a5,fa5,fa4
    21c8:	c799                	beqz	a5,21d6 <UnityAssertWithinFloatArray+0x18c>
    21ca:	fd442787          	flw	fa5,-44(s0)
    21ce:	20f797d3          	fneg.s	fa5,fa5
    21d2:	fcf42a27          	fsw	fa5,-44(s0)
    21d6:	aa19                	j	22ec <UnityAssertWithinFloatArray+0x2a2>
    21d8:	fe043783          	ld	a5,-32(s0)
    21dc:	0007a707          	flw	fa4,0(a5)
    21e0:	00002797          	auipc	a5,0x2
    21e4:	ba478793          	addi	a5,a5,-1116 # 3d84 <sig_digits.0+0x14>
    21e8:	0007a787          	flw	fa5,0(a5)
    21ec:	10f777d3          	fmul.s	fa5,fa4,fa5
    21f0:	fcf42827          	fsw	fa5,-48(s0)
    21f4:	fd042787          	flw	fa5,-48(s0)
    21f8:	f0000753          	fmv.w.x	fa4,zero
    21fc:	a0e797d3          	flt.s	a5,fa5,fa4
    2200:	c799                	beqz	a5,220e <UnityAssertWithinFloatArray+0x1c4>
    2202:	fd042787          	flw	fa5,-48(s0)
    2206:	20f797d3          	fneg.s	fa5,fa5
    220a:	fcf42827          	fsw	fa5,-48(s0)
    220e:	fd442707          	flw	fa4,-44(s0)
    2212:	fd042787          	flw	fa5,-48(s0)
    2216:	00f777d3          	fadd.s	fa5,fa4,fa5
    221a:	fe043783          	ld	a5,-32(s0)
    221e:	0007a707          	flw	fa4,0(a5)
    2222:	fd843783          	ld	a5,-40(s0)
    2226:	0007a687          	flw	fa3,0(a5)
    222a:	20d68653          	fmv.s	fa2,fa3
    222e:	20e705d3          	fmv.s	fa1,fa4
    2232:	20f78553          	fmv.s	fa0,fa5
    2236:	c77ff0ef          	jal	ra,1eac <UnityFloatsWithin>
    223a:	87aa                	mv	a5,a0
    223c:	e7d9                	bnez	a5,22ca <UnityAssertWithinFloatArray+0x280>
    223e:	fa843503          	ld	a0,-88(s0)
    2242:	ae4ff0ef          	jal	ra,1526 <UnityTestResultsFailBegin>
    2246:	00002517          	auipc	a0,0x2
    224a:	8f250513          	addi	a0,a0,-1806 # 3b38 <UnityStrElement>
    224e:	8abfe0ef          	jal	ra,af8 <UnityPrint>
    2252:	fc842783          	lw	a5,-56(s0)
    2256:	873e                	mv	a4,a5
    2258:	fec42783          	lw	a5,-20(s0)
    225c:	40f707bb          	subw	a5,a4,a5
    2260:	2781                	sext.w	a5,a5
    2262:	37fd                	addiw	a5,a5,-1
    2264:	2781                	sext.w	a5,a5
    2266:	1782                	slli	a5,a5,0x20
    2268:	9381                	srli	a5,a5,0x20
    226a:	853e                	mv	a0,a5
    226c:	b51fe0ef          	jal	ra,dbc <UnityPrintNumberUnsigned>
    2270:	00002517          	auipc	a0,0x2
    2274:	85850513          	addi	a0,a0,-1960 # 3ac8 <UnityStrExpected>
    2278:	881fe0ef          	jal	ra,af8 <UnityPrint>
    227c:	fe043783          	ld	a5,-32(s0)
    2280:	0007a787          	flw	fa5,0(a5)
    2284:	20f78553          	fmv.s	fa0,fa5
    2288:	cdffe0ef          	jal	ra,f66 <UnityPrintFloat>
    228c:	00002517          	auipc	a0,0x2
    2290:	84c50513          	addi	a0,a0,-1972 # 3ad8 <UnityStrWas>
    2294:	865fe0ef          	jal	ra,af8 <UnityPrint>
    2298:	fd843783          	ld	a5,-40(s0)
    229c:	0007a787          	flw	fa5,0(a5)
    22a0:	20f78553          	fmv.s	fa0,fa5
    22a4:	cc3fe0ef          	jal	ra,f66 <UnityPrintFloat>
    22a8:	fb043503          	ld	a0,-80(s0)
    22ac:	b5cff0ef          	jal	ra,1608 <UnityAddMsgIfSpecified>
    22b0:	00003797          	auipc	a5,0x3
    22b4:	e3078793          	addi	a5,a5,-464 # 50e0 <Unity>
    22b8:	4705                	li	a4,1
    22ba:	e3b8                	sd	a4,64(a5)
    22bc:	4585                	li	a1,1
    22be:	00003517          	auipc	a0,0x3
    22c2:	e7250513          	addi	a0,a0,-398 # 5130 <Unity+0x50>
    22c6:	bbafe0ef          	jal	ra,680 <longjmp@plt>
    22ca:	fa442783          	lw	a5,-92(s0)
    22ce:	0007871b          	sext.w	a4,a5
    22d2:	4785                	li	a5,1
    22d4:	00f71763          	bne	a4,a5,22e2 <UnityAssertWithinFloatArray+0x298>
    22d8:	fe043783          	ld	a5,-32(s0)
    22dc:	0791                	addi	a5,a5,4
    22de:	fef43023          	sd	a5,-32(s0)
    22e2:	fd843783          	ld	a5,-40(s0)
    22e6:	0791                	addi	a5,a5,4
    22e8:	fcf43c23          	sd	a5,-40(s0)
    22ec:	fec42783          	lw	a5,-20(s0)
    22f0:	fff7871b          	addiw	a4,a5,-1
    22f4:	fee42623          	sw	a4,-20(s0)
    22f8:	ee0790e3          	bnez	a5,21d8 <UnityAssertWithinFloatArray+0x18e>
    22fc:	a021                	j	2304 <UnityAssertWithinFloatArray+0x2ba>
    22fe:	0001                	nop
    2300:	a011                	j	2304 <UnityAssertWithinFloatArray+0x2ba>
    2302:	0001                	nop
    2304:	60e6                	ld	ra,88(sp)
    2306:	6446                	ld	s0,80(sp)
    2308:	6125                	addi	sp,sp,96
    230a:	8082                	ret

000000000000230c <UnityAssertFloatsWithin>:
    230c:	7179                	addi	sp,sp,-48
    230e:	f406                	sd	ra,40(sp)
    2310:	f022                	sd	s0,32(sp)
    2312:	1800                	addi	s0,sp,48
    2314:	fea42627          	fsw	fa0,-20(s0)
    2318:	feb42427          	fsw	fa1,-24(s0)
    231c:	fec42227          	fsw	fa2,-28(s0)
    2320:	fca43c23          	sd	a0,-40(s0)
    2324:	fcb43823          	sd	a1,-48(s0)
    2328:	00003797          	auipc	a5,0x3
    232c:	db878793          	addi	a5,a5,-584 # 50e0 <Unity>
    2330:	63bc                	ld	a5,64(a5)
    2332:	e799                	bnez	a5,2340 <UnityAssertFloatsWithin+0x34>
    2334:	00003797          	auipc	a5,0x3
    2338:	dac78793          	addi	a5,a5,-596 # 50e0 <Unity>
    233c:	67bc                	ld	a5,72(a5)
    233e:	cb81                	beqz	a5,234e <UnityAssertFloatsWithin+0x42>
    2340:	4585                	li	a1,1
    2342:	00003517          	auipc	a0,0x3
    2346:	dee50513          	addi	a0,a0,-530 # 5130 <Unity+0x50>
    234a:	b36fe0ef          	jal	ra,680 <longjmp@plt>
    234e:	fe442607          	flw	fa2,-28(s0)
    2352:	fe842587          	flw	fa1,-24(s0)
    2356:	fec42507          	flw	fa0,-20(s0)
    235a:	b53ff0ef          	jal	ra,1eac <UnityFloatsWithin>
    235e:	87aa                	mv	a5,a0
    2360:	ebb1                	bnez	a5,23b4 <UnityAssertFloatsWithin+0xa8>
    2362:	fd043503          	ld	a0,-48(s0)
    2366:	9c0ff0ef          	jal	ra,1526 <UnityTestResultsFailBegin>
    236a:	00001517          	auipc	a0,0x1
    236e:	75e50513          	addi	a0,a0,1886 # 3ac8 <UnityStrExpected>
    2372:	f86fe0ef          	jal	ra,af8 <UnityPrint>
    2376:	fe842507          	flw	fa0,-24(s0)
    237a:	bedfe0ef          	jal	ra,f66 <UnityPrintFloat>
    237e:	00001517          	auipc	a0,0x1
    2382:	75a50513          	addi	a0,a0,1882 # 3ad8 <UnityStrWas>
    2386:	f72fe0ef          	jal	ra,af8 <UnityPrint>
    238a:	fe442507          	flw	fa0,-28(s0)
    238e:	bd9fe0ef          	jal	ra,f66 <UnityPrintFloat>
    2392:	fd843503          	ld	a0,-40(s0)
    2396:	a72ff0ef          	jal	ra,1608 <UnityAddMsgIfSpecified>
    239a:	00003797          	auipc	a5,0x3
    239e:	d4678793          	addi	a5,a5,-698 # 50e0 <Unity>
    23a2:	4705                	li	a4,1
    23a4:	e3b8                	sd	a4,64(a5)
    23a6:	4585                	li	a1,1
    23a8:	00003517          	auipc	a0,0x3
    23ac:	d8850513          	addi	a0,a0,-632 # 5130 <Unity+0x50>
    23b0:	ad0fe0ef          	jal	ra,680 <longjmp@plt>
    23b4:	0001                	nop
    23b6:	70a2                	ld	ra,40(sp)
    23b8:	7402                	ld	s0,32(sp)
    23ba:	6145                	addi	sp,sp,48
    23bc:	8082                	ret

00000000000023be <UnityAssertFloatsNotWithin>:
    23be:	7179                	addi	sp,sp,-48
    23c0:	f406                	sd	ra,40(sp)
    23c2:	f022                	sd	s0,32(sp)
    23c4:	1800                	addi	s0,sp,48
    23c6:	fea42627          	fsw	fa0,-20(s0)
    23ca:	feb42427          	fsw	fa1,-24(s0)
    23ce:	fec42227          	fsw	fa2,-28(s0)
    23d2:	fca43c23          	sd	a0,-40(s0)
    23d6:	fcb43823          	sd	a1,-48(s0)
    23da:	00003797          	auipc	a5,0x3
    23de:	d0678793          	addi	a5,a5,-762 # 50e0 <Unity>
    23e2:	63bc                	ld	a5,64(a5)
    23e4:	e799                	bnez	a5,23f2 <UnityAssertFloatsNotWithin+0x34>
    23e6:	00003797          	auipc	a5,0x3
    23ea:	cfa78793          	addi	a5,a5,-774 # 50e0 <Unity>
    23ee:	67bc                	ld	a5,72(a5)
    23f0:	cb81                	beqz	a5,2400 <UnityAssertFloatsNotWithin+0x42>
    23f2:	4585                	li	a1,1
    23f4:	00003517          	auipc	a0,0x3
    23f8:	d3c50513          	addi	a0,a0,-708 # 5130 <Unity+0x50>
    23fc:	a84fe0ef          	jal	ra,680 <longjmp@plt>
    2400:	fe442607          	flw	fa2,-28(s0)
    2404:	fe842587          	flw	fa1,-24(s0)
    2408:	fec42507          	flw	fa0,-20(s0)
    240c:	aa1ff0ef          	jal	ra,1eac <UnityFloatsWithin>
    2410:	87aa                	mv	a5,a0
    2412:	cbb1                	beqz	a5,2466 <UnityAssertFloatsNotWithin+0xa8>
    2414:	fd043503          	ld	a0,-48(s0)
    2418:	90eff0ef          	jal	ra,1526 <UnityTestResultsFailBegin>
    241c:	00001517          	auipc	a0,0x1
    2420:	6ac50513          	addi	a0,a0,1708 # 3ac8 <UnityStrExpected>
    2424:	ed4fe0ef          	jal	ra,af8 <UnityPrint>
    2428:	fe842507          	flw	fa0,-24(s0)
    242c:	b3bfe0ef          	jal	ra,f66 <UnityPrintFloat>
    2430:	00001517          	auipc	a0,0x1
    2434:	6f050513          	addi	a0,a0,1776 # 3b20 <UnityStrNotEqual>
    2438:	ec0fe0ef          	jal	ra,af8 <UnityPrint>
    243c:	fe442507          	flw	fa0,-28(s0)
    2440:	b27fe0ef          	jal	ra,f66 <UnityPrintFloat>
    2444:	fd843503          	ld	a0,-40(s0)
    2448:	9c0ff0ef          	jal	ra,1608 <UnityAddMsgIfSpecified>
    244c:	00003797          	auipc	a5,0x3
    2450:	c9478793          	addi	a5,a5,-876 # 50e0 <Unity>
    2454:	4705                	li	a4,1
    2456:	e3b8                	sd	a4,64(a5)
    2458:	4585                	li	a1,1
    245a:	00003517          	auipc	a0,0x3
    245e:	cd650513          	addi	a0,a0,-810 # 5130 <Unity+0x50>
    2462:	a1efe0ef          	jal	ra,680 <longjmp@plt>
    2466:	0001                	nop
    2468:	70a2                	ld	ra,40(sp)
    246a:	7402                	ld	s0,32(sp)
    246c:	6145                	addi	sp,sp,48
    246e:	8082                	ret

0000000000002470 <UnityAssertGreaterOrLessFloat>:
    2470:	7139                	addi	sp,sp,-64
    2472:	fc06                	sd	ra,56(sp)
    2474:	f822                	sd	s0,48(sp)
    2476:	0080                	addi	s0,sp,64
    2478:	fca42e27          	fsw	fa0,-36(s0)
    247c:	fcb42c27          	fsw	fa1,-40(s0)
    2480:	87aa                	mv	a5,a0
    2482:	fcb43423          	sd	a1,-56(s0)
    2486:	fcc43023          	sd	a2,-64(s0)
    248a:	fcf42a23          	sw	a5,-44(s0)
    248e:	00003797          	auipc	a5,0x3
    2492:	c5278793          	addi	a5,a5,-942 # 50e0 <Unity>
    2496:	63bc                	ld	a5,64(a5)
    2498:	e799                	bnez	a5,24a6 <UnityAssertGreaterOrLessFloat+0x36>
    249a:	00003797          	auipc	a5,0x3
    249e:	c4678793          	addi	a5,a5,-954 # 50e0 <Unity>
    24a2:	67bc                	ld	a5,72(a5)
    24a4:	cb81                	beqz	a5,24b4 <UnityAssertGreaterOrLessFloat+0x44>
    24a6:	4585                	li	a1,1
    24a8:	00003517          	auipc	a0,0x3
    24ac:	c8850513          	addi	a0,a0,-888 # 5130 <Unity+0x50>
    24b0:	9d0fe0ef          	jal	ra,680 <longjmp@plt>
    24b4:	fe042623          	sw	zero,-20(s0)
    24b8:	fd842707          	flw	fa4,-40(s0)
    24bc:	fdc42787          	flw	fa5,-36(s0)
    24c0:	a0f717d3          	flt.s	a5,fa4,fa5
    24c4:	00f037b3          	snez	a5,a5
    24c8:	0ff7f793          	zext.b	a5,a5
    24cc:	0017c793          	xori	a5,a5,1
    24d0:	0ff7f793          	zext.b	a5,a5
    24d4:	cb89                	beqz	a5,24e6 <UnityAssertGreaterOrLessFloat+0x76>
    24d6:	fd442783          	lw	a5,-44(s0)
    24da:	8b91                	andi	a5,a5,4
    24dc:	2781                	sext.w	a5,a5
    24de:	c781                	beqz	a5,24e6 <UnityAssertGreaterOrLessFloat+0x76>
    24e0:	4785                	li	a5,1
    24e2:	fef42623          	sw	a5,-20(s0)
    24e6:	fd842707          	flw	fa4,-40(s0)
    24ea:	fdc42787          	flw	fa5,-36(s0)
    24ee:	a0e797d3          	flt.s	a5,fa5,fa4
    24f2:	00f037b3          	snez	a5,a5
    24f6:	0ff7f793          	zext.b	a5,a5
    24fa:	0017c793          	xori	a5,a5,1
    24fe:	0ff7f793          	zext.b	a5,a5
    2502:	cb89                	beqz	a5,2514 <UnityAssertGreaterOrLessFloat+0xa4>
    2504:	fd442783          	lw	a5,-44(s0)
    2508:	8b89                	andi	a5,a5,2
    250a:	2781                	sext.w	a5,a5
    250c:	c781                	beqz	a5,2514 <UnityAssertGreaterOrLessFloat+0xa4>
    250e:	4785                	li	a5,1
    2510:	fef42623          	sw	a5,-20(s0)
    2514:	fd442783          	lw	a5,-44(s0)
    2518:	8b85                	andi	a5,a5,1
    251a:	2781                	sext.w	a5,a5
    251c:	c79d                	beqz	a5,254a <UnityAssertGreaterOrLessFloat+0xda>
    251e:	fdc42707          	flw	fa4,-36(s0)
    2522:	00002797          	auipc	a5,0x2
    2526:	86278793          	addi	a5,a5,-1950 # 3d84 <sig_digits.0+0x14>
    252a:	0007a787          	flw	fa5,0(a5)
    252e:	10f777d3          	fmul.s	fa5,fa4,fa5
    2532:	fd842607          	flw	fa2,-40(s0)
    2536:	fdc42587          	flw	fa1,-36(s0)
    253a:	20f78553          	fmv.s	fa0,fa5
    253e:	96fff0ef          	jal	ra,1eac <UnityFloatsWithin>
    2542:	87aa                	mv	a5,a0
    2544:	c399                	beqz	a5,254a <UnityAssertGreaterOrLessFloat+0xda>
    2546:	fe042623          	sw	zero,-20(s0)
    254a:	fec42783          	lw	a5,-20(s0)
    254e:	2781                	sext.w	a5,a5
    2550:	c7c9                	beqz	a5,25da <UnityAssertGreaterOrLessFloat+0x16a>
    2552:	fc043503          	ld	a0,-64(s0)
    2556:	fd1fe0ef          	jal	ra,1526 <UnityTestResultsFailBegin>
    255a:	00001517          	auipc	a0,0x1
    255e:	56e50513          	addi	a0,a0,1390 # 3ac8 <UnityStrExpected>
    2562:	d96fe0ef          	jal	ra,af8 <UnityPrint>
    2566:	fd842507          	flw	fa0,-40(s0)
    256a:	9fdfe0ef          	jal	ra,f66 <UnityPrintFloat>
    256e:	fd442783          	lw	a5,-44(s0)
    2572:	8b89                	andi	a5,a5,2
    2574:	2781                	sext.w	a5,a5
    2576:	c799                	beqz	a5,2584 <UnityAssertGreaterOrLessFloat+0x114>
    2578:	00001517          	auipc	a0,0x1
    257c:	56850513          	addi	a0,a0,1384 # 3ae0 <UnityStrGt>
    2580:	d78fe0ef          	jal	ra,af8 <UnityPrint>
    2584:	fd442783          	lw	a5,-44(s0)
    2588:	8b91                	andi	a5,a5,4
    258a:	2781                	sext.w	a5,a5
    258c:	c799                	beqz	a5,259a <UnityAssertGreaterOrLessFloat+0x12a>
    258e:	00001517          	auipc	a0,0x1
    2592:	56a50513          	addi	a0,a0,1386 # 3af8 <UnityStrLt>
    2596:	d62fe0ef          	jal	ra,af8 <UnityPrint>
    259a:	fd442783          	lw	a5,-44(s0)
    259e:	8b85                	andi	a5,a5,1
    25a0:	2781                	sext.w	a5,a5
    25a2:	c799                	beqz	a5,25b0 <UnityAssertGreaterOrLessFloat+0x140>
    25a4:	00001517          	auipc	a0,0x1
    25a8:	56c50513          	addi	a0,a0,1388 # 3b10 <UnityStrOrEqual>
    25ac:	d4cfe0ef          	jal	ra,af8 <UnityPrint>
    25b0:	fdc42507          	flw	fa0,-36(s0)
    25b4:	9b3fe0ef          	jal	ra,f66 <UnityPrintFloat>
    25b8:	fc843503          	ld	a0,-56(s0)
    25bc:	84cff0ef          	jal	ra,1608 <UnityAddMsgIfSpecified>
    25c0:	00003797          	auipc	a5,0x3
    25c4:	b2078793          	addi	a5,a5,-1248 # 50e0 <Unity>
    25c8:	4705                	li	a4,1
    25ca:	e3b8                	sd	a4,64(a5)
    25cc:	4585                	li	a1,1
    25ce:	00003517          	auipc	a0,0x3
    25d2:	b6250513          	addi	a0,a0,-1182 # 5130 <Unity+0x50>
    25d6:	8aafe0ef          	jal	ra,680 <longjmp@plt>
    25da:	0001                	nop
    25dc:	70e2                	ld	ra,56(sp)
    25de:	7442                	ld	s0,48(sp)
    25e0:	6121                	addi	sp,sp,64
    25e2:	8082                	ret

00000000000025e4 <UnityAssertFloatSpecial>:
    25e4:	7159                	addi	sp,sp,-112
    25e6:	f486                	sd	ra,104(sp)
    25e8:	f0a2                	sd	s0,96(sp)
    25ea:	1880                	addi	s0,sp,112
    25ec:	faa42627          	fsw	fa0,-84(s0)
    25f0:	faa43023          	sd	a0,-96(s0)
    25f4:	f8b43c23          	sd	a1,-104(s0)
    25f8:	87b2                	mv	a5,a2
    25fa:	faf42423          	sw	a5,-88(s0)
    25fe:	00003797          	auipc	a5,0x3
    2602:	a0a78793          	addi	a5,a5,-1526 # 5008 <__dso_handle+0x8>
    2606:	6390                	ld	a2,0(a5)
    2608:	6794                	ld	a3,8(a5)
    260a:	6b98                	ld	a4,16(a5)
    260c:	6f9c                	ld	a5,24(a5)
    260e:	fac43c23          	sd	a2,-72(s0)
    2612:	fcd43023          	sd	a3,-64(s0)
    2616:	fce43423          	sd	a4,-56(s0)
    261a:	fcf43823          	sd	a5,-48(s0)
    261e:	fa846783          	lwu	a5,-88(s0)
    2622:	8b85                	andi	a5,a5,1
    2624:	fcf43c23          	sd	a5,-40(s0)
    2628:	fd843783          	ld	a5,-40(s0)
    262c:	0017b793          	seqz	a5,a5
    2630:	0ff7f793          	zext.b	a5,a5
    2634:	fef43423          	sd	a5,-24(s0)
    2638:	fa842783          	lw	a5,-88(s0)
    263c:	0017d79b          	srliw	a5,a5,0x1
    2640:	2781                	sext.w	a5,a5
    2642:	1782                	slli	a5,a5,0x20
    2644:	9381                	srli	a5,a5,0x20
    2646:	fef43023          	sd	a5,-32(s0)
    264a:	00003797          	auipc	a5,0x3
    264e:	a9678793          	addi	a5,a5,-1386 # 50e0 <Unity>
    2652:	63bc                	ld	a5,64(a5)
    2654:	e799                	bnez	a5,2662 <UnityAssertFloatSpecial+0x7e>
    2656:	00003797          	auipc	a5,0x3
    265a:	a8a78793          	addi	a5,a5,-1398 # 50e0 <Unity>
    265e:	67bc                	ld	a5,72(a5)
    2660:	cb81                	beqz	a5,2670 <UnityAssertFloatSpecial+0x8c>
    2662:	4585                	li	a1,1
    2664:	00003517          	auipc	a0,0x3
    2668:	acc50513          	addi	a0,a0,-1332 # 5130 <Unity+0x50>
    266c:	814fe0ef          	jal	ra,680 <longjmp@plt>
    2670:	fa842783          	lw	a5,-88(s0)
    2674:	0007871b          	sext.w	a4,a5
    2678:	479d                	li	a5,7
    267a:	14e7e663          	bltu	a5,a4,27c6 <UnityAssertFloatSpecial+0x1e2>
    267e:	fa842783          	lw	a5,-88(s0)
    2682:	0007871b          	sext.w	a4,a5
    2686:	4799                	li	a5,6
    2688:	0ef77563          	bgeu	a4,a5,2772 <UnityAssertFloatSpecial+0x18e>
    268c:	fa842783          	lw	a5,-88(s0)
    2690:	0007871b          	sext.w	a4,a5
    2694:	4795                	li	a5,5
    2696:	12e7e863          	bltu	a5,a4,27c6 <UnityAssertFloatSpecial+0x1e2>
    269a:	fa842783          	lw	a5,-88(s0)
    269e:	0007871b          	sext.w	a4,a5
    26a2:	4791                	li	a5,4
    26a4:	0af77063          	bgeu	a4,a5,2744 <UnityAssertFloatSpecial+0x160>
    26a8:	fa842783          	lw	a5,-88(s0)
    26ac:	0007871b          	sext.w	a4,a5
    26b0:	4785                	li	a5,1
    26b2:	00e7fb63          	bgeu	a5,a4,26c8 <UnityAssertFloatSpecial+0xe4>
    26b6:	fa842783          	lw	a5,-88(s0)
    26ba:	37f9                	addiw	a5,a5,-2
    26bc:	2781                	sext.w	a5,a5
    26be:	873e                	mv	a4,a5
    26c0:	4785                	li	a5,1
    26c2:	10e7e263          	bltu	a5,a4,27c6 <UnityAssertFloatSpecial+0x1e2>
    26c6:	a081                	j	2706 <UnityAssertFloatSpecial+0x122>
    26c8:	fac42507          	flw	fa0,-84(s0)
    26cc:	ae4fe0ef          	jal	ra,9b0 <__FLOAT_BITS>
    26d0:	87aa                	mv	a5,a0
    26d2:	2781                	sext.w	a5,a5
    26d4:	873e                	mv	a4,a5
    26d6:	800007b7          	lui	a5,0x80000
    26da:	fff7c793          	not	a5,a5
    26de:	8ff9                	and	a5,a5,a4
    26e0:	2781                	sext.w	a5,a5
    26e2:	873e                	mv	a4,a5
    26e4:	7f8007b7          	lui	a5,0x7f800
    26e8:	00f71b63          	bne	a4,a5,26fe <UnityAssertFloatSpecial+0x11a>
    26ec:	fac42787          	flw	fa5,-84(s0)
    26f0:	f0000753          	fmv.w.x	fa4,zero
    26f4:	a0f717d3          	flt.s	a5,fa4,fa5
    26f8:	c399                	beqz	a5,26fe <UnityAssertFloatSpecial+0x11a>
    26fa:	4785                	li	a5,1
    26fc:	a011                	j	2700 <UnityAssertFloatSpecial+0x11c>
    26fe:	4781                	li	a5,0
    2700:	fef43423          	sd	a5,-24(s0)
    2704:	a8d1                	j	27d8 <UnityAssertFloatSpecial+0x1f4>
    2706:	fac42507          	flw	fa0,-84(s0)
    270a:	aa6fe0ef          	jal	ra,9b0 <__FLOAT_BITS>
    270e:	87aa                	mv	a5,a0
    2710:	2781                	sext.w	a5,a5
    2712:	873e                	mv	a4,a5
    2714:	800007b7          	lui	a5,0x80000
    2718:	fff7c793          	not	a5,a5
    271c:	8ff9                	and	a5,a5,a4
    271e:	2781                	sext.w	a5,a5
    2720:	873e                	mv	a4,a5
    2722:	7f8007b7          	lui	a5,0x7f800
    2726:	00f71b63          	bne	a4,a5,273c <UnityAssertFloatSpecial+0x158>
    272a:	fac42787          	flw	fa5,-84(s0)
    272e:	f0000753          	fmv.w.x	fa4,zero
    2732:	a0e797d3          	flt.s	a5,fa5,fa4
    2736:	c399                	beqz	a5,273c <UnityAssertFloatSpecial+0x158>
    2738:	4785                	li	a5,1
    273a:	a011                	j	273e <UnityAssertFloatSpecial+0x15a>
    273c:	4781                	li	a5,0
    273e:	fef43423          	sd	a5,-24(s0)
    2742:	a859                	j	27d8 <UnityAssertFloatSpecial+0x1f4>
    2744:	fac42507          	flw	fa0,-84(s0)
    2748:	a68fe0ef          	jal	ra,9b0 <__FLOAT_BITS>
    274c:	87aa                	mv	a5,a0
    274e:	2781                	sext.w	a5,a5
    2750:	873e                	mv	a4,a5
    2752:	800007b7          	lui	a5,0x80000
    2756:	fff7c793          	not	a5,a5
    275a:	8ff9                	and	a5,a5,a4
    275c:	2781                	sext.w	a5,a5
    275e:	873e                	mv	a4,a5
    2760:	7f8007b7          	lui	a5,0x7f800
    2764:	00e7b7b3          	sltu	a5,a5,a4
    2768:	0ff7f793          	zext.b	a5,a5
    276c:	fef43423          	sd	a5,-24(s0)
    2770:	a0a5                	j	27d8 <UnityAssertFloatSpecial+0x1f4>
    2772:	fac42507          	flw	fa0,-84(s0)
    2776:	a3afe0ef          	jal	ra,9b0 <__FLOAT_BITS>
    277a:	87aa                	mv	a5,a0
    277c:	2781                	sext.w	a5,a5
    277e:	873e                	mv	a4,a5
    2780:	800007b7          	lui	a5,0x80000
    2784:	fff7c793          	not	a5,a5
    2788:	8ff9                	and	a5,a5,a4
    278a:	2781                	sext.w	a5,a5
    278c:	873e                	mv	a4,a5
    278e:	7f8007b7          	lui	a5,0x7f800
    2792:	02f70663          	beq	a4,a5,27be <UnityAssertFloatSpecial+0x1da>
    2796:	fac42507          	flw	fa0,-84(s0)
    279a:	a16fe0ef          	jal	ra,9b0 <__FLOAT_BITS>
    279e:	87aa                	mv	a5,a0
    27a0:	2781                	sext.w	a5,a5
    27a2:	873e                	mv	a4,a5
    27a4:	800007b7          	lui	a5,0x80000
    27a8:	fff7c793          	not	a5,a5
    27ac:	8ff9                	and	a5,a5,a4
    27ae:	2781                	sext.w	a5,a5
    27b0:	873e                	mv	a4,a5
    27b2:	7f8007b7          	lui	a5,0x7f800
    27b6:	00e7e463          	bltu	a5,a4,27be <UnityAssertFloatSpecial+0x1da>
    27ba:	4785                	li	a5,1
    27bc:	a011                	j	27c0 <UnityAssertFloatSpecial+0x1dc>
    27be:	4781                	li	a5,0
    27c0:	fef43423          	sd	a5,-24(s0)
    27c4:	a811                	j	27d8 <UnityAssertFloatSpecial+0x1f4>
    27c6:	fe043023          	sd	zero,-32(s0)
    27ca:	00001797          	auipc	a5,0x1
    27ce:	47e78793          	addi	a5,a5,1150 # 3c48 <UnityStrInvalidFloatTrait>
    27d2:	faf43c23          	sd	a5,-72(s0)
    27d6:	0001                	nop
    27d8:	fe843703          	ld	a4,-24(s0)
    27dc:	fd843783          	ld	a5,-40(s0)
    27e0:	06f70a63          	beq	a4,a5,2854 <UnityAssertFloatSpecial+0x270>
    27e4:	f9843503          	ld	a0,-104(s0)
    27e8:	d3ffe0ef          	jal	ra,1526 <UnityTestResultsFailBegin>
    27ec:	00001517          	auipc	a0,0x1
    27f0:	2dc50513          	addi	a0,a0,732 # 3ac8 <UnityStrExpected>
    27f4:	b04fe0ef          	jal	ra,af8 <UnityPrint>
    27f8:	fd843783          	ld	a5,-40(s0)
    27fc:	e799                	bnez	a5,280a <UnityAssertFloatSpecial+0x226>
    27fe:	00001517          	auipc	a0,0x1
    2802:	40250513          	addi	a0,a0,1026 # 3c00 <UnityStrNot>
    2806:	af2fe0ef          	jal	ra,af8 <UnityPrint>
    280a:	fe043783          	ld	a5,-32(s0)
    280e:	078e                	slli	a5,a5,0x3
    2810:	17c1                	addi	a5,a5,-16
    2812:	97a2                	add	a5,a5,s0
    2814:	fc87b783          	ld	a5,-56(a5)
    2818:	853e                	mv	a0,a5
    281a:	adefe0ef          	jal	ra,af8 <UnityPrint>
    281e:	00001517          	auipc	a0,0x1
    2822:	2ba50513          	addi	a0,a0,698 # 3ad8 <UnityStrWas>
    2826:	ad2fe0ef          	jal	ra,af8 <UnityPrint>
    282a:	fac42507          	flw	fa0,-84(s0)
    282e:	f38fe0ef          	jal	ra,f66 <UnityPrintFloat>
    2832:	fa043503          	ld	a0,-96(s0)
    2836:	dd3fe0ef          	jal	ra,1608 <UnityAddMsgIfSpecified>
    283a:	00003797          	auipc	a5,0x3
    283e:	8a678793          	addi	a5,a5,-1882 # 50e0 <Unity>
    2842:	4705                	li	a4,1
    2844:	e3b8                	sd	a4,64(a5)
    2846:	4585                	li	a1,1
    2848:	00003517          	auipc	a0,0x3
    284c:	8e850513          	addi	a0,a0,-1816 # 5130 <Unity+0x50>
    2850:	e31fd0ef          	jal	ra,680 <longjmp@plt>
    2854:	0001                	nop
    2856:	70a6                	ld	ra,104(sp)
    2858:	7406                	ld	s0,96(sp)
    285a:	6165                	addi	sp,sp,112
    285c:	8082                	ret

000000000000285e <UnityAssertNumbersWithin>:
    285e:	7139                	addi	sp,sp,-64
    2860:	fc06                	sd	ra,56(sp)
    2862:	f822                	sd	s0,48(sp)
    2864:	0080                	addi	s0,sp,64
    2866:	fea43423          	sd	a0,-24(s0)
    286a:	feb43023          	sd	a1,-32(s0)
    286e:	fcc43c23          	sd	a2,-40(s0)
    2872:	fcd43823          	sd	a3,-48(s0)
    2876:	fce43423          	sd	a4,-56(s0)
    287a:	fcf42223          	sw	a5,-60(s0)
    287e:	00003797          	auipc	a5,0x3
    2882:	86278793          	addi	a5,a5,-1950 # 50e0 <Unity>
    2886:	63bc                	ld	a5,64(a5)
    2888:	e799                	bnez	a5,2896 <UnityAssertNumbersWithin+0x38>
    288a:	00003797          	auipc	a5,0x3
    288e:	85678793          	addi	a5,a5,-1962 # 50e0 <Unity>
    2892:	67bc                	ld	a5,72(a5)
    2894:	cb81                	beqz	a5,28a4 <UnityAssertNumbersWithin+0x46>
    2896:	4585                	li	a1,1
    2898:	00003517          	auipc	a0,0x3
    289c:	89850513          	addi	a0,a0,-1896 # 5130 <Unity+0x50>
    28a0:	de1fd0ef          	jal	ra,680 <longjmp@plt>
    28a4:	fc442783          	lw	a5,-60(s0)
    28a8:	8bc1                	andi	a5,a5,16
    28aa:	2781                	sext.w	a5,a5
    28ac:	cfa9                	beqz	a5,2906 <UnityAssertNumbersWithin+0xa8>
    28ae:	fd843703          	ld	a4,-40(s0)
    28b2:	fe043783          	ld	a5,-32(s0)
    28b6:	02e7d563          	bge	a5,a4,28e0 <UnityAssertNumbersWithin+0x82>
    28ba:	fd843703          	ld	a4,-40(s0)
    28be:	fe043783          	ld	a5,-32(s0)
    28c2:	40f707b3          	sub	a5,a4,a5
    28c6:	fe843703          	ld	a4,-24(s0)
    28ca:	00f737b3          	sltu	a5,a4,a5
    28ce:	0ff7f793          	zext.b	a5,a5
    28d2:	873e                	mv	a4,a5
    28d4:	00003797          	auipc	a5,0x3
    28d8:	80c78793          	addi	a5,a5,-2036 # 50e0 <Unity>
    28dc:	e3b8                	sd	a4,64(a5)
    28de:	a8bd                	j	295c <UnityAssertNumbersWithin+0xfe>
    28e0:	fe043703          	ld	a4,-32(s0)
    28e4:	fd843783          	ld	a5,-40(s0)
    28e8:	40f707b3          	sub	a5,a4,a5
    28ec:	fe843703          	ld	a4,-24(s0)
    28f0:	00f737b3          	sltu	a5,a4,a5
    28f4:	0ff7f793          	zext.b	a5,a5
    28f8:	873e                	mv	a4,a5
    28fa:	00002797          	auipc	a5,0x2
    28fe:	7e678793          	addi	a5,a5,2022 # 50e0 <Unity>
    2902:	e3b8                	sd	a4,64(a5)
    2904:	a8a1                	j	295c <UnityAssertNumbersWithin+0xfe>
    2906:	fd843703          	ld	a4,-40(s0)
    290a:	fe043783          	ld	a5,-32(s0)
    290e:	02e7f563          	bgeu	a5,a4,2938 <UnityAssertNumbersWithin+0xda>
    2912:	fd843703          	ld	a4,-40(s0)
    2916:	fe043783          	ld	a5,-32(s0)
    291a:	40f707b3          	sub	a5,a4,a5
    291e:	fe843703          	ld	a4,-24(s0)
    2922:	00f737b3          	sltu	a5,a4,a5
    2926:	0ff7f793          	zext.b	a5,a5
    292a:	873e                	mv	a4,a5
    292c:	00002797          	auipc	a5,0x2
    2930:	7b478793          	addi	a5,a5,1972 # 50e0 <Unity>
    2934:	e3b8                	sd	a4,64(a5)
    2936:	a01d                	j	295c <UnityAssertNumbersWithin+0xfe>
    2938:	fe043703          	ld	a4,-32(s0)
    293c:	fd843783          	ld	a5,-40(s0)
    2940:	40f707b3          	sub	a5,a4,a5
    2944:	fe843703          	ld	a4,-24(s0)
    2948:	00f737b3          	sltu	a5,a4,a5
    294c:	0ff7f793          	zext.b	a5,a5
    2950:	873e                	mv	a4,a5
    2952:	00002797          	auipc	a5,0x2
    2956:	78e78793          	addi	a5,a5,1934 # 50e0 <Unity>
    295a:	e3b8                	sd	a4,64(a5)
    295c:	00002797          	auipc	a5,0x2
    2960:	78478793          	addi	a5,a5,1924 # 50e0 <Unity>
    2964:	63bc                	ld	a5,64(a5)
    2966:	cfb5                	beqz	a5,29e2 <UnityAssertNumbersWithin+0x184>
    2968:	fc843503          	ld	a0,-56(s0)
    296c:	bbbfe0ef          	jal	ra,1526 <UnityTestResultsFailBegin>
    2970:	00001517          	auipc	a0,0x1
    2974:	1f850513          	addi	a0,a0,504 # 3b68 <UnityStrDelta>
    2978:	980fe0ef          	jal	ra,af8 <UnityPrint>
    297c:	fe843783          	ld	a5,-24(s0)
    2980:	fc442703          	lw	a4,-60(s0)
    2984:	85ba                	mv	a1,a4
    2986:	853e                	mv	a0,a5
    2988:	adefe0ef          	jal	ra,c66 <UnityPrintNumberByStyle>
    298c:	00001517          	auipc	a0,0x1
    2990:	13c50513          	addi	a0,a0,316 # 3ac8 <UnityStrExpected>
    2994:	964fe0ef          	jal	ra,af8 <UnityPrint>
    2998:	fc442783          	lw	a5,-60(s0)
    299c:	85be                	mv	a1,a5
    299e:	fe043503          	ld	a0,-32(s0)
    29a2:	ac4fe0ef          	jal	ra,c66 <UnityPrintNumberByStyle>
    29a6:	00001517          	auipc	a0,0x1
    29aa:	13250513          	addi	a0,a0,306 # 3ad8 <UnityStrWas>
    29ae:	94afe0ef          	jal	ra,af8 <UnityPrint>
    29b2:	fc442783          	lw	a5,-60(s0)
    29b6:	85be                	mv	a1,a5
    29b8:	fd843503          	ld	a0,-40(s0)
    29bc:	aaafe0ef          	jal	ra,c66 <UnityPrintNumberByStyle>
    29c0:	fd043503          	ld	a0,-48(s0)
    29c4:	c45fe0ef          	jal	ra,1608 <UnityAddMsgIfSpecified>
    29c8:	00002797          	auipc	a5,0x2
    29cc:	71878793          	addi	a5,a5,1816 # 50e0 <Unity>
    29d0:	4705                	li	a4,1
    29d2:	e3b8                	sd	a4,64(a5)
    29d4:	4585                	li	a1,1
    29d6:	00002517          	auipc	a0,0x2
    29da:	75a50513          	addi	a0,a0,1882 # 5130 <Unity+0x50>
    29de:	ca3fd0ef          	jal	ra,680 <longjmp@plt>
    29e2:	0001                	nop
    29e4:	70e2                	ld	ra,56(sp)
    29e6:	7442                	ld	s0,48(sp)
    29e8:	6121                	addi	sp,sp,64
    29ea:	8082                	ret

00000000000029ec <UnityAssertNumbersArrayWithin>:
    29ec:	7119                	addi	sp,sp,-128
    29ee:	fc86                	sd	ra,120(sp)
    29f0:	f8a2                	sd	s0,112(sp)
    29f2:	0100                	addi	s0,sp,128
    29f4:	faa43c23          	sd	a0,-72(s0)
    29f8:	fab43823          	sd	a1,-80(s0)
    29fc:	fac43423          	sd	a2,-88(s0)
    2a00:	8636                	mv	a2,a3
    2a02:	f8e43c23          	sd	a4,-104(s0)
    2a06:	f8f43823          	sd	a5,-112(s0)
    2a0a:	86c2                	mv	a3,a6
    2a0c:	8746                	mv	a4,a7
    2a0e:	87b2                	mv	a5,a2
    2a10:	faf42223          	sw	a5,-92(s0)
    2a14:	87b6                	mv	a5,a3
    2a16:	faf42023          	sw	a5,-96(s0)
    2a1a:	87ba                	mv	a5,a4
    2a1c:	f8f42623          	sw	a5,-116(s0)
    2a20:	fa442783          	lw	a5,-92(s0)
    2a24:	fef42623          	sw	a5,-20(s0)
    2a28:	fa042783          	lw	a5,-96(s0)
    2a2c:	8bbd                	andi	a5,a5,15
    2a2e:	fef42423          	sw	a5,-24(s0)
    2a32:	fe042223          	sw	zero,-28(s0)
    2a36:	00002797          	auipc	a5,0x2
    2a3a:	6aa78793          	addi	a5,a5,1706 # 50e0 <Unity>
    2a3e:	63bc                	ld	a5,64(a5)
    2a40:	e799                	bnez	a5,2a4e <UnityAssertNumbersArrayWithin+0x62>
    2a42:	00002797          	auipc	a5,0x2
    2a46:	69e78793          	addi	a5,a5,1694 # 50e0 <Unity>
    2a4a:	67bc                	ld	a5,72(a5)
    2a4c:	cb81                	beqz	a5,2a5c <UnityAssertNumbersArrayWithin+0x70>
    2a4e:	4585                	li	a1,1
    2a50:	00002517          	auipc	a0,0x2
    2a54:	6e050513          	addi	a0,a0,1760 # 5130 <Unity+0x50>
    2a58:	c29fd0ef          	jal	ra,680 <longjmp@plt>
    2a5c:	fa442783          	lw	a5,-92(s0)
    2a60:	2781                	sext.w	a5,a5
    2a62:	ef85                	bnez	a5,2a9a <UnityAssertNumbersArrayWithin+0xae>
    2a64:	f9043503          	ld	a0,-112(s0)
    2a68:	abffe0ef          	jal	ra,1526 <UnityTestResultsFailBegin>
    2a6c:	00001517          	auipc	a0,0x1
    2a70:	11c50513          	addi	a0,a0,284 # 3b88 <UnityStrPointless>
    2a74:	884fe0ef          	jal	ra,af8 <UnityPrint>
    2a78:	f9843503          	ld	a0,-104(s0)
    2a7c:	b8dfe0ef          	jal	ra,1608 <UnityAddMsgIfSpecified>
    2a80:	00002797          	auipc	a5,0x2
    2a84:	66078793          	addi	a5,a5,1632 # 50e0 <Unity>
    2a88:	4705                	li	a4,1
    2a8a:	e3b8                	sd	a4,64(a5)
    2a8c:	4585                	li	a1,1
    2a8e:	00002517          	auipc	a0,0x2
    2a92:	6a250513          	addi	a0,a0,1698 # 5130 <Unity+0x50>
    2a96:	bebfd0ef          	jal	ra,680 <longjmp@plt>
    2a9a:	fb043703          	ld	a4,-80(s0)
    2a9e:	fa843783          	ld	a5,-88(s0)
    2aa2:	38f70d63          	beq	a4,a5,2e3c <UnityAssertNumbersArrayWithin+0x450>
    2aa6:	f9843683          	ld	a3,-104(s0)
    2aaa:	f9043603          	ld	a2,-112(s0)
    2aae:	fa843583          	ld	a1,-88(s0)
    2ab2:	fb043503          	ld	a0,-80(s0)
    2ab6:	d05fe0ef          	jal	ra,17ba <UnityIsOneArrayNull>
    2aba:	87aa                	mv	a5,a0
    2abc:	36078363          	beqz	a5,2e22 <UnityAssertNumbersArrayWithin+0x436>
    2ac0:	00002797          	auipc	a5,0x2
    2ac4:	62078793          	addi	a5,a5,1568 # 50e0 <Unity>
    2ac8:	4705                	li	a4,1
    2aca:	e3b8                	sd	a4,64(a5)
    2acc:	4585                	li	a1,1
    2ace:	00002517          	auipc	a0,0x2
    2ad2:	66250513          	addi	a0,a0,1634 # 5130 <Unity+0x50>
    2ad6:	babfd0ef          	jal	ra,680 <longjmp@plt>
    2ada:	fe842783          	lw	a5,-24(s0)
    2ade:	0007871b          	sext.w	a4,a5
    2ae2:	47a1                	li	a5,8
    2ae4:	0cf70263          	beq	a4,a5,2ba8 <UnityAssertNumbersArrayWithin+0x1bc>
    2ae8:	fe842783          	lw	a5,-24(s0)
    2aec:	0007871b          	sext.w	a4,a5
    2af0:	47a1                	li	a5,8
    2af2:	0ee7ec63          	bltu	a5,a4,2bea <UnityAssertNumbersArrayWithin+0x1fe>
    2af6:	fe842783          	lw	a5,-24(s0)
    2afa:	0007871b          	sext.w	a4,a5
    2afe:	4785                	li	a5,1
    2b00:	00f70a63          	beq	a4,a5,2b14 <UnityAssertNumbersArrayWithin+0x128>
    2b04:	fe842783          	lw	a5,-24(s0)
    2b08:	0007871b          	sext.w	a4,a5
    2b0c:	4789                	li	a5,2
    2b0e:	04f70863          	beq	a4,a5,2b5e <UnityAssertNumbersArrayWithin+0x172>
    2b12:	a8e1                	j	2bea <UnityAssertNumbersArrayWithin+0x1fe>
    2b14:	fa042783          	lw	a5,-96(s0)
    2b18:	8bc1                	andi	a5,a5,16
    2b1a:	2781                	sext.w	a5,a5
    2b1c:	c38d                	beqz	a5,2b3e <UnityAssertNumbersArrayWithin+0x152>
    2b1e:	fb043783          	ld	a5,-80(s0)
    2b22:	00078783          	lb	a5,0(a5)
    2b26:	fcf43c23          	sd	a5,-40(s0)
    2b2a:	fa843783          	ld	a5,-88(s0)
    2b2e:	00078783          	lb	a5,0(a5)
    2b32:	fcf43823          	sd	a5,-48(s0)
    2b36:	4785                	li	a5,1
    2b38:	fef42223          	sw	a5,-28(s0)
    2b3c:	a8fd                	j	2c3a <UnityAssertNumbersArrayWithin+0x24e>
    2b3e:	fb043783          	ld	a5,-80(s0)
    2b42:	0007c783          	lbu	a5,0(a5)
    2b46:	fcf43c23          	sd	a5,-40(s0)
    2b4a:	fa843783          	ld	a5,-88(s0)
    2b4e:	0007c783          	lbu	a5,0(a5)
    2b52:	fcf43823          	sd	a5,-48(s0)
    2b56:	4785                	li	a5,1
    2b58:	fef42223          	sw	a5,-28(s0)
    2b5c:	a8f9                	j	2c3a <UnityAssertNumbersArrayWithin+0x24e>
    2b5e:	fa042783          	lw	a5,-96(s0)
    2b62:	8bc1                	andi	a5,a5,16
    2b64:	2781                	sext.w	a5,a5
    2b66:	c38d                	beqz	a5,2b88 <UnityAssertNumbersArrayWithin+0x19c>
    2b68:	fb043783          	ld	a5,-80(s0)
    2b6c:	00079783          	lh	a5,0(a5)
    2b70:	fcf43c23          	sd	a5,-40(s0)
    2b74:	fa843783          	ld	a5,-88(s0)
    2b78:	00079783          	lh	a5,0(a5)
    2b7c:	fcf43823          	sd	a5,-48(s0)
    2b80:	4789                	li	a5,2
    2b82:	fef42223          	sw	a5,-28(s0)
    2b86:	a855                	j	2c3a <UnityAssertNumbersArrayWithin+0x24e>
    2b88:	fb043783          	ld	a5,-80(s0)
    2b8c:	0007d783          	lhu	a5,0(a5)
    2b90:	fcf43c23          	sd	a5,-40(s0)
    2b94:	fa843783          	ld	a5,-88(s0)
    2b98:	0007d783          	lhu	a5,0(a5)
    2b9c:	fcf43823          	sd	a5,-48(s0)
    2ba0:	4789                	li	a5,2
    2ba2:	fef42223          	sw	a5,-28(s0)
    2ba6:	a851                	j	2c3a <UnityAssertNumbersArrayWithin+0x24e>
    2ba8:	fa042783          	lw	a5,-96(s0)
    2bac:	8bc1                	andi	a5,a5,16
    2bae:	2781                	sext.w	a5,a5
    2bb0:	cf99                	beqz	a5,2bce <UnityAssertNumbersArrayWithin+0x1e2>
    2bb2:	fb043783          	ld	a5,-80(s0)
    2bb6:	639c                	ld	a5,0(a5)
    2bb8:	fcf43c23          	sd	a5,-40(s0)
    2bbc:	fa843783          	ld	a5,-88(s0)
    2bc0:	639c                	ld	a5,0(a5)
    2bc2:	fcf43823          	sd	a5,-48(s0)
    2bc6:	47a1                	li	a5,8
    2bc8:	fef42223          	sw	a5,-28(s0)
    2bcc:	a0bd                	j	2c3a <UnityAssertNumbersArrayWithin+0x24e>
    2bce:	fb043783          	ld	a5,-80(s0)
    2bd2:	639c                	ld	a5,0(a5)
    2bd4:	fcf43c23          	sd	a5,-40(s0)
    2bd8:	fa843783          	ld	a5,-88(s0)
    2bdc:	639c                	ld	a5,0(a5)
    2bde:	fcf43823          	sd	a5,-48(s0)
    2be2:	47a1                	li	a5,8
    2be4:	fef42223          	sw	a5,-28(s0)
    2be8:	a889                	j	2c3a <UnityAssertNumbersArrayWithin+0x24e>
    2bea:	fa042783          	lw	a5,-96(s0)
    2bee:	8bc1                	andi	a5,a5,16
    2bf0:	2781                	sext.w	a5,a5
    2bf2:	cf99                	beqz	a5,2c10 <UnityAssertNumbersArrayWithin+0x224>
    2bf4:	fb043783          	ld	a5,-80(s0)
    2bf8:	439c                	lw	a5,0(a5)
    2bfa:	fcf43c23          	sd	a5,-40(s0)
    2bfe:	fa843783          	ld	a5,-88(s0)
    2c02:	439c                	lw	a5,0(a5)
    2c04:	fcf43823          	sd	a5,-48(s0)
    2c08:	4791                	li	a5,4
    2c0a:	fef42223          	sw	a5,-28(s0)
    2c0e:	a015                	j	2c32 <UnityAssertNumbersArrayWithin+0x246>
    2c10:	fb043783          	ld	a5,-80(s0)
    2c14:	439c                	lw	a5,0(a5)
    2c16:	1782                	slli	a5,a5,0x20
    2c18:	9381                	srli	a5,a5,0x20
    2c1a:	fcf43c23          	sd	a5,-40(s0)
    2c1e:	fa843783          	ld	a5,-88(s0)
    2c22:	439c                	lw	a5,0(a5)
    2c24:	1782                	slli	a5,a5,0x20
    2c26:	9381                	srli	a5,a5,0x20
    2c28:	fcf43823          	sd	a5,-48(s0)
    2c2c:	4791                	li	a5,4
    2c2e:	fef42223          	sw	a5,-28(s0)
    2c32:	4791                	li	a5,4
    2c34:	fef42423          	sw	a5,-24(s0)
    2c38:	0001                	nop
    2c3a:	fa042783          	lw	a5,-96(s0)
    2c3e:	8bc1                	andi	a5,a5,16
    2c40:	2781                	sext.w	a5,a5
    2c42:	cfa9                	beqz	a5,2c9c <UnityAssertNumbersArrayWithin+0x2b0>
    2c44:	fd043703          	ld	a4,-48(s0)
    2c48:	fd843783          	ld	a5,-40(s0)
    2c4c:	02e7d563          	bge	a5,a4,2c76 <UnityAssertNumbersArrayWithin+0x28a>
    2c50:	fd043703          	ld	a4,-48(s0)
    2c54:	fd843783          	ld	a5,-40(s0)
    2c58:	40f707b3          	sub	a5,a4,a5
    2c5c:	fb843703          	ld	a4,-72(s0)
    2c60:	00f737b3          	sltu	a5,a4,a5
    2c64:	0ff7f793          	zext.b	a5,a5
    2c68:	873e                	mv	a4,a5
    2c6a:	00002797          	auipc	a5,0x2
    2c6e:	47678793          	addi	a5,a5,1142 # 50e0 <Unity>
    2c72:	e3b8                	sd	a4,64(a5)
    2c74:	a8bd                	j	2cf2 <UnityAssertNumbersArrayWithin+0x306>
    2c76:	fd843703          	ld	a4,-40(s0)
    2c7a:	fd043783          	ld	a5,-48(s0)
    2c7e:	40f707b3          	sub	a5,a4,a5
    2c82:	fb843703          	ld	a4,-72(s0)
    2c86:	00f737b3          	sltu	a5,a4,a5
    2c8a:	0ff7f793          	zext.b	a5,a5
    2c8e:	873e                	mv	a4,a5
    2c90:	00002797          	auipc	a5,0x2
    2c94:	45078793          	addi	a5,a5,1104 # 50e0 <Unity>
    2c98:	e3b8                	sd	a4,64(a5)
    2c9a:	a8a1                	j	2cf2 <UnityAssertNumbersArrayWithin+0x306>
    2c9c:	fd043703          	ld	a4,-48(s0)
    2ca0:	fd843783          	ld	a5,-40(s0)
    2ca4:	02e7f563          	bgeu	a5,a4,2cce <UnityAssertNumbersArrayWithin+0x2e2>
    2ca8:	fd043703          	ld	a4,-48(s0)
    2cac:	fd843783          	ld	a5,-40(s0)
    2cb0:	40f707b3          	sub	a5,a4,a5
    2cb4:	fb843703          	ld	a4,-72(s0)
    2cb8:	00f737b3          	sltu	a5,a4,a5
    2cbc:	0ff7f793          	zext.b	a5,a5
    2cc0:	873e                	mv	a4,a5
    2cc2:	00002797          	auipc	a5,0x2
    2cc6:	41e78793          	addi	a5,a5,1054 # 50e0 <Unity>
    2cca:	e3b8                	sd	a4,64(a5)
    2ccc:	a01d                	j	2cf2 <UnityAssertNumbersArrayWithin+0x306>
    2cce:	fd843703          	ld	a4,-40(s0)
    2cd2:	fd043783          	ld	a5,-48(s0)
    2cd6:	40f707b3          	sub	a5,a4,a5
    2cda:	fb843703          	ld	a4,-72(s0)
    2cde:	00f737b3          	sltu	a5,a4,a5
    2ce2:	0ff7f793          	zext.b	a5,a5
    2ce6:	873e                	mv	a4,a5
    2ce8:	00002797          	auipc	a5,0x2
    2cec:	3f878793          	addi	a5,a5,1016 # 50e0 <Unity>
    2cf0:	e3b8                	sd	a4,64(a5)
    2cf2:	00002797          	auipc	a5,0x2
    2cf6:	3ee78793          	addi	a5,a5,1006 # 50e0 <Unity>
    2cfa:	63bc                	ld	a5,64(a5)
    2cfc:	0e078e63          	beqz	a5,2df8 <UnityAssertNumbersArrayWithin+0x40c>
    2d00:	fa042783          	lw	a5,-96(s0)
    2d04:	0207f793          	andi	a5,a5,32
    2d08:	2781                	sext.w	a5,a5
    2d0a:	c7a9                	beqz	a5,2d54 <UnityAssertNumbersArrayWithin+0x368>
    2d0c:	fe842783          	lw	a5,-24(s0)
    2d10:	0007871b          	sext.w	a4,a5
    2d14:	478d                	li	a5,3
    2d16:	02e7ef63          	bltu	a5,a4,2d54 <UnityAssertNumbersArrayWithin+0x368>
    2d1a:	4785                	li	a5,1
    2d1c:	fcf43423          	sd	a5,-56(s0)
    2d20:	fe842783          	lw	a5,-24(s0)
    2d24:	0037979b          	slliw	a5,a5,0x3
    2d28:	2781                	sext.w	a5,a5
    2d2a:	fc843703          	ld	a4,-56(s0)
    2d2e:	00f717b3          	sll	a5,a4,a5
    2d32:	17fd                	addi	a5,a5,-1
    2d34:	fcf43423          	sd	a5,-56(s0)
    2d38:	fd843703          	ld	a4,-40(s0)
    2d3c:	fc843783          	ld	a5,-56(s0)
    2d40:	8ff9                	and	a5,a5,a4
    2d42:	fcf43c23          	sd	a5,-40(s0)
    2d46:	fd043703          	ld	a4,-48(s0)
    2d4a:	fc843783          	ld	a5,-56(s0)
    2d4e:	8ff9                	and	a5,a5,a4
    2d50:	fcf43823          	sd	a5,-48(s0)
    2d54:	f9043503          	ld	a0,-112(s0)
    2d58:	fcefe0ef          	jal	ra,1526 <UnityTestResultsFailBegin>
    2d5c:	00001517          	auipc	a0,0x1
    2d60:	e0c50513          	addi	a0,a0,-500 # 3b68 <UnityStrDelta>
    2d64:	d95fd0ef          	jal	ra,af8 <UnityPrint>
    2d68:	fb843783          	ld	a5,-72(s0)
    2d6c:	fa042703          	lw	a4,-96(s0)
    2d70:	85ba                	mv	a1,a4
    2d72:	853e                	mv	a0,a5
    2d74:	ef3fd0ef          	jal	ra,c66 <UnityPrintNumberByStyle>
    2d78:	00001517          	auipc	a0,0x1
    2d7c:	dc050513          	addi	a0,a0,-576 # 3b38 <UnityStrElement>
    2d80:	d79fd0ef          	jal	ra,af8 <UnityPrint>
    2d84:	fa442783          	lw	a5,-92(s0)
    2d88:	873e                	mv	a4,a5
    2d8a:	fec42783          	lw	a5,-20(s0)
    2d8e:	40f707bb          	subw	a5,a4,a5
    2d92:	2781                	sext.w	a5,a5
    2d94:	37fd                	addiw	a5,a5,-1
    2d96:	2781                	sext.w	a5,a5
    2d98:	1782                	slli	a5,a5,0x20
    2d9a:	9381                	srli	a5,a5,0x20
    2d9c:	853e                	mv	a0,a5
    2d9e:	81efe0ef          	jal	ra,dbc <UnityPrintNumberUnsigned>
    2da2:	00001517          	auipc	a0,0x1
    2da6:	d2650513          	addi	a0,a0,-730 # 3ac8 <UnityStrExpected>
    2daa:	d4ffd0ef          	jal	ra,af8 <UnityPrint>
    2dae:	fa042783          	lw	a5,-96(s0)
    2db2:	85be                	mv	a1,a5
    2db4:	fd843503          	ld	a0,-40(s0)
    2db8:	eaffd0ef          	jal	ra,c66 <UnityPrintNumberByStyle>
    2dbc:	00001517          	auipc	a0,0x1
    2dc0:	d1c50513          	addi	a0,a0,-740 # 3ad8 <UnityStrWas>
    2dc4:	d35fd0ef          	jal	ra,af8 <UnityPrint>
    2dc8:	fa042783          	lw	a5,-96(s0)
    2dcc:	85be                	mv	a1,a5
    2dce:	fd043503          	ld	a0,-48(s0)
    2dd2:	e95fd0ef          	jal	ra,c66 <UnityPrintNumberByStyle>
    2dd6:	f9843503          	ld	a0,-104(s0)
    2dda:	82ffe0ef          	jal	ra,1608 <UnityAddMsgIfSpecified>
    2dde:	00002797          	auipc	a5,0x2
    2de2:	30278793          	addi	a5,a5,770 # 50e0 <Unity>
    2de6:	4705                	li	a4,1
    2de8:	e3b8                	sd	a4,64(a5)
    2dea:	4585                	li	a1,1
    2dec:	00002517          	auipc	a0,0x2
    2df0:	34450513          	addi	a0,a0,836 # 5130 <Unity+0x50>
    2df4:	88dfd0ef          	jal	ra,680 <longjmp@plt>
    2df8:	f8c42783          	lw	a5,-116(s0)
    2dfc:	0007871b          	sext.w	a4,a5
    2e00:	4785                	li	a5,1
    2e02:	00f71963          	bne	a4,a5,2e14 <UnityAssertNumbersArrayWithin+0x428>
    2e06:	fe446783          	lwu	a5,-28(s0)
    2e0a:	fb043703          	ld	a4,-80(s0)
    2e0e:	97ba                	add	a5,a5,a4
    2e10:	faf43823          	sd	a5,-80(s0)
    2e14:	fe446783          	lwu	a5,-28(s0)
    2e18:	fa843703          	ld	a4,-88(s0)
    2e1c:	97ba                	add	a5,a5,a4
    2e1e:	faf43423          	sd	a5,-88(s0)
    2e22:	fec42783          	lw	a5,-20(s0)
    2e26:	2781                	sext.w	a5,a5
    2e28:	cb99                	beqz	a5,2e3e <UnityAssertNumbersArrayWithin+0x452>
    2e2a:	fec42783          	lw	a5,-20(s0)
    2e2e:	fff7871b          	addiw	a4,a5,-1
    2e32:	fee42623          	sw	a4,-20(s0)
    2e36:	ca0792e3          	bnez	a5,2ada <UnityAssertNumbersArrayWithin+0xee>
    2e3a:	a011                	j	2e3e <UnityAssertNumbersArrayWithin+0x452>
    2e3c:	0001                	nop
    2e3e:	70e6                	ld	ra,120(sp)
    2e40:	7446                	ld	s0,112(sp)
    2e42:	6109                	addi	sp,sp,128
    2e44:	8082                	ret

0000000000002e46 <UnityAssertEqualString>:
    2e46:	7139                	addi	sp,sp,-64
    2e48:	fc06                	sd	ra,56(sp)
    2e4a:	f822                	sd	s0,48(sp)
    2e4c:	0080                	addi	s0,sp,64
    2e4e:	fca43c23          	sd	a0,-40(s0)
    2e52:	fcb43823          	sd	a1,-48(s0)
    2e56:	fcc43423          	sd	a2,-56(s0)
    2e5a:	fcd43023          	sd	a3,-64(s0)
    2e5e:	00002797          	auipc	a5,0x2
    2e62:	28278793          	addi	a5,a5,642 # 50e0 <Unity>
    2e66:	63bc                	ld	a5,64(a5)
    2e68:	e799                	bnez	a5,2e76 <UnityAssertEqualString+0x30>
    2e6a:	00002797          	auipc	a5,0x2
    2e6e:	27678793          	addi	a5,a5,630 # 50e0 <Unity>
    2e72:	67bc                	ld	a5,72(a5)
    2e74:	cb81                	beqz	a5,2e84 <UnityAssertEqualString+0x3e>
    2e76:	4585                	li	a1,1
    2e78:	00002517          	auipc	a0,0x2
    2e7c:	2b850513          	addi	a0,a0,696 # 5130 <Unity+0x50>
    2e80:	801fd0ef          	jal	ra,680 <longjmp@plt>
    2e84:	fd843783          	ld	a5,-40(s0)
    2e88:	c7b5                	beqz	a5,2ef4 <UnityAssertEqualString+0xae>
    2e8a:	fd043783          	ld	a5,-48(s0)
    2e8e:	c3bd                	beqz	a5,2ef4 <UnityAssertEqualString+0xae>
    2e90:	fe042623          	sw	zero,-20(s0)
    2e94:	a83d                	j	2ed2 <UnityAssertEqualString+0x8c>
    2e96:	fec46783          	lwu	a5,-20(s0)
    2e9a:	fd843703          	ld	a4,-40(s0)
    2e9e:	97ba                	add	a5,a5,a4
    2ea0:	0007c683          	lbu	a3,0(a5)
    2ea4:	fec46783          	lwu	a5,-20(s0)
    2ea8:	fd043703          	ld	a4,-48(s0)
    2eac:	97ba                	add	a5,a5,a4
    2eae:	0007c783          	lbu	a5,0(a5)
    2eb2:	8736                	mv	a4,a3
    2eb4:	00f70a63          	beq	a4,a5,2ec8 <UnityAssertEqualString+0x82>
    2eb8:	00002797          	auipc	a5,0x2
    2ebc:	22878793          	addi	a5,a5,552 # 50e0 <Unity>
    2ec0:	4705                	li	a4,1
    2ec2:	e3b8                	sd	a4,64(a5)
    2ec4:	0001                	nop
    2ec6:	a099                	j	2f0c <UnityAssertEqualString+0xc6>
    2ec8:	fec42783          	lw	a5,-20(s0)
    2ecc:	2785                	addiw	a5,a5,1
    2ece:	fef42623          	sw	a5,-20(s0)
    2ed2:	fec46783          	lwu	a5,-20(s0)
    2ed6:	fd843703          	ld	a4,-40(s0)
    2eda:	97ba                	add	a5,a5,a4
    2edc:	0007c783          	lbu	a5,0(a5)
    2ee0:	fbdd                	bnez	a5,2e96 <UnityAssertEqualString+0x50>
    2ee2:	fec46783          	lwu	a5,-20(s0)
    2ee6:	fd043703          	ld	a4,-48(s0)
    2eea:	97ba                	add	a5,a5,a4
    2eec:	0007c783          	lbu	a5,0(a5)
    2ef0:	f3dd                	bnez	a5,2e96 <UnityAssertEqualString+0x50>
    2ef2:	a829                	j	2f0c <UnityAssertEqualString+0xc6>
    2ef4:	fd843783          	ld	a5,-40(s0)
    2ef8:	e781                	bnez	a5,2f00 <UnityAssertEqualString+0xba>
    2efa:	fd043783          	ld	a5,-48(s0)
    2efe:	c799                	beqz	a5,2f0c <UnityAssertEqualString+0xc6>
    2f00:	00002797          	auipc	a5,0x2
    2f04:	1e078793          	addi	a5,a5,480 # 50e0 <Unity>
    2f08:	4705                	li	a4,1
    2f0a:	e3b8                	sd	a4,64(a5)
    2f0c:	00002797          	auipc	a5,0x2
    2f10:	1d478793          	addi	a5,a5,468 # 50e0 <Unity>
    2f14:	63bc                	ld	a5,64(a5)
    2f16:	cf85                	beqz	a5,2f4e <UnityAssertEqualString+0x108>
    2f18:	fc043503          	ld	a0,-64(s0)
    2f1c:	e0afe0ef          	jal	ra,1526 <UnityTestResultsFailBegin>
    2f20:	fd043583          	ld	a1,-48(s0)
    2f24:	fd843503          	ld	a0,-40(s0)
    2f28:	f6cfe0ef          	jal	ra,1694 <UnityPrintExpectedAndActualStrings>
    2f2c:	fc843503          	ld	a0,-56(s0)
    2f30:	ed8fe0ef          	jal	ra,1608 <UnityAddMsgIfSpecified>
    2f34:	00002797          	auipc	a5,0x2
    2f38:	1ac78793          	addi	a5,a5,428 # 50e0 <Unity>
    2f3c:	4705                	li	a4,1
    2f3e:	e3b8                	sd	a4,64(a5)
    2f40:	4585                	li	a1,1
    2f42:	00002517          	auipc	a0,0x2
    2f46:	1ee50513          	addi	a0,a0,494 # 5130 <Unity+0x50>
    2f4a:	f36fd0ef          	jal	ra,680 <longjmp@plt>
    2f4e:	0001                	nop
    2f50:	70e2                	ld	ra,56(sp)
    2f52:	7442                	ld	s0,48(sp)
    2f54:	6121                	addi	sp,sp,64
    2f56:	8082                	ret

0000000000002f58 <UnityAssertEqualStringLen>:
    2f58:	715d                	addi	sp,sp,-80
    2f5a:	e486                	sd	ra,72(sp)
    2f5c:	e0a2                	sd	s0,64(sp)
    2f5e:	0880                	addi	s0,sp,80
    2f60:	fca43c23          	sd	a0,-40(s0)
    2f64:	fcb43823          	sd	a1,-48(s0)
    2f68:	87b2                	mv	a5,a2
    2f6a:	fcd43023          	sd	a3,-64(s0)
    2f6e:	fae43c23          	sd	a4,-72(s0)
    2f72:	fcf42623          	sw	a5,-52(s0)
    2f76:	00002797          	auipc	a5,0x2
    2f7a:	16a78793          	addi	a5,a5,362 # 50e0 <Unity>
    2f7e:	63bc                	ld	a5,64(a5)
    2f80:	e799                	bnez	a5,2f8e <UnityAssertEqualStringLen+0x36>
    2f82:	00002797          	auipc	a5,0x2
    2f86:	15e78793          	addi	a5,a5,350 # 50e0 <Unity>
    2f8a:	67bc                	ld	a5,72(a5)
    2f8c:	cb81                	beqz	a5,2f9c <UnityAssertEqualStringLen+0x44>
    2f8e:	4585                	li	a1,1
    2f90:	00002517          	auipc	a0,0x2
    2f94:	1a050513          	addi	a0,a0,416 # 5130 <Unity+0x50>
    2f98:	ee8fd0ef          	jal	ra,680 <longjmp@plt>
    2f9c:	fd843783          	ld	a5,-40(s0)
    2fa0:	cfbd                	beqz	a5,301e <UnityAssertEqualStringLen+0xc6>
    2fa2:	fd043783          	ld	a5,-48(s0)
    2fa6:	cfa5                	beqz	a5,301e <UnityAssertEqualStringLen+0xc6>
    2fa8:	fe042623          	sw	zero,-20(s0)
    2fac:	a83d                	j	2fea <UnityAssertEqualStringLen+0x92>
    2fae:	fec46783          	lwu	a5,-20(s0)
    2fb2:	fd843703          	ld	a4,-40(s0)
    2fb6:	97ba                	add	a5,a5,a4
    2fb8:	0007c683          	lbu	a3,0(a5)
    2fbc:	fec46783          	lwu	a5,-20(s0)
    2fc0:	fd043703          	ld	a4,-48(s0)
    2fc4:	97ba                	add	a5,a5,a4
    2fc6:	0007c783          	lbu	a5,0(a5)
    2fca:	8736                	mv	a4,a3
    2fcc:	00f70a63          	beq	a4,a5,2fe0 <UnityAssertEqualStringLen+0x88>
    2fd0:	00002797          	auipc	a5,0x2
    2fd4:	11078793          	addi	a5,a5,272 # 50e0 <Unity>
    2fd8:	4705                	li	a4,1
    2fda:	e3b8                	sd	a4,64(a5)
    2fdc:	0001                	nop
    2fde:	a8a9                	j	3038 <UnityAssertEqualStringLen+0xe0>
    2fe0:	fec42783          	lw	a5,-20(s0)
    2fe4:	2785                	addiw	a5,a5,1
    2fe6:	fef42623          	sw	a5,-20(s0)
    2fea:	fec42783          	lw	a5,-20(s0)
    2fee:	873e                	mv	a4,a5
    2ff0:	fcc42783          	lw	a5,-52(s0)
    2ff4:	2701                	sext.w	a4,a4
    2ff6:	2781                	sext.w	a5,a5
    2ff8:	04f77063          	bgeu	a4,a5,3038 <UnityAssertEqualStringLen+0xe0>
    2ffc:	fec46783          	lwu	a5,-20(s0)
    3000:	fd843703          	ld	a4,-40(s0)
    3004:	97ba                	add	a5,a5,a4
    3006:	0007c783          	lbu	a5,0(a5)
    300a:	f3d5                	bnez	a5,2fae <UnityAssertEqualStringLen+0x56>
    300c:	fec46783          	lwu	a5,-20(s0)
    3010:	fd043703          	ld	a4,-48(s0)
    3014:	97ba                	add	a5,a5,a4
    3016:	0007c783          	lbu	a5,0(a5)
    301a:	fbd1                	bnez	a5,2fae <UnityAssertEqualStringLen+0x56>
    301c:	a831                	j	3038 <UnityAssertEqualStringLen+0xe0>
    301e:	fd843783          	ld	a5,-40(s0)
    3022:	e781                	bnez	a5,302a <UnityAssertEqualStringLen+0xd2>
    3024:	fd043783          	ld	a5,-48(s0)
    3028:	cb89                	beqz	a5,303a <UnityAssertEqualStringLen+0xe2>
    302a:	00002797          	auipc	a5,0x2
    302e:	0b678793          	addi	a5,a5,182 # 50e0 <Unity>
    3032:	4705                	li	a4,1
    3034:	e3b8                	sd	a4,64(a5)
    3036:	a011                	j	303a <UnityAssertEqualStringLen+0xe2>
    3038:	0001                	nop
    303a:	00002797          	auipc	a5,0x2
    303e:	0a678793          	addi	a5,a5,166 # 50e0 <Unity>
    3042:	63bc                	ld	a5,64(a5)
    3044:	cf9d                	beqz	a5,3082 <UnityAssertEqualStringLen+0x12a>
    3046:	fb843503          	ld	a0,-72(s0)
    304a:	cdcfe0ef          	jal	ra,1526 <UnityTestResultsFailBegin>
    304e:	fcc42783          	lw	a5,-52(s0)
    3052:	863e                	mv	a2,a5
    3054:	fd043583          	ld	a1,-48(s0)
    3058:	fd843503          	ld	a0,-40(s0)
    305c:	ec2fe0ef          	jal	ra,171e <UnityPrintExpectedAndActualStringsLen>
    3060:	fc043503          	ld	a0,-64(s0)
    3064:	da4fe0ef          	jal	ra,1608 <UnityAddMsgIfSpecified>
    3068:	00002797          	auipc	a5,0x2
    306c:	07878793          	addi	a5,a5,120 # 50e0 <Unity>
    3070:	4705                	li	a4,1
    3072:	e3b8                	sd	a4,64(a5)
    3074:	4585                	li	a1,1
    3076:	00002517          	auipc	a0,0x2
    307a:	0ba50513          	addi	a0,a0,186 # 5130 <Unity+0x50>
    307e:	e02fd0ef          	jal	ra,680 <longjmp@plt>
    3082:	0001                	nop
    3084:	60a6                	ld	ra,72(sp)
    3086:	6406                	ld	s0,64(sp)
    3088:	6161                	addi	sp,sp,80
    308a:	8082                	ret

000000000000308c <UnityAssertEqualStringArray>:
    308c:	711d                	addi	sp,sp,-96
    308e:	ec86                	sd	ra,88(sp)
    3090:	e8a2                	sd	s0,80(sp)
    3092:	1080                	addi	s0,sp,96
    3094:	fca43423          	sd	a0,-56(s0)
    3098:	fcb43023          	sd	a1,-64(s0)
    309c:	fad43823          	sd	a3,-80(s0)
    30a0:	fae43423          	sd	a4,-88(s0)
    30a4:	873e                	mv	a4,a5
    30a6:	87b2                	mv	a5,a2
    30a8:	faf42e23          	sw	a5,-68(s0)
    30ac:	87ba                	mv	a5,a4
    30ae:	faf42c23          	sw	a5,-72(s0)
    30b2:	fe042623          	sw	zero,-20(s0)
    30b6:	fe042423          	sw	zero,-24(s0)
    30ba:	fe043023          	sd	zero,-32(s0)
    30be:	fc043c23          	sd	zero,-40(s0)
    30c2:	00002797          	auipc	a5,0x2
    30c6:	01e78793          	addi	a5,a5,30 # 50e0 <Unity>
    30ca:	63bc                	ld	a5,64(a5)
    30cc:	e799                	bnez	a5,30da <UnityAssertEqualStringArray+0x4e>
    30ce:	00002797          	auipc	a5,0x2
    30d2:	01278793          	addi	a5,a5,18 # 50e0 <Unity>
    30d6:	67bc                	ld	a5,72(a5)
    30d8:	cb81                	beqz	a5,30e8 <UnityAssertEqualStringArray+0x5c>
    30da:	4585                	li	a1,1
    30dc:	00002517          	auipc	a0,0x2
    30e0:	05450513          	addi	a0,a0,84 # 5130 <Unity+0x50>
    30e4:	d9cfd0ef          	jal	ra,680 <longjmp@plt>
    30e8:	fbc42783          	lw	a5,-68(s0)
    30ec:	2781                	sext.w	a5,a5
    30ee:	ef85                	bnez	a5,3126 <UnityAssertEqualStringArray+0x9a>
    30f0:	fa843503          	ld	a0,-88(s0)
    30f4:	c32fe0ef          	jal	ra,1526 <UnityTestResultsFailBegin>
    30f8:	00001517          	auipc	a0,0x1
    30fc:	a9050513          	addi	a0,a0,-1392 # 3b88 <UnityStrPointless>
    3100:	9f9fd0ef          	jal	ra,af8 <UnityPrint>
    3104:	fb043503          	ld	a0,-80(s0)
    3108:	d00fe0ef          	jal	ra,1608 <UnityAddMsgIfSpecified>
    310c:	00002797          	auipc	a5,0x2
    3110:	fd478793          	addi	a5,a5,-44 # 50e0 <Unity>
    3114:	4705                	li	a4,1
    3116:	e3b8                	sd	a4,64(a5)
    3118:	4585                	li	a1,1
    311a:	00002517          	auipc	a0,0x2
    311e:	01650513          	addi	a0,a0,22 # 5130 <Unity+0x50>
    3122:	d5efd0ef          	jal	ra,680 <longjmp@plt>
    3126:	fc843703          	ld	a4,-56(s0)
    312a:	fc043783          	ld	a5,-64(s0)
    312e:	18f70563          	beq	a4,a5,32b8 <UnityAssertEqualStringArray+0x22c>
    3132:	fb043683          	ld	a3,-80(s0)
    3136:	fa843603          	ld	a2,-88(s0)
    313a:	fc043583          	ld	a1,-64(s0)
    313e:	fc843503          	ld	a0,-56(s0)
    3142:	e78fe0ef          	jal	ra,17ba <UnityIsOneArrayNull>
    3146:	87aa                	mv	a5,a0
    3148:	cf91                	beqz	a5,3164 <UnityAssertEqualStringArray+0xd8>
    314a:	00002797          	auipc	a5,0x2
    314e:	f9678793          	addi	a5,a5,-106 # 50e0 <Unity>
    3152:	4705                	li	a4,1
    3154:	e3b8                	sd	a4,64(a5)
    3156:	4585                	li	a1,1
    3158:	00002517          	auipc	a0,0x2
    315c:	fd850513          	addi	a0,a0,-40 # 5130 <Unity+0x50>
    3160:	d20fd0ef          	jal	ra,680 <longjmp@plt>
    3164:	fb842783          	lw	a5,-72(s0)
    3168:	0007871b          	sext.w	a4,a5
    316c:	4785                	li	a5,1
    316e:	00f70663          	beq	a4,a5,317a <UnityAssertEqualStringArray+0xee>
    3172:	fc843783          	ld	a5,-56(s0)
    3176:	fef43023          	sd	a5,-32(s0)
    317a:	fe846783          	lwu	a5,-24(s0)
    317e:	078e                	slli	a5,a5,0x3
    3180:	fc043703          	ld	a4,-64(s0)
    3184:	97ba                	add	a5,a5,a4
    3186:	639c                	ld	a5,0(a5)
    3188:	fcf43c23          	sd	a5,-40(s0)
    318c:	fb842783          	lw	a5,-72(s0)
    3190:	0007871b          	sext.w	a4,a5
    3194:	4785                	li	a5,1
    3196:	00f71b63          	bne	a4,a5,31ac <UnityAssertEqualStringArray+0x120>
    319a:	fe846783          	lwu	a5,-24(s0)
    319e:	078e                	slli	a5,a5,0x3
    31a0:	fc843703          	ld	a4,-56(s0)
    31a4:	97ba                	add	a5,a5,a4
    31a6:	639c                	ld	a5,0(a5)
    31a8:	fef43023          	sd	a5,-32(s0)
    31ac:	fe043783          	ld	a5,-32(s0)
    31b0:	c7b5                	beqz	a5,321c <UnityAssertEqualStringArray+0x190>
    31b2:	fd843783          	ld	a5,-40(s0)
    31b6:	c3bd                	beqz	a5,321c <UnityAssertEqualStringArray+0x190>
    31b8:	fe042623          	sw	zero,-20(s0)
    31bc:	a83d                	j	31fa <UnityAssertEqualStringArray+0x16e>
    31be:	fec46783          	lwu	a5,-20(s0)
    31c2:	fe043703          	ld	a4,-32(s0)
    31c6:	97ba                	add	a5,a5,a4
    31c8:	0007c683          	lbu	a3,0(a5)
    31cc:	fec46783          	lwu	a5,-20(s0)
    31d0:	fd843703          	ld	a4,-40(s0)
    31d4:	97ba                	add	a5,a5,a4
    31d6:	0007c783          	lbu	a5,0(a5)
    31da:	8736                	mv	a4,a3
    31dc:	00f70a63          	beq	a4,a5,31f0 <UnityAssertEqualStringArray+0x164>
    31e0:	00002797          	auipc	a5,0x2
    31e4:	f0078793          	addi	a5,a5,-256 # 50e0 <Unity>
    31e8:	4705                	li	a4,1
    31ea:	e3b8                	sd	a4,64(a5)
    31ec:	0001                	nop
    31ee:	a099                	j	3234 <UnityAssertEqualStringArray+0x1a8>
    31f0:	fec42783          	lw	a5,-20(s0)
    31f4:	2785                	addiw	a5,a5,1
    31f6:	fef42623          	sw	a5,-20(s0)
    31fa:	fec46783          	lwu	a5,-20(s0)
    31fe:	fe043703          	ld	a4,-32(s0)
    3202:	97ba                	add	a5,a5,a4
    3204:	0007c783          	lbu	a5,0(a5)
    3208:	fbdd                	bnez	a5,31be <UnityAssertEqualStringArray+0x132>
    320a:	fec46783          	lwu	a5,-20(s0)
    320e:	fd843703          	ld	a4,-40(s0)
    3212:	97ba                	add	a5,a5,a4
    3214:	0007c783          	lbu	a5,0(a5)
    3218:	f3dd                	bnez	a5,31be <UnityAssertEqualStringArray+0x132>
    321a:	a829                	j	3234 <UnityAssertEqualStringArray+0x1a8>
    321c:	fe043703          	ld	a4,-32(s0)
    3220:	fd843783          	ld	a5,-40(s0)
    3224:	00f70863          	beq	a4,a5,3234 <UnityAssertEqualStringArray+0x1a8>
    3228:	00002797          	auipc	a5,0x2
    322c:	eb878793          	addi	a5,a5,-328 # 50e0 <Unity>
    3230:	4705                	li	a4,1
    3232:	e3b8                	sd	a4,64(a5)
    3234:	00002797          	auipc	a5,0x2
    3238:	eac78793          	addi	a5,a5,-340 # 50e0 <Unity>
    323c:	63bc                	ld	a5,64(a5)
    323e:	cfb1                	beqz	a5,329a <UnityAssertEqualStringArray+0x20e>
    3240:	fa843503          	ld	a0,-88(s0)
    3244:	ae2fe0ef          	jal	ra,1526 <UnityTestResultsFailBegin>
    3248:	fbc42783          	lw	a5,-68(s0)
    324c:	0007871b          	sext.w	a4,a5
    3250:	4785                	li	a5,1
    3252:	00e7fd63          	bgeu	a5,a4,326c <UnityAssertEqualStringArray+0x1e0>
    3256:	00001517          	auipc	a0,0x1
    325a:	8e250513          	addi	a0,a0,-1822 # 3b38 <UnityStrElement>
    325e:	89bfd0ef          	jal	ra,af8 <UnityPrint>
    3262:	fe846783          	lwu	a5,-24(s0)
    3266:	853e                	mv	a0,a5
    3268:	b55fd0ef          	jal	ra,dbc <UnityPrintNumberUnsigned>
    326c:	fd843583          	ld	a1,-40(s0)
    3270:	fe043503          	ld	a0,-32(s0)
    3274:	c20fe0ef          	jal	ra,1694 <UnityPrintExpectedAndActualStrings>
    3278:	fb043503          	ld	a0,-80(s0)
    327c:	b8cfe0ef          	jal	ra,1608 <UnityAddMsgIfSpecified>
    3280:	00002797          	auipc	a5,0x2
    3284:	e6078793          	addi	a5,a5,-416 # 50e0 <Unity>
    3288:	4705                	li	a4,1
    328a:	e3b8                	sd	a4,64(a5)
    328c:	4585                	li	a1,1
    328e:	00002517          	auipc	a0,0x2
    3292:	ea250513          	addi	a0,a0,-350 # 5130 <Unity+0x50>
    3296:	beafd0ef          	jal	ra,680 <longjmp@plt>
    329a:	fe842783          	lw	a5,-24(s0)
    329e:	2785                	addiw	a5,a5,1
    32a0:	fef42423          	sw	a5,-24(s0)
    32a4:	fe842783          	lw	a5,-24(s0)
    32a8:	873e                	mv	a4,a5
    32aa:	fbc42783          	lw	a5,-68(s0)
    32ae:	2701                	sext.w	a4,a4
    32b0:	2781                	sext.w	a5,a5
    32b2:	ecf764e3          	bltu	a4,a5,317a <UnityAssertEqualStringArray+0xee>
    32b6:	a011                	j	32ba <UnityAssertEqualStringArray+0x22e>
    32b8:	0001                	nop
    32ba:	60e6                	ld	ra,88(sp)
    32bc:	6446                	ld	s0,80(sp)
    32be:	6125                	addi	sp,sp,96
    32c0:	8082                	ret

00000000000032c2 <UnityAssertEqualMemory>:
    32c2:	711d                	addi	sp,sp,-96
    32c4:	ec86                	sd	ra,88(sp)
    32c6:	e8a2                	sd	s0,80(sp)
    32c8:	1080                	addi	s0,sp,96
    32ca:	fca43423          	sd	a0,-56(s0)
    32ce:	fcb43023          	sd	a1,-64(s0)
    32d2:	fae43823          	sd	a4,-80(s0)
    32d6:	faf43423          	sd	a5,-88(s0)
    32da:	8742                	mv	a4,a6
    32dc:	87b2                	mv	a5,a2
    32de:	faf42e23          	sw	a5,-68(s0)
    32e2:	87b6                	mv	a5,a3
    32e4:	faf42c23          	sw	a5,-72(s0)
    32e8:	87ba                	mv	a5,a4
    32ea:	faf42223          	sw	a5,-92(s0)
    32ee:	fc843783          	ld	a5,-56(s0)
    32f2:	fef43423          	sd	a5,-24(s0)
    32f6:	fc043783          	ld	a5,-64(s0)
    32fa:	fef43023          	sd	a5,-32(s0)
    32fe:	fb842783          	lw	a5,-72(s0)
    3302:	fcf42e23          	sw	a5,-36(s0)
    3306:	00002797          	auipc	a5,0x2
    330a:	dda78793          	addi	a5,a5,-550 # 50e0 <Unity>
    330e:	63bc                	ld	a5,64(a5)
    3310:	e799                	bnez	a5,331e <UnityAssertEqualMemory+0x5c>
    3312:	00002797          	auipc	a5,0x2
    3316:	dce78793          	addi	a5,a5,-562 # 50e0 <Unity>
    331a:	67bc                	ld	a5,72(a5)
    331c:	cb81                	beqz	a5,332c <UnityAssertEqualMemory+0x6a>
    331e:	4585                	li	a1,1
    3320:	00002517          	auipc	a0,0x2
    3324:	e1050513          	addi	a0,a0,-496 # 5130 <Unity+0x50>
    3328:	b58fd0ef          	jal	ra,680 <longjmp@plt>
    332c:	fdc42783          	lw	a5,-36(s0)
    3330:	2781                	sext.w	a5,a5
    3332:	ef85                	bnez	a5,336a <UnityAssertEqualMemory+0xa8>
    3334:	fa843503          	ld	a0,-88(s0)
    3338:	9eefe0ef          	jal	ra,1526 <UnityTestResultsFailBegin>
    333c:	00001517          	auipc	a0,0x1
    3340:	84c50513          	addi	a0,a0,-1972 # 3b88 <UnityStrPointless>
    3344:	fb4fd0ef          	jal	ra,af8 <UnityPrint>
    3348:	fb043503          	ld	a0,-80(s0)
    334c:	abcfe0ef          	jal	ra,1608 <UnityAddMsgIfSpecified>
    3350:	00002797          	auipc	a5,0x2
    3354:	d9078793          	addi	a5,a5,-624 # 50e0 <Unity>
    3358:	4705                	li	a4,1
    335a:	e3b8                	sd	a4,64(a5)
    335c:	4585                	li	a1,1
    335e:	00002517          	auipc	a0,0x2
    3362:	dd250513          	addi	a0,a0,-558 # 5130 <Unity+0x50>
    3366:	b1afd0ef          	jal	ra,680 <longjmp@plt>
    336a:	fbc42783          	lw	a5,-68(s0)
    336e:	2781                	sext.w	a5,a5
    3370:	ef85                	bnez	a5,33a8 <UnityAssertEqualMemory+0xe6>
    3372:	fa843503          	ld	a0,-88(s0)
    3376:	9b0fe0ef          	jal	ra,1526 <UnityTestResultsFailBegin>
    337a:	00001517          	auipc	a0,0x1
    337e:	80e50513          	addi	a0,a0,-2034 # 3b88 <UnityStrPointless>
    3382:	f76fd0ef          	jal	ra,af8 <UnityPrint>
    3386:	fb043503          	ld	a0,-80(s0)
    338a:	a7efe0ef          	jal	ra,1608 <UnityAddMsgIfSpecified>
    338e:	00002797          	auipc	a5,0x2
    3392:	d5278793          	addi	a5,a5,-686 # 50e0 <Unity>
    3396:	4705                	li	a4,1
    3398:	e3b8                	sd	a4,64(a5)
    339a:	4585                	li	a1,1
    339c:	00002517          	auipc	a0,0x2
    33a0:	d9450513          	addi	a0,a0,-620 # 5130 <Unity+0x50>
    33a4:	adcfd0ef          	jal	ra,680 <longjmp@plt>
    33a8:	fc843703          	ld	a4,-56(s0)
    33ac:	fc043783          	ld	a5,-64(s0)
    33b0:	16f70863          	beq	a4,a5,3520 <UnityAssertEqualMemory+0x25e>
    33b4:	fb043683          	ld	a3,-80(s0)
    33b8:	fa843603          	ld	a2,-88(s0)
    33bc:	fc043583          	ld	a1,-64(s0)
    33c0:	fc843503          	ld	a0,-56(s0)
    33c4:	bf6fe0ef          	jal	ra,17ba <UnityIsOneArrayNull>
    33c8:	87aa                	mv	a5,a0
    33ca:	14078263          	beqz	a5,350e <UnityAssertEqualMemory+0x24c>
    33ce:	00002797          	auipc	a5,0x2
    33d2:	d1278793          	addi	a5,a5,-750 # 50e0 <Unity>
    33d6:	4705                	li	a4,1
    33d8:	e3b8                	sd	a4,64(a5)
    33da:	4585                	li	a1,1
    33dc:	00002517          	auipc	a0,0x2
    33e0:	d5450513          	addi	a0,a0,-684 # 5130 <Unity+0x50>
    33e4:	a9cfd0ef          	jal	ra,680 <longjmp@plt>
    33e8:	fbc42783          	lw	a5,-68(s0)
    33ec:	fcf42c23          	sw	a5,-40(s0)
    33f0:	a8fd                	j	34ee <UnityAssertEqualMemory+0x22c>
    33f2:	fe843783          	ld	a5,-24(s0)
    33f6:	0007c703          	lbu	a4,0(a5)
    33fa:	fe043783          	ld	a5,-32(s0)
    33fe:	0007c783          	lbu	a5,0(a5)
    3402:	0cf70c63          	beq	a4,a5,34da <UnityAssertEqualMemory+0x218>
    3406:	fa843503          	ld	a0,-88(s0)
    340a:	91cfe0ef          	jal	ra,1526 <UnityTestResultsFailBegin>
    340e:	00000517          	auipc	a0,0x0
    3412:	74250513          	addi	a0,a0,1858 # 3b50 <UnityStrMemory>
    3416:	ee2fd0ef          	jal	ra,af8 <UnityPrint>
    341a:	fb842783          	lw	a5,-72(s0)
    341e:	0007871b          	sext.w	a4,a5
    3422:	4785                	li	a5,1
    3424:	02e7f763          	bgeu	a5,a4,3452 <UnityAssertEqualMemory+0x190>
    3428:	00000517          	auipc	a0,0x0
    342c:	71050513          	addi	a0,a0,1808 # 3b38 <UnityStrElement>
    3430:	ec8fd0ef          	jal	ra,af8 <UnityPrint>
    3434:	fb842783          	lw	a5,-72(s0)
    3438:	873e                	mv	a4,a5
    343a:	fdc42783          	lw	a5,-36(s0)
    343e:	40f707bb          	subw	a5,a4,a5
    3442:	2781                	sext.w	a5,a5
    3444:	37fd                	addiw	a5,a5,-1
    3446:	2781                	sext.w	a5,a5
    3448:	1782                	slli	a5,a5,0x20
    344a:	9381                	srli	a5,a5,0x20
    344c:	853e                	mv	a0,a5
    344e:	96ffd0ef          	jal	ra,dbc <UnityPrintNumberUnsigned>
    3452:	00000517          	auipc	a0,0x0
    3456:	6f650513          	addi	a0,a0,1782 # 3b48 <UnityStrByte>
    345a:	e9efd0ef          	jal	ra,af8 <UnityPrint>
    345e:	fbc42783          	lw	a5,-68(s0)
    3462:	873e                	mv	a4,a5
    3464:	fd842783          	lw	a5,-40(s0)
    3468:	40f707bb          	subw	a5,a4,a5
    346c:	2781                	sext.w	a5,a5
    346e:	37fd                	addiw	a5,a5,-1
    3470:	2781                	sext.w	a5,a5
    3472:	1782                	slli	a5,a5,0x20
    3474:	9381                	srli	a5,a5,0x20
    3476:	853e                	mv	a0,a5
    3478:	945fd0ef          	jal	ra,dbc <UnityPrintNumberUnsigned>
    347c:	00000517          	auipc	a0,0x0
    3480:	64c50513          	addi	a0,a0,1612 # 3ac8 <UnityStrExpected>
    3484:	e74fd0ef          	jal	ra,af8 <UnityPrint>
    3488:	fe843783          	ld	a5,-24(s0)
    348c:	0007c783          	lbu	a5,0(a5)
    3490:	04100593          	li	a1,65
    3494:	853e                	mv	a0,a5
    3496:	fd0fd0ef          	jal	ra,c66 <UnityPrintNumberByStyle>
    349a:	00000517          	auipc	a0,0x0
    349e:	63e50513          	addi	a0,a0,1598 # 3ad8 <UnityStrWas>
    34a2:	e56fd0ef          	jal	ra,af8 <UnityPrint>
    34a6:	fe043783          	ld	a5,-32(s0)
    34aa:	0007c783          	lbu	a5,0(a5)
    34ae:	04100593          	li	a1,65
    34b2:	853e                	mv	a0,a5
    34b4:	fb2fd0ef          	jal	ra,c66 <UnityPrintNumberByStyle>
    34b8:	fb043503          	ld	a0,-80(s0)
    34bc:	94cfe0ef          	jal	ra,1608 <UnityAddMsgIfSpecified>
    34c0:	00002797          	auipc	a5,0x2
    34c4:	c2078793          	addi	a5,a5,-992 # 50e0 <Unity>
    34c8:	4705                	li	a4,1
    34ca:	e3b8                	sd	a4,64(a5)
    34cc:	4585                	li	a1,1
    34ce:	00002517          	auipc	a0,0x2
    34d2:	c6250513          	addi	a0,a0,-926 # 5130 <Unity+0x50>
    34d6:	9aafd0ef          	jal	ra,680 <longjmp@plt>
    34da:	fe843783          	ld	a5,-24(s0)
    34de:	0785                	addi	a5,a5,1
    34e0:	fef43423          	sd	a5,-24(s0)
    34e4:	fe043783          	ld	a5,-32(s0)
    34e8:	0785                	addi	a5,a5,1
    34ea:	fef43023          	sd	a5,-32(s0)
    34ee:	fd842783          	lw	a5,-40(s0)
    34f2:	fff7871b          	addiw	a4,a5,-1
    34f6:	fce42c23          	sw	a4,-40(s0)
    34fa:	ee079ce3          	bnez	a5,33f2 <UnityAssertEqualMemory+0x130>
    34fe:	fa442783          	lw	a5,-92(s0)
    3502:	2781                	sext.w	a5,a5
    3504:	e789                	bnez	a5,350e <UnityAssertEqualMemory+0x24c>
    3506:	fc843783          	ld	a5,-56(s0)
    350a:	fef43423          	sd	a5,-24(s0)
    350e:	fdc42783          	lw	a5,-36(s0)
    3512:	fff7871b          	addiw	a4,a5,-1
    3516:	fce42e23          	sw	a4,-36(s0)
    351a:	ec0797e3          	bnez	a5,33e8 <UnityAssertEqualMemory+0x126>
    351e:	a011                	j	3522 <UnityAssertEqualMemory+0x260>
    3520:	0001                	nop
    3522:	60e6                	ld	ra,88(sp)
    3524:	6446                	ld	s0,80(sp)
    3526:	6125                	addi	sp,sp,96
    3528:	8082                	ret

000000000000352a <UnityNumToPtr>:
    352a:	1101                	addi	sp,sp,-32
    352c:	ec22                	sd	s0,24(sp)
    352e:	1000                	addi	s0,sp,32
    3530:	fea43423          	sd	a0,-24(s0)
    3534:	87ae                	mv	a5,a1
    3536:	fef403a3          	sb	a5,-25(s0)
    353a:	fe744783          	lbu	a5,-25(s0)
    353e:	2781                	sext.w	a5,a5
    3540:	86be                	mv	a3,a5
    3542:	4721                	li	a4,8
    3544:	06e68163          	beq	a3,a4,35a6 <UnityNumToPtr+0x7c>
    3548:	86be                	mv	a3,a5
    354a:	4721                	li	a4,8
    354c:	06d74963          	blt	a4,a3,35be <UnityNumToPtr+0x94>
    3550:	86be                	mv	a3,a5
    3552:	4705                	li	a4,1
    3554:	00e68763          	beq	a3,a4,3562 <UnityNumToPtr+0x38>
    3558:	873e                	mv	a4,a5
    355a:	4789                	li	a5,2
    355c:	02f70463          	beq	a4,a5,3584 <UnityNumToPtr+0x5a>
    3560:	a8b9                	j	35be <UnityNumToPtr+0x94>
    3562:	fe843783          	ld	a5,-24(s0)
    3566:	0187971b          	slliw	a4,a5,0x18
    356a:	4187571b          	sraiw	a4,a4,0x18
    356e:	00002797          	auipc	a5,0x2
    3572:	d1a78793          	addi	a5,a5,-742 # 5288 <UnityQuickCompare>
    3576:	00e78023          	sb	a4,0(a5)
    357a:	00002797          	auipc	a5,0x2
    357e:	d0e78793          	addi	a5,a5,-754 # 5288 <UnityQuickCompare>
    3582:	a899                	j	35d8 <UnityNumToPtr+0xae>
    3584:	fe843783          	ld	a5,-24(s0)
    3588:	0107971b          	slliw	a4,a5,0x10
    358c:	4107571b          	sraiw	a4,a4,0x10
    3590:	00002797          	auipc	a5,0x2
    3594:	cf878793          	addi	a5,a5,-776 # 5288 <UnityQuickCompare>
    3598:	00e79023          	sh	a4,0(a5)
    359c:	00002797          	auipc	a5,0x2
    35a0:	cec78793          	addi	a5,a5,-788 # 5288 <UnityQuickCompare>
    35a4:	a815                	j	35d8 <UnityNumToPtr+0xae>
    35a6:	00002797          	auipc	a5,0x2
    35aa:	ce278793          	addi	a5,a5,-798 # 5288 <UnityQuickCompare>
    35ae:	fe843703          	ld	a4,-24(s0)
    35b2:	e398                	sd	a4,0(a5)
    35b4:	00002797          	auipc	a5,0x2
    35b8:	cd478793          	addi	a5,a5,-812 # 5288 <UnityQuickCompare>
    35bc:	a831                	j	35d8 <UnityNumToPtr+0xae>
    35be:	fe843783          	ld	a5,-24(s0)
    35c2:	0007871b          	sext.w	a4,a5
    35c6:	00002797          	auipc	a5,0x2
    35ca:	cc278793          	addi	a5,a5,-830 # 5288 <UnityQuickCompare>
    35ce:	c398                	sw	a4,0(a5)
    35d0:	00002797          	auipc	a5,0x2
    35d4:	cb878793          	addi	a5,a5,-840 # 5288 <UnityQuickCompare>
    35d8:	853e                	mv	a0,a5
    35da:	6462                	ld	s0,24(sp)
    35dc:	6105                	addi	sp,sp,32
    35de:	8082                	ret

00000000000035e0 <UnityFloatToPtr>:
    35e0:	1101                	addi	sp,sp,-32
    35e2:	ec22                	sd	s0,24(sp)
    35e4:	1000                	addi	s0,sp,32
    35e6:	fea42627          	fsw	fa0,-20(s0)
    35ea:	00002797          	auipc	a5,0x2
    35ee:	c9e78793          	addi	a5,a5,-866 # 5288 <UnityQuickCompare>
    35f2:	fec42787          	flw	fa5,-20(s0)
    35f6:	00f7a027          	fsw	fa5,0(a5)
    35fa:	00002797          	auipc	a5,0x2
    35fe:	c8e78793          	addi	a5,a5,-882 # 5288 <UnityQuickCompare>
    3602:	853e                	mv	a0,a5
    3604:	6462                	ld	s0,24(sp)
    3606:	6105                	addi	sp,sp,32
    3608:	8082                	ret

000000000000360a <UnityFail>:
    360a:	1101                	addi	sp,sp,-32
    360c:	ec06                	sd	ra,24(sp)
    360e:	e822                	sd	s0,16(sp)
    3610:	1000                	addi	s0,sp,32
    3612:	fea43423          	sd	a0,-24(s0)
    3616:	feb43023          	sd	a1,-32(s0)
    361a:	00002797          	auipc	a5,0x2
    361e:	ac678793          	addi	a5,a5,-1338 # 50e0 <Unity>
    3622:	63bc                	ld	a5,64(a5)
    3624:	e799                	bnez	a5,3632 <UnityFail+0x28>
    3626:	00002797          	auipc	a5,0x2
    362a:	aba78793          	addi	a5,a5,-1350 # 50e0 <Unity>
    362e:	67bc                	ld	a5,72(a5)
    3630:	cb81                	beqz	a5,3640 <UnityFail+0x36>
    3632:	4585                	li	a1,1
    3634:	00002517          	auipc	a0,0x2
    3638:	afc50513          	addi	a0,a0,-1284 # 5130 <Unity+0x50>
    363c:	844fd0ef          	jal	ra,680 <longjmp@plt>
    3640:	00002797          	auipc	a5,0x2
    3644:	aa078793          	addi	a5,a5,-1376 # 50e0 <Unity>
    3648:	639c                	ld	a5,0(a5)
    364a:	fe043583          	ld	a1,-32(s0)
    364e:	853e                	mv	a0,a5
    3650:	e83fd0ef          	jal	ra,14d2 <UnityTestResultsBegin>
    3654:	00000517          	auipc	a0,0x0
    3658:	44450513          	addi	a0,a0,1092 # 3a98 <UnityStrFail>
    365c:	c9cfd0ef          	jal	ra,af8 <UnityPrint>
    3660:	fe843783          	ld	a5,-24(s0)
    3664:	c7c1                	beqz	a5,36ec <UnityFail+0xe2>
    3666:	03a00513          	li	a0,58
    366a:	826fd0ef          	jal	ra,690 <putchar@plt>
    366e:	00002797          	auipc	a5,0x2
    3672:	a7278793          	addi	a5,a5,-1422 # 50e0 <Unity>
    3676:	6b9c                	ld	a5,16(a5)
    3678:	cba9                	beqz	a5,36ca <UnityFail+0xc0>
    367a:	00000517          	auipc	a0,0x0
    367e:	6ae50513          	addi	a0,a0,1710 # 3d28 <UnityStrDetail1Name>
    3682:	c76fd0ef          	jal	ra,af8 <UnityPrint>
    3686:	00002797          	auipc	a5,0x2
    368a:	a5a78793          	addi	a5,a5,-1446 # 50e0 <Unity>
    368e:	6b9c                	ld	a5,16(a5)
    3690:	853e                	mv	a0,a5
    3692:	c66fd0ef          	jal	ra,af8 <UnityPrint>
    3696:	00002797          	auipc	a5,0x2
    369a:	a4a78793          	addi	a5,a5,-1462 # 50e0 <Unity>
    369e:	6f9c                	ld	a5,24(a5)
    36a0:	cf99                	beqz	a5,36be <UnityFail+0xb4>
    36a2:	00000517          	auipc	a0,0x0
    36a6:	69650513          	addi	a0,a0,1686 # 3d38 <UnityStrDetail2Name>
    36aa:	c4efd0ef          	jal	ra,af8 <UnityPrint>
    36ae:	00002797          	auipc	a5,0x2
    36b2:	a3278793          	addi	a5,a5,-1486 # 50e0 <Unity>
    36b6:	6f9c                	ld	a5,24(a5)
    36b8:	853e                	mv	a0,a5
    36ba:	c3efd0ef          	jal	ra,af8 <UnityPrint>
    36be:	00000517          	auipc	a0,0x0
    36c2:	40250513          	addi	a0,a0,1026 # 3ac0 <UnityStrSpacer>
    36c6:	c32fd0ef          	jal	ra,af8 <UnityPrint>
    36ca:	fe843783          	ld	a5,-24(s0)
    36ce:	0007c783          	lbu	a5,0(a5)
    36d2:	873e                	mv	a4,a5
    36d4:	02000793          	li	a5,32
    36d8:	00f70663          	beq	a4,a5,36e4 <UnityFail+0xda>
    36dc:	02000513          	li	a0,32
    36e0:	fb1fc0ef          	jal	ra,690 <putchar@plt>
    36e4:	fe843503          	ld	a0,-24(s0)
    36e8:	c10fd0ef          	jal	ra,af8 <UnityPrint>
    36ec:	00002797          	auipc	a5,0x2
    36f0:	9f478793          	addi	a5,a5,-1548 # 50e0 <Unity>
    36f4:	4705                	li	a4,1
    36f6:	e3b8                	sd	a4,64(a5)
    36f8:	4585                	li	a1,1
    36fa:	00002517          	auipc	a0,0x2
    36fe:	a3650513          	addi	a0,a0,-1482 # 5130 <Unity+0x50>
    3702:	f7ffc0ef          	jal	ra,680 <longjmp@plt>

0000000000003706 <UnityIgnore>:
    3706:	1101                	addi	sp,sp,-32
    3708:	ec06                	sd	ra,24(sp)
    370a:	e822                	sd	s0,16(sp)
    370c:	1000                	addi	s0,sp,32
    370e:	fea43423          	sd	a0,-24(s0)
    3712:	feb43023          	sd	a1,-32(s0)
    3716:	00002797          	auipc	a5,0x2
    371a:	9ca78793          	addi	a5,a5,-1590 # 50e0 <Unity>
    371e:	63bc                	ld	a5,64(a5)
    3720:	e799                	bnez	a5,372e <UnityIgnore+0x28>
    3722:	00002797          	auipc	a5,0x2
    3726:	9be78793          	addi	a5,a5,-1602 # 50e0 <Unity>
    372a:	67bc                	ld	a5,72(a5)
    372c:	cb81                	beqz	a5,373c <UnityIgnore+0x36>
    372e:	4585                	li	a1,1
    3730:	00002517          	auipc	a0,0x2
    3734:	a0050513          	addi	a0,a0,-1536 # 5130 <Unity+0x50>
    3738:	f49fc0ef          	jal	ra,680 <longjmp@plt>
    373c:	00002797          	auipc	a5,0x2
    3740:	9a478793          	addi	a5,a5,-1628 # 50e0 <Unity>
    3744:	639c                	ld	a5,0(a5)
    3746:	fe043583          	ld	a1,-32(s0)
    374a:	853e                	mv	a0,a5
    374c:	d87fd0ef          	jal	ra,14d2 <UnityTestResultsBegin>
    3750:	00000517          	auipc	a0,0x0
    3754:	35850513          	addi	a0,a0,856 # 3aa8 <UnityStrIgnore>
    3758:	ba0fd0ef          	jal	ra,af8 <UnityPrint>
    375c:	fe843783          	ld	a5,-24(s0)
    3760:	cf89                	beqz	a5,377a <UnityIgnore+0x74>
    3762:	03a00513          	li	a0,58
    3766:	f2bfc0ef          	jal	ra,690 <putchar@plt>
    376a:	02000513          	li	a0,32
    376e:	f23fc0ef          	jal	ra,690 <putchar@plt>
    3772:	fe843503          	ld	a0,-24(s0)
    3776:	b82fd0ef          	jal	ra,af8 <UnityPrint>
    377a:	00002797          	auipc	a5,0x2
    377e:	96678793          	addi	a5,a5,-1690 # 50e0 <Unity>
    3782:	4705                	li	a4,1
    3784:	e7b8                	sd	a4,72(a5)
    3786:	4585                	li	a1,1
    3788:	00002517          	auipc	a0,0x2
    378c:	9a850513          	addi	a0,a0,-1624 # 5130 <Unity+0x50>
    3790:	ef1fc0ef          	jal	ra,680 <longjmp@plt>

0000000000003794 <UnityMessage>:
    3794:	1101                	addi	sp,sp,-32
    3796:	ec06                	sd	ra,24(sp)
    3798:	e822                	sd	s0,16(sp)
    379a:	1000                	addi	s0,sp,32
    379c:	fea43423          	sd	a0,-24(s0)
    37a0:	feb43023          	sd	a1,-32(s0)
    37a4:	00002797          	auipc	a5,0x2
    37a8:	93c78793          	addi	a5,a5,-1732 # 50e0 <Unity>
    37ac:	639c                	ld	a5,0(a5)
    37ae:	fe043583          	ld	a1,-32(s0)
    37b2:	853e                	mv	a0,a5
    37b4:	d1ffd0ef          	jal	ra,14d2 <UnityTestResultsBegin>
    37b8:	00000517          	auipc	a0,0x0
    37bc:	5a850513          	addi	a0,a0,1448 # 3d60 <UnityStrDetail2Name+0x28>
    37c0:	b38fd0ef          	jal	ra,af8 <UnityPrint>
    37c4:	fe843783          	ld	a5,-24(s0)
    37c8:	cf89                	beqz	a5,37e2 <UnityMessage+0x4e>
    37ca:	03a00513          	li	a0,58
    37ce:	ec3fc0ef          	jal	ra,690 <putchar@plt>
    37d2:	02000513          	li	a0,32
    37d6:	ebbfc0ef          	jal	ra,690 <putchar@plt>
    37da:	fe843503          	ld	a0,-24(s0)
    37de:	b1afd0ef          	jal	ra,af8 <UnityPrint>
    37e2:	4529                	li	a0,10
    37e4:	eadfc0ef          	jal	ra,690 <putchar@plt>
    37e8:	0001                	nop
    37ea:	60e2                	ld	ra,24(sp)
    37ec:	6442                	ld	s0,16(sp)
    37ee:	6105                	addi	sp,sp,32
    37f0:	8082                	ret

00000000000037f2 <UnityDefaultTestRun>:
    37f2:	7179                	addi	sp,sp,-48
    37f4:	f406                	sd	ra,40(sp)
    37f6:	f022                	sd	s0,32(sp)
    37f8:	1800                	addi	s0,sp,48
    37fa:	fea43423          	sd	a0,-24(s0)
    37fe:	feb43023          	sd	a1,-32(s0)
    3802:	87b2                	mv	a5,a2
    3804:	fcf42e23          	sw	a5,-36(s0)
    3808:	00002797          	auipc	a5,0x2
    380c:	8d878793          	addi	a5,a5,-1832 # 50e0 <Unity>
    3810:	fe043703          	ld	a4,-32(s0)
    3814:	e798                	sd	a4,8(a5)
    3816:	fdc42703          	lw	a4,-36(s0)
    381a:	00002797          	auipc	a5,0x2
    381e:	8c678793          	addi	a5,a5,-1850 # 50e0 <Unity>
    3822:	f398                	sd	a4,32(a5)
    3824:	00002797          	auipc	a5,0x2
    3828:	8bc78793          	addi	a5,a5,-1860 # 50e0 <Unity>
    382c:	779c                	ld	a5,40(a5)
    382e:	00178713          	addi	a4,a5,1
    3832:	00002797          	auipc	a5,0x2
    3836:	8ae78793          	addi	a5,a5,-1874 # 50e0 <Unity>
    383a:	f798                	sd	a4,40(a5)
    383c:	00002797          	auipc	a5,0x2
    3840:	8a478793          	addi	a5,a5,-1884 # 50e0 <Unity>
    3844:	0007b823          	sd	zero,16(a5)
    3848:	00002797          	auipc	a5,0x2
    384c:	89878793          	addi	a5,a5,-1896 # 50e0 <Unity>
    3850:	0007bc23          	sd	zero,24(a5)
    3854:	00002517          	auipc	a0,0x2
    3858:	8dc50513          	addi	a0,a0,-1828 # 5130 <Unity+0x50>
    385c:	e45fc0ef          	jal	ra,6a0 <setjmp@plt>
    3860:	87aa                	mv	a5,a0
    3862:	e791                	bnez	a5,386e <UnityDefaultTestRun+0x7c>
    3864:	f6bfc0ef          	jal	ra,7ce <setUp>
    3868:	fe843783          	ld	a5,-24(s0)
    386c:	9782                	jalr	a5
    386e:	00002517          	auipc	a0,0x2
    3872:	8c250513          	addi	a0,a0,-1854 # 5130 <Unity+0x50>
    3876:	e2bfc0ef          	jal	ra,6a0 <setjmp@plt>
    387a:	87aa                	mv	a5,a0
    387c:	e399                	bnez	a5,3882 <UnityDefaultTestRun+0x90>
    387e:	f5ffc0ef          	jal	ra,7dc <tearDown>
    3882:	ce3fd0ef          	jal	ra,1564 <UnityConcludeTest>
    3886:	0001                	nop
    3888:	70a2                	ld	ra,40(sp)
    388a:	7402                	ld	s0,32(sp)
    388c:	6145                	addi	sp,sp,48
    388e:	8082                	ret

0000000000003890 <UnitySetTestFile>:
    3890:	1101                	addi	sp,sp,-32
    3892:	ec22                	sd	s0,24(sp)
    3894:	1000                	addi	s0,sp,32
    3896:	fea43423          	sd	a0,-24(s0)
    389a:	00002797          	auipc	a5,0x2
    389e:	84678793          	addi	a5,a5,-1978 # 50e0 <Unity>
    38a2:	fe843703          	ld	a4,-24(s0)
    38a6:	e398                	sd	a4,0(a5)
    38a8:	0001                	nop
    38aa:	6462                	ld	s0,24(sp)
    38ac:	6105                	addi	sp,sp,32
    38ae:	8082                	ret

00000000000038b0 <UnityBegin>:
    38b0:	1101                	addi	sp,sp,-32
    38b2:	ec22                	sd	s0,24(sp)
    38b4:	1000                	addi	s0,sp,32
    38b6:	fea43423          	sd	a0,-24(s0)
    38ba:	00002797          	auipc	a5,0x2
    38be:	82678793          	addi	a5,a5,-2010 # 50e0 <Unity>
    38c2:	fe843703          	ld	a4,-24(s0)
    38c6:	e398                	sd	a4,0(a5)
    38c8:	00002797          	auipc	a5,0x2
    38cc:	81878793          	addi	a5,a5,-2024 # 50e0 <Unity>
    38d0:	0007b423          	sd	zero,8(a5)
    38d4:	00002797          	auipc	a5,0x2
    38d8:	80c78793          	addi	a5,a5,-2036 # 50e0 <Unity>
    38dc:	0207b023          	sd	zero,32(a5)
    38e0:	00002797          	auipc	a5,0x2
    38e4:	80078793          	addi	a5,a5,-2048 # 50e0 <Unity>
    38e8:	0207b423          	sd	zero,40(a5)
    38ec:	00001797          	auipc	a5,0x1
    38f0:	7f478793          	addi	a5,a5,2036 # 50e0 <Unity>
    38f4:	0207b823          	sd	zero,48(a5)
    38f8:	00001797          	auipc	a5,0x1
    38fc:	7e878793          	addi	a5,a5,2024 # 50e0 <Unity>
    3900:	0207bc23          	sd	zero,56(a5)
    3904:	00001797          	auipc	a5,0x1
    3908:	7dc78793          	addi	a5,a5,2012 # 50e0 <Unity>
    390c:	0407b023          	sd	zero,64(a5)
    3910:	00001797          	auipc	a5,0x1
    3914:	7d078793          	addi	a5,a5,2000 # 50e0 <Unity>
    3918:	0407b423          	sd	zero,72(a5)
    391c:	00001797          	auipc	a5,0x1
    3920:	7c478793          	addi	a5,a5,1988 # 50e0 <Unity>
    3924:	0007b823          	sd	zero,16(a5)
    3928:	00001797          	auipc	a5,0x1
    392c:	7b878793          	addi	a5,a5,1976 # 50e0 <Unity>
    3930:	0007bc23          	sd	zero,24(a5)
    3934:	0001                	nop
    3936:	6462                	ld	s0,24(sp)
    3938:	6105                	addi	sp,sp,32
    393a:	8082                	ret

000000000000393c <UnityEnd>:
    393c:	1141                	addi	sp,sp,-16
    393e:	e406                	sd	ra,8(sp)
    3940:	e022                	sd	s0,0(sp)
    3942:	0800                	addi	s0,sp,16
    3944:	4529                	li	a0,10
    3946:	d4bfc0ef          	jal	ra,690 <putchar@plt>
    394a:	00000517          	auipc	a0,0x0
    394e:	39e50513          	addi	a0,a0,926 # 3ce8 <UnityStrBreaker>
    3952:	9a6fd0ef          	jal	ra,af8 <UnityPrint>
    3956:	4529                	li	a0,10
    3958:	d39fc0ef          	jal	ra,690 <putchar@plt>
    395c:	00001797          	auipc	a5,0x1
    3960:	78478793          	addi	a5,a5,1924 # 50e0 <Unity>
    3964:	779c                	ld	a5,40(a5)
    3966:	853e                	mv	a0,a5
    3968:	c12fd0ef          	jal	ra,d7a <UnityPrintNumber>
    396c:	00000517          	auipc	a0,0x0
    3970:	39450513          	addi	a0,a0,916 # 3d00 <UnityStrResultsTests>
    3974:	984fd0ef          	jal	ra,af8 <UnityPrint>
    3978:	00001797          	auipc	a5,0x1
    397c:	76878793          	addi	a5,a5,1896 # 50e0 <Unity>
    3980:	7b9c                	ld	a5,48(a5)
    3982:	853e                	mv	a0,a5
    3984:	bf6fd0ef          	jal	ra,d7a <UnityPrintNumber>
    3988:	00000517          	auipc	a0,0x0
    398c:	38050513          	addi	a0,a0,896 # 3d08 <UnityStrResultsFailures>
    3990:	968fd0ef          	jal	ra,af8 <UnityPrint>
    3994:	00001797          	auipc	a5,0x1
    3998:	74c78793          	addi	a5,a5,1868 # 50e0 <Unity>
    399c:	7f9c                	ld	a5,56(a5)
    399e:	853e                	mv	a0,a5
    39a0:	bdafd0ef          	jal	ra,d7a <UnityPrintNumber>
    39a4:	00000517          	auipc	a0,0x0
    39a8:	37450513          	addi	a0,a0,884 # 3d18 <UnityStrResultsIgnored>
    39ac:	94cfd0ef          	jal	ra,af8 <UnityPrint>
    39b0:	4529                	li	a0,10
    39b2:	cdffc0ef          	jal	ra,690 <putchar@plt>
    39b6:	00001797          	auipc	a5,0x1
    39ba:	72a78793          	addi	a5,a5,1834 # 50e0 <Unity>
    39be:	7b9c                	ld	a5,48(a5)
    39c0:	eb81                	bnez	a5,39d0 <UnityEnd+0x94>
    39c2:	00000517          	auipc	a0,0x0
    39c6:	0b650513          	addi	a0,a0,182 # 3a78 <UnityStrOk>
    39ca:	92efd0ef          	jal	ra,af8 <UnityPrint>
    39ce:	a039                	j	39dc <UnityEnd+0xa0>
    39d0:	00000517          	auipc	a0,0x0
    39d4:	0c850513          	addi	a0,a0,200 # 3a98 <UnityStrFail>
    39d8:	920fd0ef          	jal	ra,af8 <UnityPrint>
    39dc:	4529                	li	a0,10
    39de:	cb3fc0ef          	jal	ra,690 <putchar@plt>
    39e2:	00001797          	auipc	a5,0x1
    39e6:	6fe78793          	addi	a5,a5,1790 # 50e0 <Unity>
    39ea:	7b9c                	ld	a5,48(a5)
    39ec:	2781                	sext.w	a5,a5
    39ee:	853e                	mv	a0,a5
    39f0:	60a2                	ld	ra,8(sp)
    39f2:	6402                	ld	s0,0(sp)
    39f4:	0141                	addi	sp,sp,16
    39f6:	8082                	ret
