---
source: xtask/src/main.rs
description: riscv64-linux-musl-gcc (GCC) 9.4.0
expression: from_utf8(&output.stdout).unwrap()
---
mutex:     file format elf64-littleriscv
mutex
architecture: riscv:rv64, flags 0x00000112:
EXEC_P, HAS_SYMS, D_PAGED
start address 0x0000000000010660

Program Header:
    PHDR off    0x0000000000000040 vaddr 0x0000000000010040 paddr 0x0000000000010040 align 2**3
         filesz 0x0000000000000188 memsz 0x0000000000000188 flags r--
  INTERP off    0x00000000000001c8 vaddr 0x00000000000101c8 paddr 0x00000000000101c8 align 2**0
         filesz 0x000000000000001a memsz 0x000000000000001a flags r--
    LOAD off    0x0000000000000000 vaddr 0x0000000000010000 paddr 0x0000000000010000 align 2**12
         filesz 0x0000000000000930 memsz 0x0000000000000930 flags r-x
    LOAD off    0x0000000000000e40 vaddr 0x0000000000011e40 paddr 0x0000000000011e40 align 2**12
         filesz 0x0000000000000240 memsz 0x00000000000002a8 flags rw-
 DYNAMIC off    0x0000000000000e50 vaddr 0x0000000000011e50 paddr 0x0000000000011e50 align 2**3
         filesz 0x00000000000001b0 memsz 0x00000000000001b0 flags rw-
   STACK off    0x0000000000000000 vaddr 0x0000000000000000 paddr 0x0000000000000000 align 2**4
         filesz 0x0000000000000000 memsz 0x0000000000000000 flags rw-
   RELRO off    0x0000000000000e40 vaddr 0x0000000000011e40 paddr 0x0000000000011e40 align 2**0
         filesz 0x00000000000001c0 memsz 0x00000000000001c0 flags r--

Dynamic Section:
  NEEDED               libc.so
  INIT                 0x00000000000105e0
  FINI                 0x0000000000010600
  INIT_ARRAY           0x0000000000011e40
  INIT_ARRAYSZ         0x0000000000000008
  FINI_ARRAY           0x0000000000011e48
  FINI_ARRAYSZ         0x0000000000000008
  HASH                 0x00000000000101e8
  GNU_HASH             0x0000000000010230
  STRTAB               0x00000000000103c8
  SYMTAB               0x0000000000010290
  STRSZ                0x00000000000000a0
  SYMENT               0x0000000000000018
  DEBUG                0x0000000000000000
  PLTGOT               0x0000000000012000
  PLTRELSZ             0x0000000000000108
  PLTREL               0x0000000000000007
  JMPREL               0x0000000000010480
  RELA                 0x0000000000010468
  RELASZ               0x0000000000000120
  RELAENT              0x0000000000000018

Sections:
Idx Name          Size      VMA               LMA               File off  Algn
  0 .interp       0000001a  00000000000101c8  00000000000101c8  000001c8  2**0
                  CONTENTS, ALLOC, LOAD, READONLY, DATA
  1 .hash         00000048  00000000000101e8  00000000000101e8  000001e8  2**3
                  CONTENTS, ALLOC, LOAD, READONLY, DATA
  2 .gnu.hash     0000005c  0000000000010230  0000000000010230  00000230  2**3
                  CONTENTS, ALLOC, LOAD, READONLY, DATA
  3 .dynsym       00000138  0000000000010290  0000000000010290  00000290  2**3
                  CONTENTS, ALLOC, LOAD, READONLY, DATA
  4 .dynstr       000000a0  00000000000103c8  00000000000103c8  000003c8  2**0
                  CONTENTS, ALLOC, LOAD, READONLY, DATA
  5 .rela.dyn     00000018  0000000000010468  0000000000010468  00000468  2**3
                  CONTENTS, ALLOC, LOAD, READONLY, DATA
  6 .rela.plt     00000108  0000000000010480  0000000000010480  00000480  2**3
                  CONTENTS, ALLOC, LOAD, READONLY, DATA
  7 .plt          000000d0  0000000000010590  0000000000010590  00000590  2**4
                  CONTENTS, ALLOC, LOAD, READONLY, CODE
  8 .text         00000256  0000000000010660  0000000000010660  00000660  2**1
                  CONTENTS, ALLOC, LOAD, READONLY, CODE
  9 .rodata       00000073  00000000000108b8  00000000000108b8  000008b8  2**3
                  CONTENTS, ALLOC, LOAD, READONLY, DATA
 10 .eh_frame     00000004  000000000001092c  000000000001092c  0000092c  2**2
                  CONTENTS, ALLOC, LOAD, READONLY, DATA
 11 .init_array   00000008  0000000000011e40  0000000000011e40  00000e40  2**3
                  CONTENTS, ALLOC, LOAD, DATA
 12 .fini_array   00000008  0000000000011e48  0000000000011e48  00000e48  2**3
                  CONTENTS, ALLOC, LOAD, DATA
 13 .dynamic      000001b0  0000000000011e50  0000000000011e50  00000e50  2**3
                  CONTENTS, ALLOC, LOAD, DATA
 14 .got          00000078  0000000000012000  0000000000012000  00001000  2**3
                  CONTENTS, ALLOC, LOAD, DATA
 15 .sdata        00000008  0000000000012078  0000000000012078  00001078  2**3
                  CONTENTS, ALLOC, LOAD, DATA
 16 .bss          00000068  0000000000012080  0000000000012080  00001080  2**3
                  ALLOC
 17 .comment      00000011  0000000000000000  0000000000000000  00001080  2**0
                  CONTENTS, READONLY
SYMBOL TABLE:
00000000000101c8 l    d  .interp	0000000000000000 .interp
00000000000101e8 l    d  .hash	0000000000000000 .hash
0000000000010230 l    d  .gnu.hash	0000000000000000 .gnu.hash
0000000000010290 l    d  .dynsym	0000000000000000 .dynsym
00000000000103c8 l    d  .dynstr	0000000000000000 .dynstr
0000000000010468 l    d  .rela.dyn	0000000000000000 .rela.dyn
0000000000010480 l    d  .rela.plt	0000000000000000 .rela.plt
0000000000010590 l    d  .plt	0000000000000000 .plt
0000000000010660 l    d  .text	0000000000000000 .text
00000000000108b8 l    d  .rodata	0000000000000000 .rodata
000000000001092c l    d  .eh_frame	0000000000000000 .eh_frame
0000000000011e40 l    d  .init_array	0000000000000000 .init_array
0000000000011e48 l    d  .fini_array	0000000000000000 .fini_array
0000000000011e50 l    d  .dynamic	0000000000000000 .dynamic
0000000000012000 l    d  .got	0000000000000000 .got
0000000000012078 l    d  .sdata	0000000000000000 .sdata
0000000000012080 l    d  .bss	0000000000000000 .bss
0000000000000000 l    d  .comment	0000000000000000 .comment
0000000000000000 l    df *ABS*	0000000000000000 crt1.c
0000000000000000 l    df *ABS*	0000000000000000 crtstuff.c
000000000001092c l     O .eh_frame	0000000000000000 
0000000000010694 l     F .text	0000000000000000 deregister_tm_clones
00000000000106b8 l     F .text	0000000000000000 register_tm_clones
00000000000106e8 l     F .text	0000000000000000 __do_global_dtors_aux
0000000000012080 l     O .bss	0000000000000001 completed.4702
0000000000011e48 l     O .fini_array	0000000000000000 __do_global_dtors_aux_fini_array_entry
000000000001071e l     F .text	0000000000000000 frame_dummy
0000000000012088 l     O .bss	0000000000000030 object.4707
0000000000011e40 l     O .init_array	0000000000000000 __frame_dummy_init_array_entry
0000000000000000 l    df *ABS*	0000000000000000 mutex.c
0000000000000000 l    df *ABS*	0000000000000000 crtstuff.c
000000000001092c l     O .eh_frame	0000000000000000 __FRAME_END__
0000000000000000 l    df *ABS*	0000000000000000 
0000000000011e50 l     O .dynamic	0000000000000000 _DYNAMIC
0000000000010590 l     O .plt	0000000000000000 _PROCEDURE_LINKAGE_TABLE_
0000000000012068 l     O .got	0000000000000000 _GLOBAL_OFFSET_TABLE_
00000000000105b0       F *UND*	0000000000000000 printf
0000000000012800 g       *ABS*	0000000000000000 .hidden __global_pointer$
00000000000105c0       F *UND*	0000000000000000 pthread_create
0000000000012078 g       .sdata	0000000000000000 __SDATA_BEGIN__
0000000000012000 g     O .got	0000000000000000 .hidden __TMC_END__
00000000000105d0       F *UND*	0000000000000000 puts
0000000000012078 g     O .sdata	0000000000000000 .hidden __dso_handle
0000000000000000  w    F *UND*	0000000000000000 _init
00000000000120c0 g     O .bss	0000000000000028 mutex
0000000000010660 g     F .text	0000000000000000 _start
0000000000010678 g     F .text	000000000000001c _start_c
0000000000010746 g     F .text	0000000000000074 thread_run
00000000000120e8 g       .bss	0000000000000000 __BSS_END__
0000000000012080 g       .bss	0000000000000000 __bss_start
000000000001083a g     F .text	000000000000007c main
00000000000105f0       F *UND*	0000000000000000 pthread_mutex_unlock
00000000000107ba g     F .text	0000000000000080 test_mutex
00000000000120b8 g     O .bss	0000000000000004 count
0000000000000000  w    F *UND*	0000000000000000 _fini
0000000000012000 g       .got	0000000000000000 __DATA_BEGIN__
0000000000012080 g       .sdata	0000000000000000 _edata
00000000000120e8 g       .bss	0000000000000000 _end
0000000000010610       F *UND*	0000000000000000 pthread_mutex_destroy
0000000000010620       F *UND*	0000000000000000 pthread_mutex_lock
0000000000010630       F *UND*	0000000000000000 pthread_mutex_init
0000000000010640       F *UND*	0000000000000000 __libc_start_main
0000000000010650       F *UND*	0000000000000000 pthread_join



Disassembly of section .plt:

0000000000010590 <_PROCEDURE_LINKAGE_TABLE_>:
   10590:	97 23 00 00 33 03 c3 41 03 be 03 a7 13 03 43 fd     .#..3..A......C.
   105a0:	93 82 03 a7 13 53 13 00 83 b2 82 00 67 00 0e 00     .....S......g...

00000000000105b0 <printf@plt>:
   105b0:	00002e17          	auipc	t3,0x2
   105b4:	a60e3e03          	ld	t3,-1440(t3) # 12010 <printf>
   105b8:	000e0367          	jalr	t1,t3
   105bc:	00000013          	nop

00000000000105c0 <pthread_create@plt>:
   105c0:	00002e17          	auipc	t3,0x2
   105c4:	a58e3e03          	ld	t3,-1448(t3) # 12018 <pthread_create>
   105c8:	000e0367          	jalr	t1,t3
   105cc:	00000013          	nop

00000000000105d0 <puts@plt>:
   105d0:	00002e17          	auipc	t3,0x2
   105d4:	a50e3e03          	ld	t3,-1456(t3) # 12020 <puts>
   105d8:	000e0367          	jalr	t1,t3
   105dc:	00000013          	nop

00000000000105e0 <_init@plt>:
   105e0:	00002e17          	auipc	t3,0x2
   105e4:	a48e3e03          	ld	t3,-1464(t3) # 12028 <_init>
   105e8:	000e0367          	jalr	t1,t3
   105ec:	00000013          	nop

00000000000105f0 <pthread_mutex_unlock@plt>:
   105f0:	00002e17          	auipc	t3,0x2
   105f4:	a40e3e03          	ld	t3,-1472(t3) # 12030 <pthread_mutex_unlock>
   105f8:	000e0367          	jalr	t1,t3
   105fc:	00000013          	nop

0000000000010600 <_fini@plt>:
   10600:	00002e17          	auipc	t3,0x2
   10604:	a38e3e03          	ld	t3,-1480(t3) # 12038 <_fini>
   10608:	000e0367          	jalr	t1,t3
   1060c:	00000013          	nop

0000000000010610 <pthread_mutex_destroy@plt>:
   10610:	00002e17          	auipc	t3,0x2
   10614:	a30e3e03          	ld	t3,-1488(t3) # 12040 <pthread_mutex_destroy>
   10618:	000e0367          	jalr	t1,t3
   1061c:	00000013          	nop

0000000000010620 <pthread_mutex_lock@plt>:
   10620:	00002e17          	auipc	t3,0x2
   10624:	a28e3e03          	ld	t3,-1496(t3) # 12048 <pthread_mutex_lock>
   10628:	000e0367          	jalr	t1,t3
   1062c:	00000013          	nop

0000000000010630 <pthread_mutex_init@plt>:
   10630:	00002e17          	auipc	t3,0x2
   10634:	a20e3e03          	ld	t3,-1504(t3) # 12050 <pthread_mutex_init>
   10638:	000e0367          	jalr	t1,t3
   1063c:	00000013          	nop

0000000000010640 <__libc_start_main@plt>:
   10640:	00002e17          	auipc	t3,0x2
   10644:	a18e3e03          	ld	t3,-1512(t3) # 12058 <__libc_start_main>
   10648:	000e0367          	jalr	t1,t3
   1064c:	00000013          	nop

0000000000010650 <pthread_join@plt>:
   10650:	00002e17          	auipc	t3,0x2
   10654:	a10e3e03          	ld	t3,-1520(t3) # 12060 <pthread_join>
   10658:	000e0367          	jalr	t1,t3
   1065c:	00000013          	nop

Disassembly of section .text:

0000000000010660 <_start>:
   10660:	00002197          	auipc	gp,0x2
   10664:	1a018193          	addi	gp,gp,416 # 12800 <__global_pointer$>
   10668:	850a                	mv	a0,sp
   1066a:	00001597          	auipc	a1,0x1
   1066e:	7e658593          	addi	a1,a1,2022 # 11e50 <_DYNAMIC>
   10672:	ff017113          	andi	sp,sp,-16
   10676:	a009                	j	10678 <_start_c>

0000000000010678 <_start_c>:
   10678:	410c                	lw	a1,0(a0)
   1067a:	6741                	lui	a4,0x10
   1067c:	66c1                	lui	a3,0x10
   1067e:	00850613          	addi	a2,a0,8
   10682:	6545                	lui	a0,0x11
   10684:	4781                	li	a5,0
   10686:	60070713          	addi	a4,a4,1536 # 10600 <_fini@plt>
   1068a:	5e068693          	addi	a3,a3,1504 # 105e0 <_init@plt>
   1068e:	83a50513          	addi	a0,a0,-1990 # 1083a <main>
   10692:	b77d                	j	10640 <__libc_start_main@plt>

0000000000010694 <deregister_tm_clones>:
   10694:	6549                	lui	a0,0x12
   10696:	6749                	lui	a4,0x12
   10698:	00050793          	mv	a5,a0
   1069c:	00070713          	mv	a4,a4
   106a0:	00f70b63          	beq	a4,a5,106b6 <deregister_tm_clones+0x22>
   106a4:	00000337          	lui	t1,0x0
   106a8:	00030313          	mv	t1,t1
   106ac:	00030563          	beqz	t1,106b6 <deregister_tm_clones+0x22>
   106b0:	00050513          	mv	a0,a0
   106b4:	8302                	jr	t1
   106b6:	8082                	ret

00000000000106b8 <register_tm_clones>:
   106b8:	6549                	lui	a0,0x12
   106ba:	00050593          	mv	a1,a0
   106be:	67c9                	lui	a5,0x12
   106c0:	00078793          	mv	a5,a5
   106c4:	8f8d                	sub	a5,a5,a1
   106c6:	4037d713          	srai	a4,a5,0x3
   106ca:	03f7d593          	srli	a1,a5,0x3f
   106ce:	95ba                	add	a1,a1,a4
   106d0:	8585                	srai	a1,a1,0x1
   106d2:	c991                	beqz	a1,106e6 <register_tm_clones+0x2e>
   106d4:	00000337          	lui	t1,0x0
   106d8:	00030313          	mv	t1,t1
   106dc:	00030563          	beqz	t1,106e6 <register_tm_clones+0x2e>
   106e0:	00050513          	mv	a0,a0
   106e4:	8302                	jr	t1
   106e6:	8082                	ret

00000000000106e8 <__do_global_dtors_aux>:
   106e8:	1141                	addi	sp,sp,-16
   106ea:	e022                	sd	s0,0(sp)
   106ec:	8801c783          	lbu	a5,-1920(gp) # 12080 <_edata>
   106f0:	e406                	sd	ra,8(sp)
   106f2:	e395                	bnez	a5,10716 <__do_global_dtors_aux+0x2e>
   106f4:	fa1ff0ef          	jal	ra,10694 <deregister_tm_clones>
   106f8:	000007b7          	lui	a5,0x0
   106fc:	00078793          	mv	a5,a5
   10700:	cb81                	beqz	a5,10710 <__do_global_dtors_aux+0x28>
   10702:	6545                	lui	a0,0x11
   10704:	92c50513          	addi	a0,a0,-1748 # 1092c <__FRAME_END__>
   10708:	00000097          	auipc	ra,0x0
   1070c:	000000e7          	jalr	zero # 0 <_PROCEDURE_LINKAGE_TABLE_-0x10590>
   10710:	4785                	li	a5,1
   10712:	88f18023          	sb	a5,-1920(gp) # 12080 <_edata>
   10716:	60a2                	ld	ra,8(sp)
   10718:	6402                	ld	s0,0(sp)
   1071a:	0141                	addi	sp,sp,16
   1071c:	8082                	ret

000000000001071e <frame_dummy>:
   1071e:	000007b7          	lui	a5,0x0
   10722:	00078793          	mv	a5,a5
   10726:	cf99                	beqz	a5,10744 <frame_dummy+0x26>
   10728:	6545                	lui	a0,0x11
   1072a:	1141                	addi	sp,sp,-16
   1072c:	88818593          	addi	a1,gp,-1912 # 12088 <object.4707>
   10730:	92c50513          	addi	a0,a0,-1748 # 1092c <__FRAME_END__>
   10734:	e406                	sd	ra,8(sp)
   10736:	00000097          	auipc	ra,0x0
   1073a:	000000e7          	jalr	zero # 0 <_PROCEDURE_LINKAGE_TABLE_-0x10590>
   1073e:	60a2                	ld	ra,8(sp)
   10740:	0141                	addi	sp,sp,16
   10742:	bf9d                	j	106b8 <register_tm_clones>
   10744:	bf95                	j	106b8 <register_tm_clones>

0000000000010746 <thread_run>:
   10746:	7179                	addi	sp,sp,-48
   10748:	f406                	sd	ra,40(sp)
   1074a:	f022                	sd	s0,32(sp)
   1074c:	1800                	addi	s0,sp,48
   1074e:	fca43c23          	sd	a0,-40(s0)
   10752:	00002517          	auipc	a0,0x2
   10756:	91e53503          	ld	a0,-1762(a0) # 12070 <mutex-0x50>
   1075a:	ec7ff0ef          	jal	ra,10620 <pthread_mutex_lock@plt>
   1075e:	fe042623          	sw	zero,-20(s0)
   10762:	a80d                	j	10794 <thread_run+0x4e>
   10764:	8b818793          	addi	a5,gp,-1864 # 120b8 <count>
   10768:	439c                	lw	a5,0(a5)
   1076a:	2785                	addiw	a5,a5,1
   1076c:	0007871b          	sext.w	a4,a5
   10770:	8b818793          	addi	a5,gp,-1864 # 120b8 <count>
   10774:	c398                	sw	a4,0(a5)
   10776:	8b818793          	addi	a5,gp,-1864 # 120b8 <count>
   1077a:	439c                	lw	a5,0(a5)
   1077c:	85be                	mv	a1,a5
   1077e:	00000517          	auipc	a0,0x0
   10782:	13a50513          	addi	a0,a0,314 # 108b8 <main+0x7e>
   10786:	e2bff0ef          	jal	ra,105b0 <printf@plt>
   1078a:	fec42783          	lw	a5,-20(s0)
   1078e:	2785                	addiw	a5,a5,1
   10790:	fef42623          	sw	a5,-20(s0)
   10794:	fec42783          	lw	a5,-20(s0)
   10798:	0007871b          	sext.w	a4,a5
   1079c:	4789                	li	a5,2
   1079e:	fce7d3e3          	bge	a5,a4,10764 <thread_run+0x1e>
   107a2:	00002517          	auipc	a0,0x2
   107a6:	8ce53503          	ld	a0,-1842(a0) # 12070 <mutex-0x50>
   107aa:	e47ff0ef          	jal	ra,105f0 <pthread_mutex_unlock@plt>
   107ae:	4781                	li	a5,0
   107b0:	853e                	mv	a0,a5
   107b2:	70a2                	ld	ra,40(sp)
   107b4:	7402                	ld	s0,32(sp)
   107b6:	6145                	addi	sp,sp,48
   107b8:	8082                	ret

00000000000107ba <test_mutex>:
   107ba:	7179                	addi	sp,sp,-48
   107bc:	f406                	sd	ra,40(sp)
   107be:	f022                	sd	s0,32(sp)
   107c0:	1800                	addi	s0,sp,48
   107c2:	fca43c23          	sd	a0,-40(s0)
   107c6:	fcb43823          	sd	a1,-48(s0)
   107ca:	fd043583          	ld	a1,-48(s0)
   107ce:	00000517          	auipc	a0,0x0
   107d2:	10250513          	addi	a0,a0,258 # 108d0 <main+0x96>
   107d6:	ddbff0ef          	jal	ra,105b0 <printf@plt>
   107da:	fd843503          	ld	a0,-40(s0)
   107de:	e43ff0ef          	jal	ra,10620 <pthread_mutex_lock@plt>
   107e2:	87aa                	mv	a5,a0
   107e4:	fef42623          	sw	a5,-20(s0)
   107e8:	fec42783          	lw	a5,-20(s0)
   107ec:	4659                	li	a2,22
   107ee:	85be                	mv	a1,a5
   107f0:	00000517          	auipc	a0,0x0
   107f4:	0f050513          	addi	a0,a0,240 # 108e0 <main+0xa6>
   107f8:	db9ff0ef          	jal	ra,105b0 <printf@plt>
   107fc:	fec42783          	lw	a5,-20(s0)
   10800:	2781                	sext.w	a5,a5
   10802:	e79d                	bnez	a5,10830 <test_mutex+0x76>
   10804:	00000517          	auipc	a0,0x0
   10808:	0fc50513          	addi	a0,a0,252 # 10900 <main+0xc6>
   1080c:	dc5ff0ef          	jal	ra,105d0 <puts@plt>
   10810:	fd843503          	ld	a0,-40(s0)
   10814:	dddff0ef          	jal	ra,105f0 <pthread_mutex_unlock@plt>
   10818:	87aa                	mv	a5,a0
   1081a:	fef42423          	sw	a5,-24(s0)
   1081e:	fe842783          	lw	a5,-24(s0)
   10822:	85be                	mv	a1,a5
   10824:	00000517          	auipc	a0,0x0
   10828:	0f450513          	addi	a0,a0,244 # 10918 <main+0xde>
   1082c:	d85ff0ef          	jal	ra,105b0 <printf@plt>
   10830:	0001                	nop
   10832:	70a2                	ld	ra,40(sp)
   10834:	7402                	ld	s0,32(sp)
   10836:	6145                	addi	sp,sp,48
   10838:	8082                	ret

000000000001083a <main>:
   1083a:	7179                	addi	sp,sp,-48
   1083c:	f406                	sd	ra,40(sp)
   1083e:	f022                	sd	s0,32(sp)
   10840:	1800                	addi	s0,sp,48
   10842:	87aa                	mv	a5,a0
   10844:	fcb43823          	sd	a1,-48(s0)
   10848:	fcf42e23          	sw	a5,-36(s0)
   1084c:	4581                	li	a1,0
   1084e:	00002517          	auipc	a0,0x2
   10852:	82253503          	ld	a0,-2014(a0) # 12070 <mutex-0x50>
   10856:	ddbff0ef          	jal	ra,10630 <pthread_mutex_init@plt>
   1085a:	fe840793          	addi	a5,s0,-24
   1085e:	4681                	li	a3,0
   10860:	00000617          	auipc	a2,0x0
   10864:	ee660613          	addi	a2,a2,-282 # 10746 <thread_run>
   10868:	4581                	li	a1,0
   1086a:	853e                	mv	a0,a5
   1086c:	d55ff0ef          	jal	ra,105c0 <pthread_create@plt>
   10870:	fe040793          	addi	a5,s0,-32
   10874:	4681                	li	a3,0
   10876:	00000617          	auipc	a2,0x0
   1087a:	ed060613          	addi	a2,a2,-304 # 10746 <thread_run>
   1087e:	4581                	li	a1,0
   10880:	853e                	mv	a0,a5
   10882:	d3fff0ef          	jal	ra,105c0 <pthread_create@plt>
   10886:	fe843783          	ld	a5,-24(s0)
   1088a:	4581                	li	a1,0
   1088c:	853e                	mv	a0,a5
   1088e:	dc3ff0ef          	jal	ra,10650 <pthread_join@plt>
   10892:	fe043783          	ld	a5,-32(s0)
   10896:	4581                	li	a1,0
   10898:	853e                	mv	a0,a5
   1089a:	db7ff0ef          	jal	ra,10650 <pthread_join@plt>
   1089e:	00001517          	auipc	a0,0x1
   108a2:	7d253503          	ld	a0,2002(a0) # 12070 <mutex-0x50>
   108a6:	d6bff0ef          	jal	ra,10610 <pthread_mutex_destroy@plt>
   108aa:	4781                	li	a5,0
   108ac:	853e                	mv	a0,a5
   108ae:	70a2                	ld	ra,40(sp)
   108b0:	7402                	ld	s0,32(sp)
   108b2:	6145                	addi	sp,sp,48
   108b4:	8082                	ret
